TN:
SF:/home/joanna/include/boost/exception/exception.hpp
FN:32,_ZN5boost16exception_detail12refcount_ptrINS0_20error_info_containerEED2Ev
FN:76,_ZN5boost16exception_detail12refcount_ptrINS0_20error_info_containerEE7releaseEv
FN:281,_ZN5boost9exceptionD0Ev
FN:281,_ZN5boost9exceptionD2Ev
FN:406,_ZN5boost16exception_detail10clone_baseD0Ev
FN:406,_ZN5boost16exception_detail10clone_baseD2Ev
FNDA:0,_ZN5boost16exception_detail12refcount_ptrINS0_20error_info_containerEED2Ev
FNDA:0,_ZN5boost16exception_detail12refcount_ptrINS0_20error_info_containerEE7releaseEv
FNDA:0,_ZN5boost9exceptionD0Ev
FNDA:0,_ZN5boost9exceptionD2Ev
FNDA:0,_ZN5boost16exception_detail10clone_baseD0Ev
FNDA:0,_ZN5boost16exception_detail10clone_baseD2Ev
FNF:6
FNH:0
DA:32,0
DA:34,0
DA:35,0
DA:76,0
DA:78,0
DA:79,0
DA:80,0
DA:281,0
DA:282,0
DA:284,0
DA:406,0
DA:407,0
DA:408,0
LF:13
LH:0
end_of_record
SF:/home/joanna/include/boost/function/function_base.hpp
FN:731,_ZN5boost17bad_function_callD2Ev
FN:731,_ZN5boost17bad_function_callD0Ev
FNDA:0,_ZN5boost17bad_function_callD0Ev
FNDA:0,_ZN5boost17bad_function_callD2Ev
FNF:2
FNH:0
DA:731,0
LF:1
LH:0
end_of_record
SF:/usr/include/c++/4.7.2/bits/alloc_traits.h
FN:335,_ZNSt16allocator_traitsISaIiEE9_S_selectIKS0_EENSt9enable_ifIXntsrNS1_15__select_helperIT_EE5valueES6_E4typeERS6_
FN:335,_ZNSt16allocator_traitsISaIN8f_config16FeaturePositionsEEE9_S_selectIKS2_EENSt9enable_ifIXntsrNS3_15__select_helperIT_EE5valueES8_E4typeERS8_
FN:335,_ZNSt16allocator_traitsISaIdEE9_S_selectIKS0_EENSt9enable_ifIXntsrNS1_15__select_helperIT_EE5valueES6_E4typeERS6_
FN:335,_ZNSt16allocator_traitsISaISsEE9_S_selectIKS0_EENSt9enable_ifIXntsrNS1_15__select_helperIT_EE5valueES6_E4typeERS6_
FN:424,_ZNSt16allocator_traitsISaIdEE37select_on_container_copy_constructionERKS0_
FN:424,_ZNSt16allocator_traitsISaIN8f_config16FeaturePositionsEEE37select_on_container_copy_constructionERKS2_
FN:424,_ZNSt16allocator_traitsISaIiEE37select_on_container_copy_constructionERKS0_
FN:424,_ZNSt16allocator_traitsISaISsEE37select_on_container_copy_constructionERKS0_
FN:479,_ZSt18__do_alloc_on_moveISaIdEEvRT_S2_St17integral_constantIbLb0EE
FN:483,_ZSt15__alloc_on_moveISaIdEEvRT_S2_
FNDA:5596,_ZNSt16allocator_traitsISaIdEE9_S_selectIKS0_EENSt9enable_ifIXntsrNS1_15__select_helperIT_EE5valueES6_E4typeERS6_
FNDA:264,_ZNSt16allocator_traitsISaIiEE9_S_selectIKS0_EENSt9enable_ifIXntsrNS1_15__select_helperIT_EE5valueES6_E4typeERS6_
FNDA:24,_ZNSt16allocator_traitsISaIN8f_config16FeaturePositionsEEE9_S_selectIKS2_EENSt9enable_ifIXntsrNS3_15__select_helperIT_EE5valueES8_E4typeERS8_
FNDA:0,_ZNSt16allocator_traitsISaISsEE9_S_selectIKS0_EENSt9enable_ifIXntsrNS1_15__select_helperIT_EE5valueES6_E4typeERS6_
FNDA:5596,_ZNSt16allocator_traitsISaIdEE37select_on_container_copy_constructionERKS0_
FNDA:264,_ZNSt16allocator_traitsISaIiEE37select_on_container_copy_constructionERKS0_
FNDA:24,_ZNSt16allocator_traitsISaIN8f_config16FeaturePositionsEEE37select_on_container_copy_constructionERKS2_
FNDA:0,_ZNSt16allocator_traitsISaISsEE37select_on_container_copy_constructionERKS0_
FNDA:0,_ZSt18__do_alloc_on_moveISaIdEEvRT_S2_St17integral_constantIbLb0EE
FNDA:0,_ZSt15__alloc_on_moveISaIdEEvRT_S2_
FNF:10
FNH:6
DA:335,5884
DA:336,5884
DA:424,5884
DA:425,5884
DA:479,0
DA:480,0
DA:483,0
DA:487,0
DA:488,0
LF:9
LH:4
end_of_record
SF:/usr/include/c++/4.7.2/bits/allocator.h
FN:104,_ZNSaISt13_Rb_tree_nodeISt4pairIKSsSt6vectorIdSaIdEEEEEC2Ev
FN:104,_ZNSaIdEC2Ev
FN:106,_ZNSaISsEC2ERKS_
FN:106,_ZNSaIdEC2ERKS_
FN:106,_ZNSaISt13_Rb_tree_nodeISt4pairIKSsdEEEC2ERKS4_
FN:106,_ZNSaIN8f_config16FeaturePositionsEEC2ERKS1_
FN:106,_ZNSaISt13_Rb_tree_nodeISt4pairIKSsSt6vectorIdSaIdEEEEEC2ERKS7_
FN:106,_ZNSaIiEC2ERKS_
FN:112,_ZNSaISt13_Rb_tree_nodeISt4pairIKSsdEEED2Ev
FN:112,_ZNSaISt13_Rb_tree_nodeISt4pairIKSsSt6vectorIdSaIdEEEEED2Ev
FN:112,_ZNSaIdED2Ev
FN:112,_ZNSaISsED2Ev
FN:112,_ZNSaIiED2Ev
FN:112,_ZNSaIN8f_config16FeaturePositionsEED2Ev
FN:124,_ZSteqIcEbRKSaIT_ES3_
FN:154,_ZNSt12__alloc_swapISaISt13_Rb_tree_nodeISt4pairIKSsSt6vectorIdSaIdEEEEELb1EE8_S_do_itERS8_SA_
FNDA:84,_ZNSaISt13_Rb_tree_nodeISt4pairIKSsSt6vectorIdSaIdEEEEEC2Ev
FNDA:4728,_ZNSaIdEC2Ev
FNDA:556,_ZNSaIiEC2ERKS_
FNDA:4,_ZNSaISt13_Rb_tree_nodeISt4pairIKSsSt6vectorIdSaIdEEEEEC2ERKS7_
FNDA:20048,_ZNSaIdEC2ERKS_
FNDA:36,_ZNSaISt13_Rb_tree_nodeISt4pairIKSsdEEEC2ERKS4_
FNDA:152,_ZNSaIN8f_config16FeaturePositionsEEC2ERKS1_
FNDA:0,_ZNSaISsEC2ERKS_
FNDA:640,_ZNSaIiED2Ev
FNDA:256,_ZNSaIN8f_config16FeaturePositionsEED2Ev
FNDA:88,_ZNSaISt13_Rb_tree_nodeISt4pairIKSsSt6vectorIdSaIdEEEEED2Ev
FNDA:0,_ZNSaISt13_Rb_tree_nodeISt4pairIKSsdEEED2Ev
FNDA:0,_ZNSaISsED2Ev
FNDA:24776,_ZNSaIdED2Ev
FNDA:0,_ZSteqIcEbRKSaIT_ES3_
FNDA:24,_ZNSt12__alloc_swapISaISt13_Rb_tree_nodeISt4pairIKSsSt6vectorIdSaIdEEEEELb1EE8_S_do_itERS8_SA_
FNF:16
FNH:12
DA:104,4812
DA:106,20796
DA:107,20796
DA:112,25760
DA:124,0
DA:125,0
DA:154,24
LF:7
LH:5
end_of_record
SF:/usr/include/c++/4.7.2/bits/basic_string.h
FN:269,_ZNSs12_Alloc_hiderC2ERKS_
FN:269,_ZNSs12_Alloc_hiderD2Ev
FN:1718,_ZNSs16_S_construct_auxIPcEES0_T_S1_RKSaIcESt12__false_type
FN:1740,_ZNSs12_S_constructIPcEES0_T_S1_RKSaIcE
FN:2427,_ZStplIcSt11char_traitsIcESaIcEESbIT_T0_T1_EOS6_RKS6_
FN:2451,_ZStplIcSt11char_traitsIcESaIcEESbIT_T0_T1_EPKS3_OS6_
FN:2463,_ZStplIcSt11char_traitsIcESaIcEESbIT_T0_T1_EOS6_PKS3_
FN:2490,_ZSteqIcEN9__gnu_cxx11__enable_ifIXsrSt9__is_charIT_E7__valueEbE6__typeERKSbIS3_St11char_traitsIS3_ESaIS3_EESC_
FN:2516,_ZSteqIcSt11char_traitsIcESaIcEEbRKSbIT_T0_T1_EPKS3_
FN:2566,_ZStltIcSt11char_traitsIcESaIcEEbRKSbIT_T0_T1_ES8_
FN:2879,_ZSt9to_stringm
FNDA:0,_ZNSs12_Alloc_hiderC2ERKS_
FNDA:0,_ZNSs12_Alloc_hiderD2Ev
FNDA:0,_ZNSs16_S_construct_auxIPcEES0_T_S1_RKSaIcESt12__false_type
FNDA:0,_ZNSs12_S_constructIPcEES0_T_S1_RKSaIcE
FNDA:0,_ZStplIcSt11char_traitsIcESaIcEESbIT_T0_T1_EOS6_RKS6_
FNDA:0,_ZStplIcSt11char_traitsIcESaIcEESbIT_T0_T1_EPKS3_OS6_
FNDA:0,_ZStplIcSt11char_traitsIcESaIcEESbIT_T0_T1_EOS6_PKS3_
FNDA:0,_ZSteqIcEN9__gnu_cxx11__enable_ifIXsrSt9__is_charIT_E7__valueEbE6__typeERKSbIS3_St11char_traitsIS3_ESaIS3_EESC_
FNDA:0,_ZSteqIcSt11char_traitsIcESaIcEEbRKSbIT_T0_T1_EPKS3_
FNDA:0,_ZStltIcSt11char_traitsIcESaIcEEbRKSbIT_T0_T1_ES8_
FNDA:0,_ZSt9to_stringm
FNF:11
FNH:0
DA:269,0
DA:1718,0
DA:1722,0
DA:1740,0
DA:1743,0
DA:2427,0
DA:2429,0
DA:2451,0
DA:2453,0
DA:2463,0
DA:2465,0
DA:2490,0
DA:2494,0
DA:2516,0
DA:2518,0
DA:2566,0
DA:2568,0
DA:2879,0
DA:2882,0
LF:19
LH:0
end_of_record
SF:/usr/include/c++/4.7.2/bits/basic_string.tcc
FN:125,_ZNSs12_S_constructIPcEES0_T_S1_RKSaIcESt20forward_iterator_tag
FN:229,_ZNSsC2IPcEET_S1_RKSaIcE
FNDA:0,_ZNSs12_S_constructIPcEES0_T_S1_RKSaIcESt20forward_iterator_tag
FNDA:0,_ZNSsC2IPcEET_S1_RKSaIcE
FNF:2
FNH:0
DA:125,0
DA:130,0
DA:131,0
DA:134,0
DA:135,0
DA:138,0
DA:140,0
DA:142,0
DA:143,0
DA:145,0
DA:146,0
DA:148,0
DA:149,0
DA:229,0
DA:231,0
DA:232,0
LF:16
LH:0
end_of_record
SF:/usr/include/c++/4.7.2/bits/char_traits.h
FN:244,_ZNSt11char_traitsIcE6assignERcRKc
FN:256,_ZNSt11char_traitsIcE7compareEPKcS2_m
FN:260,_ZNSt11char_traitsIcE6lengthEPKc
FN:272,_ZNSt11char_traitsIcE4copyEPcPKcm
FNDA:0,_ZNSt11char_traitsIcE6assignERcRKc
FNDA:0,_ZNSt11char_traitsIcE7compareEPKcS2_m
FNDA:0,_ZNSt11char_traitsIcE6lengthEPKc
FNDA:0,_ZNSt11char_traitsIcE4copyEPcPKcm
FNF:4
FNH:0
DA:244,0
DA:245,0
DA:256,0
DA:257,0
DA:260,0
DA:261,0
DA:272,0
DA:273,0
LF:8
LH:0
end_of_record
SF:/usr/include/c++/4.7.2/bits/move.h
FN:47,_ZSt11__addressofISsEPT_RS0_
FN:47,_ZSt11__addressofIN8f_config16FeaturePositionsEEPT_RS2_
FN:47,_ZSt11__addressofISt4pairIKSsSt6vectorIdSaIdEEEEPT_RS6_
FN:77,_ZSt7forwardISt4pairIKSsdEEOT_RNSt16remove_referenceIS3_E4typeE
FN:77,_ZSt7forwardIRKN8f_config16FeaturePositionsEEOT_RNSt16remove_referenceIS4_E4typeE
FN:77,_ZSt7forwardIRKSsEOT_RNSt16remove_referenceIS2_E4typeE
FN:77,_ZSt7forwardIRKSt4pairIKSsdEEOT_RNSt16remove_referenceIS5_E4typeE
FN:77,_ZSt7forwardIbEOT_RNSt16remove_referenceIS0_E4typeE
FN:77,_ZSt7forwardISt17_Rb_tree_iteratorISt4pairIKSsSt6vectorIdSaIdEEEEEOT_RNSt16remove_referenceIS8_E4typeE
FN:77,_ZSt7forwardISt4pairIKSsSt6vectorIdSaIdEEEEOT_RNSt16remove_referenceIS6_E4typeE
FN:77,_ZSt7forwardIRSt17_Rb_tree_iteratorISt4pairIKSsSt6vectorIdSaIdEEEEEOT_RNSt16remove_referenceIS9_E4typeE
FN:77,_ZSt7forwardIdEOT_RNSt16remove_referenceIS0_E4typeE
FN:77,_ZSt7forwardISt6vectorIdSaIdEEEOT_RNSt16remove_referenceIS3_E4typeE
FN:77,_ZSt7forwardISt17_Rb_tree_iteratorISt4pairIKSsdEEEOT_RNSt16remove_referenceIS5_E4typeE
FN:77,_ZSt7forwardIRSt17_Rb_tree_iteratorISt4pairIKSsdEEEOT_RNSt16remove_referenceIS6_E4typeE
FN:77,_ZSt7forwardIRKSt4pairIKSsSt6vectorIdSaIdEEEEOT_RNSt16remove_referenceIS8_E4typeE
FN:102,_ZSt4moveIRPSt18_Rb_tree_node_baseEONSt16remove_referenceIT_E4typeEOS4_
FN:102,_ZSt4moveIRSt4lessISsEEONSt16remove_referenceIT_E4typeEOS4_
FN:102,_ZSt4moveIRPdEONSt16remove_referenceIT_E4typeEOS3_
FN:102,_ZSt4moveIRSaIdEEONSt16remove_referenceIT_E4typeEOS3_
FN:102,_ZSt4moveIRSsEONSt16remove_referenceIT_E4typeEOS2_
FN:102,_ZSt4moveIRSt6vectorIdSaIdEEEONSt16remove_referenceIT_E4typeEOS5_
FN:102,_ZSt4moveIRmEONSt16remove_referenceIT_E4typeEOS2_
FN:167,_ZSt4swapIPdEvRT_S2_
FN:167,_ZSt4swapISt4lessISsEEvRT_S3_
FN:167,_ZSt4swapIPSt18_Rb_tree_node_baseEvRT_S3_
FN:167,_ZSt4swapImEvRT_S1_
FNDA:512,_ZSt11__addressofIN8f_config16FeaturePositionsEEPT_RS2_
FNDA:0,_ZSt11__addressofISsEPT_RS0_
FNDA:169992,_ZSt11__addressofISt4pairIKSsSt6vectorIdSaIdEEEEPT_RS6_
FNDA:3356,_ZSt7forwardIRKSt4pairIKSsSt6vectorIdSaIdEEEEOT_RNSt16remove_referenceIS8_E4typeE
FNDA:400,_ZSt7forwardIRKN8f_config16FeaturePositionsEEOT_RNSt16remove_referenceIS4_E4typeE
FNDA:136,_ZSt7forwardIRKSt4pairIKSsdEEOT_RNSt16remove_referenceIS5_E4typeE
FNDA:0,_ZSt7forwardIRKSsEOT_RNSt16remove_referenceIS2_E4typeE
FNDA:0,_ZSt7forwardIRSt17_Rb_tree_iteratorISt4pairIKSsdEEEOT_RNSt16remove_referenceIS6_E4typeE
FNDA:0,_ZSt7forwardISt17_Rb_tree_iteratorISt4pairIKSsdEEEOT_RNSt16remove_referenceIS5_E4typeE
FNDA:0,_ZSt7forwardIRSt17_Rb_tree_iteratorISt4pairIKSsSt6vectorIdSaIdEEEEEOT_RNSt16remove_referenceIS9_E4typeE
FNDA:0,_ZSt7forwardIbEOT_RNSt16remove_referenceIS0_E4typeE
FNDA:168,_ZSt7forwardISt17_Rb_tree_iteratorISt4pairIKSsSt6vectorIdSaIdEEEEEOT_RNSt16remove_referenceIS8_E4typeE
FNDA:0,_ZSt7forwardISt4pairIKSsdEEOT_RNSt16remove_referenceIS3_E4typeE
FNDA:8640,_ZSt7forwardISt4pairIKSsSt6vectorIdSaIdEEEEOT_RNSt16remove_referenceIS6_E4typeE
FNDA:0,_ZSt7forwardIdEOT_RNSt16remove_referenceIS0_E4typeE
FNDA:2208,_ZSt7forwardISt6vectorIdSaIdEEEOT_RNSt16remove_referenceIS3_E4typeE
FNDA:74376,_ZSt4moveIRPdEONSt16remove_referenceIT_E4typeEOS3_
FNDA:84,_ZSt4moveIRSt4lessISsEEONSt16remove_referenceIT_E4typeEOS4_
FNDA:108,_ZSt4moveIRmEONSt16remove_referenceIT_E4typeEOS2_
FNDA:0,_ZSt4moveIRPSt18_Rb_tree_node_baseEONSt16remove_referenceIT_E4typeEOS4_
FNDA:12392,_ZSt4moveIRSaIdEEONSt16remove_referenceIT_E4typeEOS3_
FNDA:0,_ZSt4moveIRSsEONSt16remove_referenceIT_E4typeEOS2_
FNDA:10332,_ZSt4moveIRSt6vectorIdSaIdEEEONSt16remove_referenceIT_E4typeEOS5_
FNDA:24792,_ZSt4swapIPdEvRT_S2_
FNDA:28,_ZSt4swapISt4lessISsEEvRT_S3_
FNDA:36,_ZSt4swapImEvRT_S1_
FNDA:0,_ZSt4swapIPSt18_Rb_tree_node_baseEvRT_S3_
FNF:27
FNH:16
DA:47,170504
DA:50,170504
DA:77,14908
DA:78,14908
DA:102,97292
DA:103,97292
DA:167,24856
DA:176,24856
DA:177,24856
DA:178,24856
DA:179,24856
LF:11
LH:11
end_of_record
SF:/usr/include/c++/4.7.2/bits/stl_algobase.h
FN:187,_ZSt3minImERKT_S2_S2_
FN:271,_ZSt12__niter_baseIN9__gnu_cxx17__normal_iteratorIPKiSt6vectorIiSaIiEEEEENSt11_Niter_baseIT_E13iterator_typeES9_
FN:271,_ZSt12__niter_baseIPdENSt11_Niter_baseIT_E13iterator_typeES2_
FN:271,_ZSt12__niter_baseIPiENSt11_Niter_baseIT_E13iterator_typeES2_
FN:271,_ZSt12__niter_baseIN9__gnu_cxx17__normal_iteratorIPKdSt6vectorIdSaIdEEEEENSt11_Niter_baseIT_E13iterator_typeES9_
FN:282,_ZSt12__miter_baseIN9__gnu_cxx17__normal_iteratorIPKdSt6vectorIdSaIdEEEEENSt11_Miter_baseIT_E13iterator_typeES9_
FN:282,_ZSt12__miter_baseIN9__gnu_cxx17__normal_iteratorIPKiSt6vectorIiSaIiEEEEENSt11_Miter_baseIT_E13iterator_typeES9_
FN:362,_ZNSt11__copy_moveILb0ELb1ESt26random_access_iterator_tagE8__copy_mIdEEPT_PKS3_S6_S4_
FN:362,_ZNSt11__copy_moveILb0ELb1ESt26random_access_iterator_tagE8__copy_mIiEEPT_PKS3_S6_S4_
FN:373,_ZSt13__copy_move_aILb0EPKdPdET1_T0_S4_S3_
FN:373,_ZSt13__copy_move_aILb0EPKiPiET1_T0_S4_S3_
FN:418,_ZSt14__copy_move_a2ILb0EN9__gnu_cxx17__normal_iteratorIPKiSt6vectorIiSaIiEEEEPiET1_T0_SA_S9_
FN:418,_ZSt14__copy_move_a2ILb0EN9__gnu_cxx17__normal_iteratorIPKdSt6vectorIdSaIdEEEEPdET1_T0_SA_S9_
FN:444,_ZSt4copyIN9__gnu_cxx17__normal_iteratorIPKdSt6vectorIdSaIdEEEEPdET0_T_SA_S9_
FN:444,_ZSt4copyIN9__gnu_cxx17__normal_iteratorIPKiSt6vectorIiSaIiEEEEPiET0_T_SA_S9_
FN:740,_ZSt10__fill_n_aIPdmdEN9__gnu_cxx11__enable_ifIXsrSt11__is_scalarIT1_E7__valueET_E6__typeES6_T0_RKS4_
FN:775,_ZSt6fill_nIPdmdET_S1_T0_RKT1_
FNDA:0,_ZSt3minImERKT_S2_S2_
FNDA:11192,_ZSt12__niter_baseIN9__gnu_cxx17__normal_iteratorIPKdSt6vectorIdSaIdEEEEENSt11_Niter_baseIT_E13iterator_typeES9_
FNDA:616,_ZSt12__niter_baseIPiENSt11_Niter_baseIT_E13iterator_typeES2_
FNDA:536,_ZSt12__niter_baseIN9__gnu_cxx17__normal_iteratorIPKiSt6vectorIiSaIiEEEEENSt11_Niter_baseIT_E13iterator_typeES9_
FNDA:8280,_ZSt12__niter_baseIPdENSt11_Niter_baseIT_E13iterator_typeES2_
FNDA:11192,_ZSt12__miter_baseIN9__gnu_cxx17__normal_iteratorIPKdSt6vectorIdSaIdEEEEENSt11_Miter_baseIT_E13iterator_typeES9_
FNDA:536,_ZSt12__miter_baseIN9__gnu_cxx17__normal_iteratorIPKiSt6vectorIiSaIiEEEEENSt11_Miter_baseIT_E13iterator_typeES9_
FNDA:6000,_ZNSt11__copy_moveILb0ELb1ESt26random_access_iterator_tagE8__copy_mIdEEPT_PKS3_S6_S4_
FNDA:280,_ZNSt11__copy_moveILb0ELb1ESt26random_access_iterator_tagE8__copy_mIiEEPT_PKS3_S6_S4_
FNDA:6000,_ZSt13__copy_move_aILb0EPKdPdET1_T0_S4_S3_
FNDA:280,_ZSt13__copy_move_aILb0EPKiPiET1_T0_S4_S3_
FNDA:5596,_ZSt14__copy_move_a2ILb0EN9__gnu_cxx17__normal_iteratorIPKdSt6vectorIdSaIdEEEEPdET1_T0_SA_S9_
FNDA:268,_ZSt14__copy_move_a2ILb0EN9__gnu_cxx17__normal_iteratorIPKiSt6vectorIiSaIiEEEEPiET1_T0_SA_S9_
FNDA:5596,_ZSt4copyIN9__gnu_cxx17__normal_iteratorIPKdSt6vectorIdSaIdEEEEPdET0_T_SA_S9_
FNDA:268,_ZSt4copyIN9__gnu_cxx17__normal_iteratorIPKiSt6vectorIiSaIiEEEEPiET0_T_SA_S9_
FNDA:2256,_ZSt10__fill_n_aIPdmdEN9__gnu_cxx11__enable_ifIXsrSt11__is_scalarIT1_E7__valueET_E6__typeES6_T0_RKS4_
FNDA:2256,_ZSt6fill_nIPdmdET_S1_T0_RKT1_
FNF:17
FNH:16
DA:187,0
DA:192,0
DA:193,0
DA:194,0
DA:271,20624
DA:272,20624
DA:282,11728
DA:283,11728
DA:362,6280
DA:364,6280
DA:365,6280
DA:366,6280
DA:367,6280
DA:373,6280
DA:381,6280
DA:384,6280
DA:418,5864
DA:422,5864
DA:444,5864
DA:454,5864
DA:740,2256
DA:742,2256
DA:743,20524
DA:745,18268
DA:746,2256
DA:775,2256
DA:780,2256
LF:27
LH:23
end_of_record
SF:/usr/include/c++/4.7.2/bits/stl_construct.h
FN:76,_ZSt10_ConstructISsIRKSsEEvPT_DpOT0_
FN:76,_ZSt10_ConstructIN8f_config16FeaturePositionsEIRKS1_EEvPT_DpOT0_
FN:94,_ZSt8_DestroyISsEvPT_
FN:94,_ZSt8_DestroyIN8f_config16FeaturePositionsEEvPT_
FN:102,_ZNSt12_Destroy_auxILb0EE9__destroyIPN8f_config16FeaturePositionsEEEvT_S5_
FN:102,_ZNSt12_Destroy_auxILb0EE9__destroyIPSsEEvT_S3_
FN:114,_ZNSt12_Destroy_auxILb1EE9__destroyIPiEEvT_S3_
FN:114,_ZNSt12_Destroy_auxILb1EE9__destroyIPdEEvT_S3_
FN:124,_ZSt8_DestroyIPiEvT_S1_
FN:124,_ZSt8_DestroyIPN8f_config16FeaturePositionsEEvT_S3_
FN:124,_ZSt8_DestroyIPdEvT_S1_
FN:124,_ZSt8_DestroyIPSsEvT_S1_
FN:152,_ZSt8_DestroyIPN8f_config16FeaturePositionsES1_EvT_S3_RSaIT0_E
FN:152,_ZSt8_DestroyIPiiEvT_S1_RSaIT0_E
FN:152,_ZSt8_DestroyIPddEvT_S1_RSaIT0_E
FN:152,_ZSt8_DestroyIPSsSsEvT_S1_RSaIT0_E
FNDA:208,_ZSt10_ConstructIN8f_config16FeaturePositionsEIRKS1_EEvPT_DpOT0_
FNDA:0,_ZSt10_ConstructISsIRKSsEEvPT_DpOT0_
FNDA:280,_ZSt8_DestroyIN8f_config16FeaturePositionsEEvPT_
FNDA:0,_ZSt8_DestroyISsEvPT_
FNDA:360,_ZNSt12_Destroy_auxILb0EE9__destroyIPN8f_config16FeaturePositionsEEEvT_S5_
FNDA:0,_ZNSt12_Destroy_auxILb0EE9__destroyIPSsEEvT_S3_
FNDA:496,_ZNSt12_Destroy_auxILb1EE9__destroyIPiEEvT_S3_
FNDA:16528,_ZNSt12_Destroy_auxILb1EE9__destroyIPdEEvT_S3_
FNDA:496,_ZSt8_DestroyIPiEvT_S1_
FNDA:360,_ZSt8_DestroyIPN8f_config16FeaturePositionsEEvT_S3_
FNDA:16528,_ZSt8_DestroyIPdEvT_S1_
FNDA:0,_ZSt8_DestroyIPSsEvT_S1_
FNDA:496,_ZSt8_DestroyIPiiEvT_S1_RSaIT0_E
FNDA:360,_ZSt8_DestroyIPN8f_config16FeaturePositionsES1_EvT_S3_RSaIT0_E
FNDA:16528,_ZSt8_DestroyIPddEvT_S1_RSaIT0_E
FNDA:0,_ZSt8_DestroyIPSsSsEvT_S1_RSaIT0_E
FNF:16
FNH:11
DA:76,208
DA:77,208
DA:94,280
DA:95,280
DA:102,360
DA:104,640
DA:105,280
DA:106,360
DA:114,17024
DA:124,17384
DA:128,17384
DA:130,17384
DA:152,17384
DA:155,17384
DA:156,17384
LF:15
LH:15
end_of_record
SF:/usr/include/c++/4.7.2/bits/stl_function.h
FN:236,_ZNKSt4lessISsEclERKSsS2_
FN:498,_ZNKSt10_Select1stISt4pairIKSsSt6vectorIdSaIdEEEEclERS5_
FN:498,_ZNKSt10_Select1stISt4pairIKSsdEEclERS2_
FN:502,_ZNKSt10_Select1stISt4pairIKSsSt6vectorIdSaIdEEEEclERKS5_
FN:502,_ZNKSt10_Select1stISt4pairIKSsdEEclERKS2_
FN:502,_ZNKSt10_Select1stISt4pairIKSsN8f_config15FeatureSettingsEEEclERKS4_
FNDA:0,_ZNKSt4lessISsEclERKSsS2_
FNDA:0,_ZNKSt10_Select1stISt4pairIKSsdEEclERS2_
FNDA:3248,_ZNKSt10_Select1stISt4pairIKSsSt6vectorIdSaIdEEEEclERS5_
FNDA:136,_ZNKSt10_Select1stISt4pairIKSsN8f_config15FeatureSettingsEEEclERKS4_
FNDA:0,_ZNKSt10_Select1stISt4pairIKSsdEEclERKS2_
FNDA:49744,_ZNKSt10_Select1stISt4pairIKSsSt6vectorIdSaIdEEEEclERKS5_
FNF:6
FNH:3
DA:236,0
DA:237,0
DA:498,3248
DA:499,3248
DA:502,49880
DA:503,49880
LF:6
LH:4
end_of_record
SF:/usr/include/c++/4.7.2/bits/stl_iterator.h
FN:728,_ZN9__gnu_cxx17__normal_iteratorIPdSt6vectorIdSaIdEEEC2ERKS1_
FN:728,_ZN9__gnu_cxx17__normal_iteratorIPKdSt6vectorIdSaIdEEEC2ERKS2_
FN:728,_ZN9__gnu_cxx17__normal_iteratorIPSsSt6vectorISsSaISsEEEC2ERKS1_
FN:728,_ZN9__gnu_cxx17__normal_iteratorIPKSsSt6vectorISsSaISsEEEC2ERKS2_
FN:728,_ZN9__gnu_cxx17__normal_iteratorIPKiSt6vectorIiSaIiEEEC2ERKS2_
FN:728,_ZN9__gnu_cxx17__normal_iteratorIPKN8f_config16FeaturePositionsESt6vectorIS2_SaIS2_EEEC2ERKS4_
FN:740,_ZNK9__gnu_cxx17__normal_iteratorIPSsSt6vectorISsSaISsEEEdeEv
FN:740,_ZNK9__gnu_cxx17__normal_iteratorIPdSt6vectorIdSaIdEEEdeEv
FN:740,_ZNK9__gnu_cxx17__normal_iteratorIPKSsSt6vectorISsSaISsEEEdeEv
FN:740,_ZNK9__gnu_cxx17__normal_iteratorIPKN8f_config16FeaturePositionsESt6vectorIS2_SaIS2_EEEdeEv
FN:748,_ZN9__gnu_cxx17__normal_iteratorIPdSt6vectorIdSaIdEEEppEv
FN:748,_ZN9__gnu_cxx17__normal_iteratorIPKSsSt6vectorISsSaISsEEEppEv
FN:748,_ZN9__gnu_cxx17__normal_iteratorIPKN8f_config16FeaturePositionsESt6vectorIS2_SaIS2_EEEppEv
FN:748,_ZN9__gnu_cxx17__normal_iteratorIPSsSt6vectorISsSaISsEEEppEv
FN:792,_ZNK9__gnu_cxx17__normal_iteratorIPKiSt6vectorIiSaIiEEE4baseEv
FN:792,_ZNK9__gnu_cxx17__normal_iteratorIPKSsSt6vectorISsSaISsEEE4baseEv
FN:792,_ZNK9__gnu_cxx17__normal_iteratorIPKN8f_config16FeaturePositionsESt6vectorIS2_SaIS2_EEE4baseEv
FN:792,_ZNK9__gnu_cxx17__normal_iteratorIPKdSt6vectorIdSaIdEEE4baseEv
FN:792,_ZNK9__gnu_cxx17__normal_iteratorIPdSt6vectorIdSaIdEEE4baseEv
FN:792,_ZNK9__gnu_cxx17__normal_iteratorIPSsSt6vectorISsSaISsEEE4baseEv
FN:825,_ZN9__gnu_cxxneIPKN8f_config16FeaturePositionsESt6vectorIS2_SaIS2_EEEEbRKNS_17__normal_iteratorIT_T0_EESD_
FN:825,_ZN9__gnu_cxxneIPKSsSt6vectorISsSaISsEEEEbRKNS_17__normal_iteratorIT_T0_EESB_
FN:825,_ZN9__gnu_cxxneIPSsSt6vectorISsSaISsEEEEbRKNS_17__normal_iteratorIT_T0_EESA_
FN:825,_ZN9__gnu_cxxneIPdSt6vectorIdSaIdEEEEbRKNS_17__normal_iteratorIT_T0_EESA_
FNDA:11280,_ZN9__gnu_cxx17__normal_iteratorIPKdSt6vectorIdSaIdEEEC2ERKS2_
FNDA:552,_ZN9__gnu_cxx17__normal_iteratorIPKiSt6vectorIiSaIiEEEC2ERKS2_
FNDA:208,_ZN9__gnu_cxx17__normal_iteratorIPKN8f_config16FeaturePositionsESt6vectorIS2_SaIS2_EEEC2ERKS4_
FNDA:0,_ZN9__gnu_cxx17__normal_iteratorIPKSsSt6vectorISsSaISsEEEC2ERKS2_
FNDA:0,_ZN9__gnu_cxx17__normal_iteratorIPSsSt6vectorISsSaISsEEEC2ERKS1_
FNDA:2392,_ZN9__gnu_cxx17__normal_iteratorIPdSt6vectorIdSaIdEEEC2ERKS1_
FNDA:208,_ZNK9__gnu_cxx17__normal_iteratorIPKN8f_config16FeaturePositionsESt6vectorIS2_SaIS2_EEEdeEv
FNDA:0,_ZNK9__gnu_cxx17__normal_iteratorIPKSsSt6vectorISsSaISsEEEdeEv
FNDA:0,_ZNK9__gnu_cxx17__normal_iteratorIPSsSt6vectorISsSaISsEEEdeEv
FNDA:8508,_ZNK9__gnu_cxx17__normal_iteratorIPdSt6vectorIdSaIdEEEdeEv
FNDA:208,_ZN9__gnu_cxx17__normal_iteratorIPKN8f_config16FeaturePositionsESt6vectorIS2_SaIS2_EEEppEv
FNDA:0,_ZN9__gnu_cxx17__normal_iteratorIPKSsSt6vectorISsSaISsEEEppEv
FNDA:0,_ZN9__gnu_cxx17__normal_iteratorIPSsSt6vectorISsSaISsEEEppEv
FNDA:8508,_ZN9__gnu_cxx17__normal_iteratorIPdSt6vectorIdSaIdEEEppEv
FNDA:11504,_ZNK9__gnu_cxx17__normal_iteratorIPKdSt6vectorIdSaIdEEE4baseEv
FNDA:576,_ZNK9__gnu_cxx17__normal_iteratorIPKiSt6vectorIiSaIiEEE4baseEv
FNDA:624,_ZNK9__gnu_cxx17__normal_iteratorIPKN8f_config16FeaturePositionsESt6vectorIS2_SaIS2_EEE4baseEv
FNDA:0,_ZNK9__gnu_cxx17__normal_iteratorIPKSsSt6vectorISsSaISsEEE4baseEv
FNDA:0,_ZNK9__gnu_cxx17__normal_iteratorIPSsSt6vectorISsSaISsEEE4baseEv
FNDA:19408,_ZNK9__gnu_cxx17__normal_iteratorIPdSt6vectorIdSaIdEEE4baseEv
FNDA:312,_ZN9__gnu_cxxneIPKN8f_config16FeaturePositionsESt6vectorIS2_SaIS2_EEEEbRKNS_17__normal_iteratorIT_T0_EESD_
FNDA:0,_ZN9__gnu_cxxneIPKSsSt6vectorISsSaISsEEEEbRKNS_17__normal_iteratorIT_T0_EESB_
FNDA:0,_ZN9__gnu_cxxneIPSsSt6vectorISsSaISsEEEEbRKNS_17__normal_iteratorIT_T0_EESA_
FNDA:9704,_ZN9__gnu_cxxneIPdSt6vectorIdSaIdEEEEbRKNS_17__normal_iteratorIT_T0_EESA_
FNF:24
FNH:14
DA:728,14432
DA:740,8716
DA:741,8716
DA:748,8716
DA:750,8716
DA:751,8716
DA:792,32112
DA:793,32112
DA:825,10016
DA:827,10016
LF:10
LH:10
end_of_record
SF:/usr/include/c++/4.7.2/bits/stl_iterator_base_funcs.h
FN:90,_ZSt10__distanceIPcENSt15iterator_traitsIT_E15difference_typeES2_S2_St26random_access_iterator_tag
FN:114,_ZSt8distanceIPcENSt15iterator_traitsIT_E15difference_typeES2_S2_
FNDA:0,_ZSt10__distanceIPcENSt15iterator_traitsIT_E15difference_typeES2_S2_St26random_access_iterator_tag
FNDA:0,_ZSt8distanceIPcENSt15iterator_traitsIT_E15difference_typeES2_S2_
FNF:2
FNH:0
DA:90,0
DA:96,0
DA:114,0
DA:118,0
LF:4
LH:0
end_of_record
SF:/usr/include/c++/4.7.2/bits/stl_iterator_base_types.h
FN:202,_ZSt19__iterator_categoryIPcENSt15iterator_traitsIT_E17iterator_categoryERKS2_
FN:213,_ZNSt10_Iter_baseIN9__gnu_cxx17__normal_iteratorIPKiSt6vectorIiSaIiEEEELb0EE7_S_baseES7_
FN:213,_ZNSt10_Iter_baseIN9__gnu_cxx17__normal_iteratorIPKdSt6vectorIdSaIdEEEELb0EE7_S_baseES7_
FN:213,_ZNSt10_Iter_baseIPiLb0EE7_S_baseES0_
FN:213,_ZNSt10_Iter_baseIPdLb0EE7_S_baseES0_
FN:221,_ZNSt10_Iter_baseIN9__gnu_cxx17__normal_iteratorIPKiSt6vectorIiSaIiEEEELb1EE7_S_baseES7_
FN:221,_ZNSt10_Iter_baseIN9__gnu_cxx17__normal_iteratorIPKdSt6vectorIdSaIdEEEELb1EE7_S_baseES7_
FNDA:0,_ZSt19__iterator_categoryIPcENSt15iterator_traitsIT_E17iterator_categoryERKS2_
FNDA:11192,_ZNSt10_Iter_baseIN9__gnu_cxx17__normal_iteratorIPKdSt6vectorIdSaIdEEEELb0EE7_S_baseES7_
FNDA:616,_ZNSt10_Iter_baseIPiLb0EE7_S_baseES0_
FNDA:536,_ZNSt10_Iter_baseIN9__gnu_cxx17__normal_iteratorIPKiSt6vectorIiSaIiEEEELb0EE7_S_baseES7_
FNDA:8280,_ZNSt10_Iter_baseIPdLb0EE7_S_baseES0_
FNDA:11192,_ZNSt10_Iter_baseIN9__gnu_cxx17__normal_iteratorIPKdSt6vectorIdSaIdEEEELb1EE7_S_baseES7_
FNDA:536,_ZNSt10_Iter_baseIN9__gnu_cxx17__normal_iteratorIPKiSt6vectorIiSaIiEEEELb1EE7_S_baseES7_
FNF:7
FNH:6
DA:202,0
DA:203,0
DA:213,20624
DA:214,20624
DA:221,11728
DA:222,11728
LF:6
LH:4
end_of_record
SF:/usr/include/c++/4.7.2/bits/stl_map.h
FN:90,_ZNSt3mapISsSt6vectorIdSaIdEESt4lessISsESaISt4pairIKSsS2_EEED2Ev
FN:90,_ZNSt3mapISsdSt4lessISsESaISt4pairIKSsdEEED2Ev
FN:154,_ZNSt3mapISsSt6vectorIdSaIdEESt4lessISsESaISt4pairIKSsS2_EEEC2Ev
FN:174,_ZNSt3mapISsdSt4lessISsESaISt4pairIKSsdEEEC2ERKS6_
FN:174,_ZNSt3mapISsSt6vectorIdSaIdEESt4lessISsESaISt4pairIKSsS2_EEEC2ERKS9_
FN:258,_ZNSt3mapISsSt6vectorIdSaIdEESt4lessISsESaISt4pairIKSsS2_EEEaSERKS9_
FN:273,_ZNSt3mapISsSt6vectorIdSaIdEESt4lessISsESaISt4pairIKSsS2_EEEaSEOS9_
FN:314,_ZNSt3mapISsSt6vectorIdSaIdEESt4lessISsESaISt4pairIKSsS2_EEE5beginEv
FN:332,_ZNSt3mapISsdSt4lessISsESaISt4pairIKSsdEEE3endEv
FN:332,_ZNSt3mapISsSt6vectorIdSaIdEESt4lessISsESaISt4pairIKSsS2_EEE3endEv
FN:341,_ZNKSt3mapISsSt6vectorIdSaIdEESt4lessISsESaISt4pairIKSsS2_EEE3endEv
FN:341,_ZNKSt3mapISsN8f_config15FeatureSettingsESt4lessISsESaISt4pairIKSsS1_EEE3endEv
FN:450,_ZNSt3mapISsdSt4lessISsESaISt4pairIKSsdEEEixERS3_
FN:450,_ZNSt3mapISsSt6vectorIdSaIdEESt4lessISsESaISt4pairIKSsS2_EEEixERS6_
FN:496,_ZNKSt3mapISsN8f_config15FeatureSettingsESt4lessISsESaISt4pairIKSsS1_EEE2atERS5_
FN:496,_ZNKSt3mapISsSt6vectorIdSaIdEESt4lessISsESaISt4pairIKSsS2_EEE2atERS6_
FN:583,_ZNSt3mapISsdSt4lessISsESaISt4pairIKSsdEEE6insertIS4_vEESt17_Rb_tree_iteratorIS4_ESt23_Rb_tree_const_iteratorIS4_EOT_
FN:583,_ZNSt3mapISsSt6vectorIdSaIdEESt4lessISsESaISt4pairIKSsS2_EEE6insertIS7_vEESt17_Rb_tree_iteratorIS7_ESt23_Rb_tree_const_iteratorIS7_EOT_
FN:705,_ZNSt3mapISsSt6vectorIdSaIdEESt4lessISsESaISt4pairIKSsS2_EEE4swapERS9_
FN:715,_ZNSt3mapISsSt6vectorIdSaIdEESt4lessISsESaISt4pairIKSsS2_EEE5clearEv
FN:724,_ZNKSt3mapISsSt6vectorIdSaIdEESt4lessISsESaISt4pairIKSsS2_EEE8key_compEv
FN:724,_ZNKSt3mapISsN8f_config15FeatureSettingsESt4lessISsESaISt4pairIKSsS1_EEE8key_compEv
FN:724,_ZNKSt3mapISsdSt4lessISsESaISt4pairIKSsdEEE8key_compEv
FN:748,_ZNSt3mapISsSt6vectorIdSaIdEESt4lessISsESaISt4pairIKSsS2_EEE4findERS6_
FN:790,_ZNSt3mapISsSt6vectorIdSaIdEESt4lessISsESaISt4pairIKSsS2_EEE11lower_boundERS6_
FN:790,_ZNSt3mapISsdSt4lessISsESaISt4pairIKSsdEEE11lower_boundERS3_
FN:805,_ZNKSt3mapISsN8f_config15FeatureSettingsESt4lessISsESaISt4pairIKSsS1_EEE11lower_boundERS5_
FN:805,_ZNKSt3mapISsSt6vectorIdSaIdEESt4lessISsESaISt4pairIKSsS2_EEE11lower_boundERS6_
FNDA:88,_ZNSt3mapISsSt6vectorIdSaIdEESt4lessISsESaISt4pairIKSsS2_EEED2Ev
FNDA:0,_ZNSt3mapISsdSt4lessISsESaISt4pairIKSsdEEED2Ev
FNDA:84,_ZNSt3mapISsSt6vectorIdSaIdEESt4lessISsESaISt4pairIKSsS2_EEEC2Ev
FNDA:4,_ZNSt3mapISsSt6vectorIdSaIdEESt4lessISsESaISt4pairIKSsS2_EEEC2ERKS9_
FNDA:32,_ZNSt3mapISsdSt4lessISsESaISt4pairIKSsdEEEC2ERKS6_
FNDA:24,_ZNSt3mapISsSt6vectorIdSaIdEESt4lessISsESaISt4pairIKSsS2_EEEaSERKS9_
FNDA:24,_ZNSt3mapISsSt6vectorIdSaIdEESt4lessISsESaISt4pairIKSsS2_EEEaSEOS9_
FNDA:5044,_ZNSt3mapISsSt6vectorIdSaIdEESt4lessISsESaISt4pairIKSsS2_EEE5beginEv
FNDA:0,_ZNSt3mapISsdSt4lessISsESaISt4pairIKSsdEEE3endEv
FNDA:161660,_ZNSt3mapISsSt6vectorIdSaIdEESt4lessISsESaISt4pairIKSsS2_EEE3endEv
FNDA:144,_ZNKSt3mapISsSt6vectorIdSaIdEESt4lessISsESaISt4pairIKSsS2_EEE3endEv
FNDA:8,_ZNKSt3mapISsN8f_config15FeatureSettingsESt4lessISsESaISt4pairIKSsS1_EEE3endEv
FNDA:48,_ZNSt3mapISsdSt4lessISsESaISt4pairIKSsdEEEixERS3_
FNDA:8436,_ZNSt3mapISsSt6vectorIdSaIdEESt4lessISsESaISt4pairIKSsS2_EEEixERS6_
FNDA:144,_ZNKSt3mapISsSt6vectorIdSaIdEESt4lessISsESaISt4pairIKSsS2_EEE2atERS6_
FNDA:0,_ZNKSt3mapISsN8f_config15FeatureSettingsESt4lessISsESaISt4pairIKSsS1_EEE2atERS5_
FNDA:0,_ZNSt3mapISsdSt4lessISsESaISt4pairIKSsdEEE6insertIS4_vEESt17_Rb_tree_iteratorIS4_ESt23_Rb_tree_const_iteratorIS4_EOT_
FNDA:1432,_ZNSt3mapISsSt6vectorIdSaIdEESt4lessISsESaISt4pairIKSsS2_EEE6insertIS7_vEESt17_Rb_tree_iteratorIS7_ESt23_Rb_tree_const_iteratorIS7_EOT_
FNDA:24,_ZNSt3mapISsSt6vectorIdSaIdEESt4lessISsESaISt4pairIKSsS2_EEE4swapERS9_
FNDA:28,_ZNSt3mapISsSt6vectorIdSaIdEESt4lessISsESaISt4pairIKSsS2_EEE5clearEv
FNDA:0,_ZNKSt3mapISsdSt4lessISsESaISt4pairIKSsdEEE8key_compEv
FNDA:20,_ZNKSt3mapISsN8f_config15FeatureSettingsESt4lessISsESaISt4pairIKSsS1_EEE8key_compEv
FNDA:8340,_ZNKSt3mapISsSt6vectorIdSaIdEESt4lessISsESaISt4pairIKSsS2_EEE8key_compEv
FNDA:120,_ZNSt3mapISsSt6vectorIdSaIdEESt4lessISsESaISt4pairIKSsS2_EEE4findERS6_
FNDA:0,_ZNSt3mapISsdSt4lessISsESaISt4pairIKSsdEEE11lower_boundERS3_
FNDA:8436,_ZNSt3mapISsSt6vectorIdSaIdEESt4lessISsESaISt4pairIKSsS2_EEE11lower_boundERS6_
FNDA:144,_ZNKSt3mapISsSt6vectorIdSaIdEESt4lessISsESaISt4pairIKSsS2_EEE11lower_boundERS6_
FNDA:0,_ZNKSt3mapISsN8f_config15FeatureSettingsESt4lessISsESaISt4pairIKSsS1_EEE11lower_boundERS5_
FNF:28
FNH:21
DA:90,88
DA:154,84
DA:155,84
DA:174,36
DA:175,36
DA:258,24
DA:260,24
DA:261,24
DA:273,24
DA:277,24
DA:278,24
DA:279,24
DA:314,5044
DA:315,5044
DA:332,161660
DA:333,161660
DA:341,152
DA:342,152
DA:450,8484
DA:455,8484
DA:457,8484
DA:458,1432
DA:459,8484
DA:496,144
DA:498,144
DA:499,144
DA:500,0
DA:501,144
DA:583,1432
DA:585,1432
DA:705,24
DA:706,24
DA:715,28
DA:716,28
DA:724,8360
DA:725,8360
DA:748,120
DA:749,120
DA:790,8436
DA:791,8436
DA:805,144
DA:806,144
LF:42
LH:41
end_of_record
SF:/usr/include/c++/4.7.2/bits/stl_pair.h
FN:88,_ZNSt4pairIKSsdED2Ev
FN:88,_ZNSt4pairIKSsSt6vectorIdSaIdEEED2Ev
FN:119,_ZNSt4pairIKSsdEC2ERKS1_
FN:119,_ZNSt4pairIKSsSt6vectorIdSaIdEEEC2ERKS4_
FN:120,_ZNSt4pairIKSsSt6vectorIdSaIdEEEC2EOS4_
FN:120,_ZNSt4pairIKSsdEC2EOS1_
FN:130,_ZNSt4pairIKSsSt6vectorIdSaIdEEEC2IS3_vEERS0_OT_
FN:130,_ZNSt4pairIKSsdEC2IdvEERS0_OT_
FN:136,_ZNSt4pairISt17_Rb_tree_iteratorIS_IKSsSt6vectorIdSaIdEEEEbEC2IRS6_bvEEOT_OT0_
FN:136,_ZNSt4pairISt17_Rb_tree_iteratorIS_IKSsdEEbEC2IRS3_bvEEOT_OT0_
FN:136,_ZNSt4pairISt17_Rb_tree_iteratorIS_IKSsSt6vectorIdSaIdEEEEbEC2IS6_bvEEOT_OT0_
FN:136,_ZNSt4pairISt17_Rb_tree_iteratorIS_IKSsdEEbEC2IS3_bvEEOT_OT0_
FNDA:0,_ZNSt4pairIKSsdED2Ev
FNDA:3988,_ZNSt4pairIKSsSt6vectorIdSaIdEEED2Ev
FNDA:988,_ZNSt4pairIKSsSt6vectorIdSaIdEEEC2ERKS4_
FNDA:36,_ZNSt4pairIKSsdEC2ERKS1_
FNDA:0,_ZNSt4pairIKSsdEC2EOS1_
FNDA:1432,_ZNSt4pairIKSsSt6vectorIdSaIdEEEC2EOS4_
FNDA:0,_ZNSt4pairIKSsdEC2IdvEERS0_OT_
FNDA:1432,_ZNSt4pairIKSsSt6vectorIdSaIdEEEC2IS3_vEERS0_OT_
FNDA:0,_ZNSt4pairISt17_Rb_tree_iteratorIS_IKSsdEEbEC2IRS3_bvEEOT_OT0_
FNDA:0,_ZNSt4pairISt17_Rb_tree_iteratorIS_IKSsdEEbEC2IS3_bvEEOT_OT0_
FNDA:0,_ZNSt4pairISt17_Rb_tree_iteratorIS_IKSsSt6vectorIdSaIdEEEEbEC2IRS6_bvEEOT_OT0_
FNDA:168,_ZNSt4pairISt17_Rb_tree_iteratorIS_IKSsSt6vectorIdSaIdEEEEbEC2IS6_bvEEOT_OT0_
FNF:12
FNH:6
DA:88,3988
DA:119,1024
DA:120,1432
DA:130,1432
DA:131,1432
DA:136,168
DA:137,168
LF:7
LH:7
end_of_record
SF:/usr/include/c++/4.7.2/bits/stl_tree.h
FN:101,_ZNSt18_Rb_tree_node_base10_S_minimumEPS_
FN:115,_ZNSt18_Rb_tree_node_base10_S_maximumEPS_
FN:130,_ZNSt13_Rb_tree_nodeISt4pairIKSsdEED2Ev
FN:130,_ZNSt13_Rb_tree_nodeISt4pairIKSsSt6vectorIdSaIdEEEED2Ev
FN:137,_ZNSt13_Rb_tree_nodeISt4pairIKSsdEEC2IIS2_EEEDpOT_
FN:137,_ZNSt13_Rb_tree_nodeISt4pairIKSsSt6vectorIdSaIdEEEEC2IIS5_EEEDpOT_
FN:137,_ZNSt13_Rb_tree_nodeISt4pairIKSsSt6vectorIdSaIdEEEEC2IIRKS5_EEEDpOT_
FN:137,_ZNSt13_Rb_tree_nodeISt4pairIKSsdEEC2IIRKS2_EEEDpOT_
FN:173,_ZNSt17_Rb_tree_iteratorISt4pairIKSsdEEC2EPSt13_Rb_tree_nodeIS2_E
FN:173,_ZNSt17_Rb_tree_iteratorISt4pairIKSsSt6vectorIdSaIdEEEEC2EPSt13_Rb_tree_nodeIS5_E
FN:177,_ZNKSt17_Rb_tree_iteratorISt4pairIKSsSt6vectorIdSaIdEEEEdeEv
FN:177,_ZNKSt17_Rb_tree_iteratorISt4pairIKSsdEEdeEv
FN:181,_ZNKSt17_Rb_tree_iteratorISt4pairIKSsSt6vectorIdSaIdEEEEptEv
FN:186,_ZNSt17_Rb_tree_iteratorISt4pairIKSsSt6vectorIdSaIdEEEEppEv
FN:201,_ZNSt17_Rb_tree_iteratorISt4pairIKSsdEEmmEv
FN:201,_ZNSt17_Rb_tree_iteratorISt4pairIKSsSt6vectorIdSaIdEEEEmmEv
FN:216,_ZNKSt17_Rb_tree_iteratorISt4pairIKSsSt6vectorIdSaIdEEEEeqERKS6_
FN:216,_ZNKSt17_Rb_tree_iteratorISt4pairIKSsdEEeqERKS3_
FN:220,_ZNKSt17_Rb_tree_iteratorISt4pairIKSsSt6vectorIdSaIdEEEEneERKS6_
FN:246,_ZNSt23_Rb_tree_const_iteratorISt4pairIKSsSt6vectorIdSaIdEEEEC2EPKSt13_Rb_tree_nodeIS5_E
FN:246,_ZNSt23_Rb_tree_const_iteratorISt4pairIKSsN8f_config15FeatureSettingsEEEC2EPKSt13_Rb_tree_nodeIS4_E
FN:249,_ZNSt23_Rb_tree_const_iteratorISt4pairIKSsdEEC2ERKSt17_Rb_tree_iteratorIS2_E
FN:249,_ZNSt23_Rb_tree_const_iteratorISt4pairIKSsSt6vectorIdSaIdEEEEC2ERKSt17_Rb_tree_iteratorIS5_E
FN:253,_ZNKSt23_Rb_tree_const_iteratorISt4pairIKSsSt6vectorIdSaIdEEEE13_M_const_castEv
FN:253,_ZNKSt23_Rb_tree_const_iteratorISt4pairIKSsdEE13_M_const_castEv
FN:258,_ZNKSt23_Rb_tree_const_iteratorISt4pairIKSsN8f_config15FeatureSettingsEEEdeEv
FN:258,_ZNKSt23_Rb_tree_const_iteratorISt4pairIKSsSt6vectorIdSaIdEEEEdeEv
FN:267,_ZNSt23_Rb_tree_const_iteratorISt4pairIKSsdEEppEv
FN:267,_ZNSt23_Rb_tree_const_iteratorISt4pairIKSsSt6vectorIdSaIdEEEEppEv
FN:282,_ZNSt23_Rb_tree_const_iteratorISt4pairIKSsSt6vectorIdSaIdEEEEmmEv
FN:282,_ZNSt23_Rb_tree_const_iteratorISt4pairIKSsdEEmmEv
FN:297,_ZNKSt23_Rb_tree_const_iteratorISt4pairIKSsSt6vectorIdSaIdEEEEeqERKS6_
FN:297,_ZNKSt23_Rb_tree_const_iteratorISt4pairIKSsN8f_config15FeatureSettingsEEEeqERKS5_
FN:355,_ZNSt8_Rb_treeISsSt4pairIKSsdESt10_Select1stIS2_ESt4lessISsESaIS2_EE21_M_get_Node_allocatorEv
FN:355,_ZNSt8_Rb_treeISsSt4pairIKSsSt6vectorIdSaIdEEESt10_Select1stIS5_ESt4lessISsESaIS5_EE21_M_get_Node_allocatorEv
FN:359,_ZNKSt8_Rb_treeISsSt4pairIKSsSt6vectorIdSaIdEEESt10_Select1stIS5_ESt4lessISsESaIS5_EE21_M_get_Node_allocatorEv
FN:359,_ZNKSt8_Rb_treeISsSt4pairIKSsdESt10_Select1stIS2_ESt4lessISsESaIS2_EE21_M_get_Node_allocatorEv
FN:368,_ZNSt8_Rb_treeISsSt4pairIKSsdESt10_Select1stIS2_ESt4lessISsESaIS2_EE11_M_get_nodeEv
FN:368,_ZNSt8_Rb_treeISsSt4pairIKSsSt6vectorIdSaIdEEESt10_Select1stIS5_ESt4lessISsESaIS5_EE11_M_get_nodeEv
FN:372,_ZNSt8_Rb_treeISsSt4pairIKSsdESt10_Select1stIS2_ESt4lessISsESaIS2_EE11_M_put_nodeEPSt13_Rb_tree_nodeIS2_E
FN:372,_ZNSt8_Rb_treeISsSt4pairIKSsSt6vectorIdSaIdEEESt10_Select1stIS5_ESt4lessISsESaIS5_EE11_M_put_nodeEPSt13_Rb_tree_nodeIS5_E
FN:400,_ZNSt8_Rb_treeISsSt4pairIKSsSt6vectorIdSaIdEEESt10_Select1stIS5_ESt4lessISsESaIS5_EE14_M_create_nodeIIRKS5_EEEPSt13_Rb_tree_nodeIS5_EDpOT_
FN:400,_ZNSt8_Rb_treeISsSt4pairIKSsdESt10_Select1stIS2_ESt4lessISsESaIS2_EE14_M_create_nodeIIS2_EEEPSt13_Rb_tree_nodeIS2_EDpOT_
FN:400,_ZNSt8_Rb_treeISsSt4pairIKSsdESt10_Select1stIS2_ESt4lessISsESaIS2_EE14_M_create_nodeIIRKS2_EEEPSt13_Rb_tree_nodeIS2_EDpOT_
FN:400,_ZNSt8_Rb_treeISsSt4pairIKSsSt6vectorIdSaIdEEESt10_Select1stIS5_ESt4lessISsESaIS5_EE14_M_create_nodeIIS5_EEEPSt13_Rb_tree_nodeIS5_EDpOT_
FN:417,_ZNSt8_Rb_treeISsSt4pairIKSsSt6vectorIdSaIdEEESt10_Select1stIS5_ESt4lessISsESaIS5_EE15_M_destroy_nodeEPSt13_Rb_tree_nodeIS5_E
FN:417,_ZNSt8_Rb_treeISsSt4pairIKSsdESt10_Select1stIS2_ESt4lessISsESaIS2_EE15_M_destroy_nodeEPSt13_Rb_tree_nodeIS2_E
FN:425,_ZNSt8_Rb_treeISsSt4pairIKSsdESt10_Select1stIS2_ESt4lessISsESaIS2_EE13_M_clone_nodeEPKSt13_Rb_tree_nodeIS2_E
FN:425,_ZNSt8_Rb_treeISsSt4pairIKSsSt6vectorIdSaIdEEESt10_Select1stIS5_ESt4lessISsESaIS5_EE13_M_clone_nodeEPKSt13_Rb_tree_nodeIS5_E
FN:437,_ZNSt8_Rb_treeISsSt4pairIKSsSt6vectorIdSaIdEEESt10_Select1stIS5_ESt4lessISsESaIS5_EE13_Rb_tree_implIS9_Lb1EED2Ev
FN:437,_ZNSt8_Rb_treeISsSt4pairIKSsdESt10_Select1stIS2_ESt4lessISsESaIS2_EE13_Rb_tree_implIS6_Lb1EED2Ev
FN:443,_ZNSt8_Rb_treeISsSt4pairIKSsSt6vectorIdSaIdEEESt10_Select1stIS5_ESt4lessISsESaIS5_EE13_Rb_tree_implIS9_Lb1EEC2Ev
FN:448,_ZNSt8_Rb_treeISsSt4pairIKSsdESt10_Select1stIS2_ESt4lessISsESaIS2_EE13_Rb_tree_implIS6_Lb1EEC2ERKS6_RKSaISt13_Rb_tree_nodeIS2_EE
FN:448,_ZNSt8_Rb_treeISsSt4pairIKSsSt6vectorIdSaIdEEESt10_Select1stIS5_ESt4lessISsESaIS5_EE13_Rb_tree_implIS9_Lb1EEC2ERKS9_RKSaISt13_Rb_tree_nodeIS5_EE
FN:462,_ZNSt8_Rb_treeISsSt4pairIKSsSt6vectorIdSaIdEEESt10_Select1stIS5_ESt4lessISsESaIS5_EE13_Rb_tree_implIS9_Lb1EE13_M_initializeEv
FN:462,_ZNSt8_Rb_treeISsSt4pairIKSsdESt10_Select1stIS2_ESt4lessISsESaIS2_EE13_Rb_tree_implIS6_Lb1EE13_M_initializeEv
FN:475,_ZNSt8_Rb_treeISsSt4pairIKSsdESt10_Select1stIS2_ESt4lessISsESaIS2_EE7_M_rootEv
FN:475,_ZNSt8_Rb_treeISsSt4pairIKSsSt6vectorIdSaIdEEESt10_Select1stIS5_ESt4lessISsESaIS5_EE7_M_rootEv
FN:479,_ZNKSt8_Rb_treeISsSt4pairIKSsdESt10_Select1stIS2_ESt4lessISsESaIS2_EE7_M_rootEv
FN:479,_ZNKSt8_Rb_treeISsSt4pairIKSsSt6vectorIdSaIdEEESt10_Select1stIS5_ESt4lessISsESaIS5_EE7_M_rootEv
FN:483,_ZNSt8_Rb_treeISsSt4pairIKSsdESt10_Select1stIS2_ESt4lessISsESaIS2_EE11_M_leftmostEv
FN:483,_ZNSt8_Rb_treeISsSt4pairIKSsSt6vectorIdSaIdEEESt10_Select1stIS5_ESt4lessISsESaIS5_EE11_M_leftmostEv
FN:491,_ZNSt8_Rb_treeISsSt4pairIKSsSt6vectorIdSaIdEEESt10_Select1stIS5_ESt4lessISsESaIS5_EE12_M_rightmostEv
FN:491,_ZNSt8_Rb_treeISsSt4pairIKSsdESt10_Select1stIS2_ESt4lessISsESaIS2_EE12_M_rightmostEv
FN:499,_ZNSt8_Rb_treeISsSt4pairIKSsSt6vectorIdSaIdEEESt10_Select1stIS5_ESt4lessISsESaIS5_EE8_M_beginEv
FN:499,_ZNSt8_Rb_treeISsSt4pairIKSsdESt10_Select1stIS2_ESt4lessISsESaIS2_EE8_M_beginEv
FN:503,_ZNKSt8_Rb_treeISsSt4pairIKSsSt6vectorIdSaIdEEESt10_Select1stIS5_ESt4lessISsESaIS5_EE8_M_beginEv
FN:503,_ZNKSt8_Rb_treeISsSt4pairIKSsN8f_config15FeatureSettingsEESt10_Select1stIS4_ESt4lessISsESaIS4_EE8_M_beginEv
FN:503,_ZNKSt8_Rb_treeISsSt4pairIKSsdESt10_Select1stIS2_ESt4lessISsESaIS2_EE8_M_beginEv
FN:510,_ZNSt8_Rb_treeISsSt4pairIKSsSt6vectorIdSaIdEEESt10_Select1stIS5_ESt4lessISsESaIS5_EE6_M_endEv
FN:510,_ZNSt8_Rb_treeISsSt4pairIKSsdESt10_Select1stIS2_ESt4lessISsESaIS2_EE6_M_endEv
FN:514,_ZNKSt8_Rb_treeISsSt4pairIKSsSt6vectorIdSaIdEEESt10_Select1stIS5_ESt4lessISsESaIS5_EE6_M_endEv
FN:514,_ZNKSt8_Rb_treeISsSt4pairIKSsN8f_config15FeatureSettingsEESt10_Select1stIS4_ESt4lessISsESaIS4_EE6_M_endEv
FN:518,_ZNSt8_Rb_treeISsSt4pairIKSsN8f_config15FeatureSettingsEESt10_Select1stIS4_ESt4lessISsESaIS4_EE8_S_valueEPKSt13_Rb_tree_nodeIS4_E
FN:518,_ZNSt8_Rb_treeISsSt4pairIKSsSt6vectorIdSaIdEEESt10_Select1stIS5_ESt4lessISsESaIS5_EE8_S_valueEPKSt13_Rb_tree_nodeIS5_E
FN:518,_ZNSt8_Rb_treeISsSt4pairIKSsdESt10_Select1stIS2_ESt4lessISsESaIS2_EE8_S_valueEPKSt13_Rb_tree_nodeIS2_E
FN:522,_ZNSt8_Rb_treeISsSt4pairIKSsdESt10_Select1stIS2_ESt4lessISsESaIS2_EE6_S_keyEPKSt13_Rb_tree_nodeIS2_E
FN:522,_ZNSt8_Rb_treeISsSt4pairIKSsSt6vectorIdSaIdEEESt10_Select1stIS5_ESt4lessISsESaIS5_EE6_S_keyEPKSt13_Rb_tree_nodeIS5_E
FN:522,_ZNSt8_Rb_treeISsSt4pairIKSsN8f_config15FeatureSettingsEESt10_Select1stIS4_ESt4lessISsESaIS4_EE6_S_keyEPKSt13_Rb_tree_nodeIS4_E
FN:526,_ZNSt8_Rb_treeISsSt4pairIKSsSt6vectorIdSaIdEEESt10_Select1stIS5_ESt4lessISsESaIS5_EE7_S_leftEPSt18_Rb_tree_node_base
FN:526,_ZNSt8_Rb_treeISsSt4pairIKSsdESt10_Select1stIS2_ESt4lessISsESaIS2_EE7_S_leftEPSt18_Rb_tree_node_base
FN:530,_ZNSt8_Rb_treeISsSt4pairIKSsSt6vectorIdSaIdEEESt10_Select1stIS5_ESt4lessISsESaIS5_EE7_S_leftEPKSt18_Rb_tree_node_base
FN:530,_ZNSt8_Rb_treeISsSt4pairIKSsN8f_config15FeatureSettingsEESt10_Select1stIS4_ESt4lessISsESaIS4_EE7_S_leftEPKSt18_Rb_tree_node_base
FN:530,_ZNSt8_Rb_treeISsSt4pairIKSsdESt10_Select1stIS2_ESt4lessISsESaIS2_EE7_S_leftEPKSt18_Rb_tree_node_base
FN:534,_ZNSt8_Rb_treeISsSt4pairIKSsdESt10_Select1stIS2_ESt4lessISsESaIS2_EE8_S_rightEPSt18_Rb_tree_node_base
FN:534,_ZNSt8_Rb_treeISsSt4pairIKSsSt6vectorIdSaIdEEESt10_Select1stIS5_ESt4lessISsESaIS5_EE8_S_rightEPSt18_Rb_tree_node_base
FN:538,_ZNSt8_Rb_treeISsSt4pairIKSsN8f_config15FeatureSettingsEESt10_Select1stIS4_ESt4lessISsESaIS4_EE8_S_rightEPKSt18_Rb_tree_node_base
FN:538,_ZNSt8_Rb_treeISsSt4pairIKSsSt6vectorIdSaIdEEESt10_Select1stIS5_ESt4lessISsESaIS5_EE8_S_rightEPKSt18_Rb_tree_node_base
FN:538,_ZNSt8_Rb_treeISsSt4pairIKSsdESt10_Select1stIS2_ESt4lessISsESaIS2_EE8_S_rightEPKSt18_Rb_tree_node_base
FN:542,_ZNSt8_Rb_treeISsSt4pairIKSsdESt10_Select1stIS2_ESt4lessISsESaIS2_EE8_S_valueEPKSt18_Rb_tree_node_base
FN:542,_ZNSt8_Rb_treeISsSt4pairIKSsSt6vectorIdSaIdEEESt10_Select1stIS5_ESt4lessISsESaIS5_EE8_S_valueEPKSt18_Rb_tree_node_base
FN:546,_ZNSt8_Rb_treeISsSt4pairIKSsSt6vectorIdSaIdEEESt10_Select1stIS5_ESt4lessISsESaIS5_EE6_S_keyEPKSt18_Rb_tree_node_base
FN:546,_ZNSt8_Rb_treeISsSt4pairIKSsdESt10_Select1stIS2_ESt4lessISsESaIS2_EE6_S_keyEPKSt18_Rb_tree_node_base
FN:550,_ZNSt8_Rb_treeISsSt4pairIKSsSt6vectorIdSaIdEEESt10_Select1stIS5_ESt4lessISsESaIS5_EE10_S_minimumEPSt18_Rb_tree_node_base
FN:550,_ZNSt8_Rb_treeISsSt4pairIKSsdESt10_Select1stIS2_ESt4lessISsESaIS2_EE10_S_minimumEPSt18_Rb_tree_node_base
FN:558,_ZNSt8_Rb_treeISsSt4pairIKSsdESt10_Select1stIS2_ESt4lessISsESaIS2_EE10_S_maximumEPSt18_Rb_tree_node_base
FN:558,_ZNSt8_Rb_treeISsSt4pairIKSsSt6vectorIdSaIdEEESt10_Select1stIS5_ESt4lessISsESaIS5_EE10_S_maximumEPSt18_Rb_tree_node_base
FN:623,_ZNSt8_Rb_treeISsSt4pairIKSsSt6vectorIdSaIdEEESt10_Select1stIS5_ESt4lessISsESaIS5_EEC2Ev
FN:629,_ZNSt8_Rb_treeISsSt4pairIKSsdESt10_Select1stIS2_ESt4lessISsESaIS2_EEC2ERKS8_
FN:629,_ZNSt8_Rb_treeISsSt4pairIKSsSt6vectorIdSaIdEEESt10_Select1stIS5_ESt4lessISsESaIS5_EEC2ERKSB_
FN:645,_ZNSt8_Rb_treeISsSt4pairIKSsdESt10_Select1stIS2_ESt4lessISsESaIS2_EED2Ev
FN:645,_ZNSt8_Rb_treeISsSt4pairIKSsSt6vectorIdSaIdEEESt10_Select1stIS5_ESt4lessISsESaIS5_EED2Ev
FN:653,_ZNKSt8_Rb_treeISsSt4pairIKSsdESt10_Select1stIS2_ESt4lessISsESaIS2_EE8key_compEv
FN:653,_ZNKSt8_Rb_treeISsSt4pairIKSsN8f_config15FeatureSettingsEESt10_Select1stIS4_ESt4lessISsESaIS4_EE8key_compEv
FN:653,_ZNKSt8_Rb_treeISsSt4pairIKSsSt6vectorIdSaIdEEESt10_Select1stIS5_ESt4lessISsESaIS5_EE8key_compEv
FN:657,_ZNSt8_Rb_treeISsSt4pairIKSsdESt10_Select1stIS2_ESt4lessISsESaIS2_EE5beginEv
FN:657,_ZNSt8_Rb_treeISsSt4pairIKSsSt6vectorIdSaIdEEESt10_Select1stIS5_ESt4lessISsESaIS5_EE5beginEv
FN:671,_ZNSt8_Rb_treeISsSt4pairIKSsdESt10_Select1stIS2_ESt4lessISsESaIS2_EE3endEv
FN:671,_ZNSt8_Rb_treeISsSt4pairIKSsSt6vectorIdSaIdEEESt10_Select1stIS5_ESt4lessISsESaIS5_EE3endEv
FN:675,_ZNKSt8_Rb_treeISsSt4pairIKSsN8f_config15FeatureSettingsEESt10_Select1stIS4_ESt4lessISsESaIS4_EE3endEv
FN:675,_ZNKSt8_Rb_treeISsSt4pairIKSsSt6vectorIdSaIdEEESt10_Select1stIS5_ESt4lessISsESaIS5_EE3endEv
FN:702,_ZNKSt8_Rb_treeISsSt4pairIKSsSt6vectorIdSaIdEEESt10_Select1stIS5_ESt4lessISsESaIS5_EE4sizeEv
FN:702,_ZNKSt8_Rb_treeISsSt4pairIKSsdESt10_Select1stIS2_ESt4lessISsESaIS2_EE4sizeEv
FN:814,_ZNSt8_Rb_treeISsSt4pairIKSsSt6vectorIdSaIdEEESt10_Select1stIS5_ESt4lessISsESaIS5_EE5clearEv
FN:834,_ZNSt8_Rb_treeISsSt4pairIKSsdESt10_Select1stIS2_ESt4lessISsESaIS2_EE11lower_boundERS1_
FN:834,_ZNSt8_Rb_treeISsSt4pairIKSsSt6vectorIdSaIdEEESt10_Select1stIS5_ESt4lessISsESaIS5_EE11lower_boundERS1_
FN:838,_ZNKSt8_Rb_treeISsSt4pairIKSsN8f_config15FeatureSettingsEESt10_Select1stIS4_ESt4lessISsESaIS4_EE11lower_boundERS1_
FN:838,_ZNKSt8_Rb_treeISsSt4pairIKSsSt6vectorIdSaIdEEESt10_Select1stIS5_ESt4lessISsESaIS5_EE11lower_boundERS1_
FN:943,_ZNSt8_Rb_treeISsSt4pairIKSsSt6vectorIdSaIdEEESt10_Select1stIS5_ESt4lessISsESaIS5_EEaSERKSB_
FN:968,_ZNSt8_Rb_treeISsSt4pairIKSsdESt10_Select1stIS2_ESt4lessISsESaIS2_EE10_M_insert_IS2_EESt17_Rb_tree_iteratorIS2_EPKSt18_Rb_tree_node_baseSE_OT_
FN:968,_ZNSt8_Rb_treeISsSt4pairIKSsSt6vectorIdSaIdEEESt10_Select1stIS5_ESt4lessISsESaIS5_EE10_M_insert_IS5_EESt17_Rb_tree_iteratorIS5_EPKSt18_Rb_tree_node_baseSH_OT_
FN:1040,_ZNSt8_Rb_treeISsSt4pairIKSsdESt10_Select1stIS2_ESt4lessISsESaIS2_EE7_M_copyEPKSt13_Rb_tree_nodeIS2_EPSA_
FN:1040,_ZNSt8_Rb_treeISsSt4pairIKSsSt6vectorIdSaIdEEESt10_Select1stIS5_ESt4lessISsESaIS5_EE7_M_copyEPKSt13_Rb_tree_nodeIS5_EPSD_
FN:1076,_ZNSt8_Rb_treeISsSt4pairIKSsSt6vectorIdSaIdEEESt10_Select1stIS5_ESt4lessISsESaIS5_EE8_M_eraseEPSt13_Rb_tree_nodeIS5_E
FN:1076,_ZNSt8_Rb_treeISsSt4pairIKSsdESt10_Select1stIS2_ESt4lessISsESaIS2_EE8_M_eraseEPSt13_Rb_tree_nodeIS2_E
FN:1093,_ZNSt8_Rb_treeISsSt4pairIKSsdESt10_Select1stIS2_ESt4lessISsESaIS2_EE14_M_lower_boundEPSt13_Rb_tree_nodeIS2_ESB_RS1_
FN:1093,_ZNSt8_Rb_treeISsSt4pairIKSsSt6vectorIdSaIdEEESt10_Select1stIS5_ESt4lessISsESaIS5_EE14_M_lower_boundEPSt13_Rb_tree_nodeIS5_ESE_RS1_
FN:1109,_ZNKSt8_Rb_treeISsSt4pairIKSsN8f_config15FeatureSettingsEESt10_Select1stIS4_ESt4lessISsESaIS4_EE14_M_lower_boundEPKSt13_Rb_tree_nodeIS4_ESE_RS1_
FN:1109,_ZNKSt8_Rb_treeISsSt4pairIKSsSt6vectorIdSaIdEEESt10_Select1stIS5_ESt4lessISsESaIS5_EE14_M_lower_boundEPKSt13_Rb_tree_nodeIS5_ESF_RS1_
FN:1218,_ZNSt8_Rb_treeISsSt4pairIKSsSt6vectorIdSaIdEEESt10_Select1stIS5_ESt4lessISsESaIS5_EE4swapERSB_
FN:1272,_ZNSt8_Rb_treeISsSt4pairIKSsdESt10_Select1stIS2_ESt4lessISsESaIS2_EE16_M_insert_uniqueIS2_EES0_ISt17_Rb_tree_iteratorIS2_EbEOT_
FN:1272,_ZNSt8_Rb_treeISsSt4pairIKSsSt6vectorIdSaIdEEESt10_Select1stIS5_ESt4lessISsESaIS5_EE16_M_insert_uniqueIS5_EES0_ISt17_Rb_tree_iteratorIS5_EbEOT_
FN:1333,_ZNSt8_Rb_treeISsSt4pairIKSsdESt10_Select1stIS2_ESt4lessISsESaIS2_EE17_M_insert_unique_IS2_EESt17_Rb_tree_iteratorIS2_ESt23_Rb_tree_const_iteratorIS2_EOT_
FN:1333,_ZNSt8_Rb_treeISsSt4pairIKSsSt6vectorIdSaIdEEESt10_Select1stIS5_ESt4lessISsESaIS5_EE17_M_insert_unique_IS5_EESt17_Rb_tree_iteratorIS5_ESt23_Rb_tree_const_iteratorIS5_EOT_
FN:1541,_ZNSt8_Rb_treeISsSt4pairIKSsSt6vectorIdSaIdEEESt10_Select1stIS5_ESt4lessISsESaIS5_EE4findERS1_
FNDA:40,_ZNSt18_Rb_tree_node_base10_S_minimumEPS_
FNDA:40,_ZNSt18_Rb_tree_node_base10_S_maximumEPS_
FNDA:2420,_ZNSt13_Rb_tree_nodeISt4pairIKSsSt6vectorIdSaIdEEEED2Ev
FNDA:0,_ZNSt13_Rb_tree_nodeISt4pairIKSsdEED2Ev
FNDA:0,_ZNSt13_Rb_tree_nodeISt4pairIKSsdEEC2IIS2_EEEDpOT_
FNDA:988,_ZNSt13_Rb_tree_nodeISt4pairIKSsSt6vectorIdSaIdEEEEC2IIRKS5_EEEDpOT_
FNDA:1432,_ZNSt13_Rb_tree_nodeISt4pairIKSsSt6vectorIdSaIdEEEEC2IIS5_EEEDpOT_
FNDA:36,_ZNSt13_Rb_tree_nodeISt4pairIKSsdEEC2IIRKS2_EEEDpOT_
FNDA:0,_ZNSt17_Rb_tree_iteratorISt4pairIKSsdEEC2EPSt13_Rb_tree_nodeIS2_E
FNDA:177364,_ZNSt17_Rb_tree_iteratorISt4pairIKSsSt6vectorIdSaIdEEEEC2EPSt13_Rb_tree_nodeIS5_E
FNDA:0,_ZNKSt17_Rb_tree_iteratorISt4pairIKSsdEEdeEv
FNDA:17348,_ZNKSt17_Rb_tree_iteratorISt4pairIKSsSt6vectorIdSaIdEEEEdeEv
FNDA:169992,_ZNKSt17_Rb_tree_iteratorISt4pairIKSsSt6vectorIdSaIdEEEEptEv
FNDA:148776,_ZNSt17_Rb_tree_iteratorISt4pairIKSsSt6vectorIdSaIdEEEEppEv
FNDA:0,_ZNSt17_Rb_tree_iteratorISt4pairIKSsdEEmmEv
FNDA:44,_ZNSt17_Rb_tree_iteratorISt4pairIKSsSt6vectorIdSaIdEEEEmmEv
FNDA:0,_ZNKSt17_Rb_tree_iteratorISt4pairIKSsdEEeqERKS3_
FNDA:8668,_ZNKSt17_Rb_tree_iteratorISt4pairIKSsSt6vectorIdSaIdEEEEeqERKS6_
FNDA:153940,_ZNKSt17_Rb_tree_iteratorISt4pairIKSsSt6vectorIdSaIdEEEEneERKS6_
FNDA:288,_ZNSt23_Rb_tree_const_iteratorISt4pairIKSsSt6vectorIdSaIdEEEEC2EPKSt13_Rb_tree_nodeIS5_E
FNDA:12,_ZNSt23_Rb_tree_const_iteratorISt4pairIKSsN8f_config15FeatureSettingsEEEC2EPKSt13_Rb_tree_nodeIS4_E
FNDA:0,_ZNSt23_Rb_tree_const_iteratorISt4pairIKSsdEEC2ERKSt17_Rb_tree_iteratorIS2_E
FNDA:1568,_ZNSt23_Rb_tree_const_iteratorISt4pairIKSsSt6vectorIdSaIdEEEEC2ERKSt17_Rb_tree_iteratorIS5_E
FNDA:0,_ZNKSt23_Rb_tree_const_iteratorISt4pairIKSsdEE13_M_const_castEv
FNDA:0,_ZNKSt23_Rb_tree_const_iteratorISt4pairIKSsSt6vectorIdSaIdEEEE13_M_const_castEv
FNDA:288,_ZNKSt23_Rb_tree_const_iteratorISt4pairIKSsSt6vectorIdSaIdEEEEdeEv
FNDA:0,_ZNKSt23_Rb_tree_const_iteratorISt4pairIKSsN8f_config15FeatureSettingsEEEdeEv
FNDA:0,_ZNSt23_Rb_tree_const_iteratorISt4pairIKSsdEEppEv
FNDA:0,_ZNSt23_Rb_tree_const_iteratorISt4pairIKSsSt6vectorIdSaIdEEEEppEv
FNDA:0,_ZNSt23_Rb_tree_const_iteratorISt4pairIKSsdEEmmEv
FNDA:1080,_ZNSt23_Rb_tree_const_iteratorISt4pairIKSsSt6vectorIdSaIdEEEEmmEv
FNDA:144,_ZNKSt23_Rb_tree_const_iteratorISt4pairIKSsSt6vectorIdSaIdEEEEeqERKS6_
FNDA:0,_ZNKSt23_Rb_tree_const_iteratorISt4pairIKSsN8f_config15FeatureSettingsEEEeqERKS5_
FNDA:0,_ZNSt8_Rb_treeISsSt4pairIKSsdESt10_Select1stIS2_ESt4lessISsESaIS2_EE21_M_get_Node_allocatorEv
FNDA:4888,_ZNSt8_Rb_treeISsSt4pairIKSsSt6vectorIdSaIdEEESt10_Select1stIS5_ESt4lessISsESaIS5_EE21_M_get_Node_allocatorEv
FNDA:4,_ZNKSt8_Rb_treeISsSt4pairIKSsSt6vectorIdSaIdEEESt10_Select1stIS5_ESt4lessISsESaIS5_EE21_M_get_Node_allocatorEv
FNDA:32,_ZNKSt8_Rb_treeISsSt4pairIKSsdESt10_Select1stIS2_ESt4lessISsESaIS2_EE21_M_get_Node_allocatorEv
FNDA:2420,_ZNSt8_Rb_treeISsSt4pairIKSsSt6vectorIdSaIdEEESt10_Select1stIS5_ESt4lessISsESaIS5_EE11_M_get_nodeEv
FNDA:0,_ZNSt8_Rb_treeISsSt4pairIKSsdESt10_Select1stIS2_ESt4lessISsESaIS2_EE11_M_get_nodeEv
FNDA:2420,_ZNSt8_Rb_treeISsSt4pairIKSsSt6vectorIdSaIdEEESt10_Select1stIS5_ESt4lessISsESaIS5_EE11_M_put_nodeEPSt13_Rb_tree_nodeIS5_E
FNDA:0,_ZNSt8_Rb_treeISsSt4pairIKSsdESt10_Select1stIS2_ESt4lessISsESaIS2_EE11_M_put_nodeEPSt13_Rb_tree_nodeIS2_E
FNDA:0,_ZNSt8_Rb_treeISsSt4pairIKSsdESt10_Select1stIS2_ESt4lessISsESaIS2_EE14_M_create_nodeIIS2_EEEPSt13_Rb_tree_nodeIS2_EDpOT_
FNDA:988,_ZNSt8_Rb_treeISsSt4pairIKSsSt6vectorIdSaIdEEESt10_Select1stIS5_ESt4lessISsESaIS5_EE14_M_create_nodeIIRKS5_EEEPSt13_Rb_tree_nodeIS5_EDpOT_
FNDA:1432,_ZNSt8_Rb_treeISsSt4pairIKSsSt6vectorIdSaIdEEESt10_Select1stIS5_ESt4lessISsESaIS5_EE14_M_create_nodeIIS5_EEEPSt13_Rb_tree_nodeIS5_EDpOT_
FNDA:36,_ZNSt8_Rb_treeISsSt4pairIKSsdESt10_Select1stIS2_ESt4lessISsESaIS2_EE14_M_create_nodeIIRKS2_EEEPSt13_Rb_tree_nodeIS2_EDpOT_
FNDA:2420,_ZNSt8_Rb_treeISsSt4pairIKSsSt6vectorIdSaIdEEESt10_Select1stIS5_ESt4lessISsESaIS5_EE15_M_destroy_nodeEPSt13_Rb_tree_nodeIS5_E
FNDA:0,_ZNSt8_Rb_treeISsSt4pairIKSsdESt10_Select1stIS2_ESt4lessISsESaIS2_EE15_M_destroy_nodeEPSt13_Rb_tree_nodeIS2_E
FNDA:852,_ZNSt8_Rb_treeISsSt4pairIKSsSt6vectorIdSaIdEEESt10_Select1stIS5_ESt4lessISsESaIS5_EE13_M_clone_nodeEPKSt13_Rb_tree_nodeIS5_E
FNDA:24,_ZNSt8_Rb_treeISsSt4pairIKSsdESt10_Select1stIS2_ESt4lessISsESaIS2_EE13_M_clone_nodeEPKSt13_Rb_tree_nodeIS2_E
FNDA:88,_ZNSt8_Rb_treeISsSt4pairIKSsSt6vectorIdSaIdEEESt10_Select1stIS5_ESt4lessISsESaIS5_EE13_Rb_tree_implIS9_Lb1EED2Ev
FNDA:0,_ZNSt8_Rb_treeISsSt4pairIKSsdESt10_Select1stIS2_ESt4lessISsESaIS2_EE13_Rb_tree_implIS6_Lb1EED2Ev
FNDA:84,_ZNSt8_Rb_treeISsSt4pairIKSsSt6vectorIdSaIdEEESt10_Select1stIS5_ESt4lessISsESaIS5_EE13_Rb_tree_implIS9_Lb1EEC2Ev
FNDA:4,_ZNSt8_Rb_treeISsSt4pairIKSsSt6vectorIdSaIdEEESt10_Select1stIS5_ESt4lessISsESaIS5_EE13_Rb_tree_implIS9_Lb1EEC2ERKS9_RKSaISt13_Rb_tree_nodeIS5_EE
FNDA:32,_ZNSt8_Rb_treeISsSt4pairIKSsdESt10_Select1stIS2_ESt4lessISsESaIS2_EE13_Rb_tree_implIS6_Lb1EEC2ERKS6_RKSaISt13_Rb_tree_nodeIS2_EE
FNDA:88,_ZNSt8_Rb_treeISsSt4pairIKSsSt6vectorIdSaIdEEESt10_Select1stIS5_ESt4lessISsESaIS5_EE13_Rb_tree_implIS9_Lb1EE13_M_initializeEv
FNDA:0,_ZNSt8_Rb_treeISsSt4pairIKSsdESt10_Select1stIS2_ESt4lessISsESaIS2_EE13_Rb_tree_implIS6_Lb1EE13_M_initializeEv
FNDA:280,_ZNSt8_Rb_treeISsSt4pairIKSsSt6vectorIdSaIdEEESt10_Select1stIS5_ESt4lessISsESaIS5_EE7_M_rootEv
FNDA:28,_ZNSt8_Rb_treeISsSt4pairIKSsdESt10_Select1stIS2_ESt4lessISsESaIS2_EE7_M_rootEv
FNDA:28,_ZNKSt8_Rb_treeISsSt4pairIKSsSt6vectorIdSaIdEEESt10_Select1stIS5_ESt4lessISsESaIS5_EE7_M_rootEv
FNDA:36,_ZNKSt8_Rb_treeISsSt4pairIKSsdESt10_Select1stIS2_ESt4lessISsESaIS2_EE7_M_rootEv
FNDA:1568,_ZNSt8_Rb_treeISsSt4pairIKSsSt6vectorIdSaIdEEESt10_Select1stIS5_ESt4lessISsESaIS5_EE11_M_leftmostEv
FNDA:0,_ZNSt8_Rb_treeISsSt4pairIKSsdESt10_Select1stIS2_ESt4lessISsESaIS2_EE11_M_leftmostEv
FNDA:684,_ZNSt8_Rb_treeISsSt4pairIKSsSt6vectorIdSaIdEEESt10_Select1stIS5_ESt4lessISsESaIS5_EE12_M_rightmostEv
FNDA:0,_ZNSt8_Rb_treeISsSt4pairIKSsdESt10_Select1stIS2_ESt4lessISsESaIS2_EE12_M_rightmostEv
FNDA:8864,_ZNSt8_Rb_treeISsSt4pairIKSsSt6vectorIdSaIdEEESt10_Select1stIS5_ESt4lessISsESaIS5_EE8_M_beginEv
FNDA:0,_ZNSt8_Rb_treeISsSt4pairIKSsdESt10_Select1stIS2_ESt4lessISsESaIS2_EE8_M_beginEv
FNDA:0,_ZNKSt8_Rb_treeISsSt4pairIKSsN8f_config15FeatureSettingsEESt10_Select1stIS4_ESt4lessISsESaIS4_EE8_M_beginEv
FNDA:172,_ZNKSt8_Rb_treeISsSt4pairIKSsSt6vectorIdSaIdEEESt10_Select1stIS5_ESt4lessISsESaIS5_EE8_M_beginEv
FNDA:8,_ZNKSt8_Rb_treeISsSt4pairIKSsdESt10_Select1stIS2_ESt4lessISsESaIS2_EE8_M_beginEv
FNDA:11464,_ZNSt8_Rb_treeISsSt4pairIKSsSt6vectorIdSaIdEEESt10_Select1stIS5_ESt4lessISsESaIS5_EE6_M_endEv
FNDA:0,_ZNSt8_Rb_treeISsSt4pairIKSsdESt10_Select1stIS2_ESt4lessISsESaIS2_EE6_M_endEv
FNDA:144,_ZNKSt8_Rb_treeISsSt4pairIKSsSt6vectorIdSaIdEEESt10_Select1stIS5_ESt4lessISsESaIS5_EE6_M_endEv
FNDA:0,_ZNKSt8_Rb_treeISsSt4pairIKSsN8f_config15FeatureSettingsEESt10_Select1stIS4_ESt4lessISsESaIS4_EE6_M_endEv
FNDA:0,_ZNSt8_Rb_treeISsSt4pairIKSsdESt10_Select1stIS2_ESt4lessISsESaIS2_EE8_S_valueEPKSt13_Rb_tree_nodeIS2_E
FNDA:92,_ZNSt8_Rb_treeISsSt4pairIKSsN8f_config15FeatureSettingsEESt10_Select1stIS4_ESt4lessISsESaIS4_EE8_S_valueEPKSt13_Rb_tree_nodeIS4_E
FNDA:45064,_ZNSt8_Rb_treeISsSt4pairIKSsSt6vectorIdSaIdEEESt10_Select1stIS5_ESt4lessISsESaIS5_EE8_S_valueEPKSt13_Rb_tree_nodeIS5_E
FNDA:0,_ZNSt8_Rb_treeISsSt4pairIKSsdESt10_Select1stIS2_ESt4lessISsESaIS2_EE6_S_keyEPKSt13_Rb_tree_nodeIS2_E
FNDA:92,_ZNSt8_Rb_treeISsSt4pairIKSsN8f_config15FeatureSettingsEESt10_Select1stIS4_ESt4lessISsESaIS4_EE6_S_keyEPKSt13_Rb_tree_nodeIS4_E
FNDA:45064,_ZNSt8_Rb_treeISsSt4pairIKSsSt6vectorIdSaIdEEESt10_Select1stIS5_ESt4lessISsESaIS5_EE6_S_keyEPKSt13_Rb_tree_nodeIS5_E
FNDA:24772,_ZNSt8_Rb_treeISsSt4pairIKSsSt6vectorIdSaIdEEESt10_Select1stIS5_ESt4lessISsESaIS5_EE7_S_leftEPSt18_Rb_tree_node_base
FNDA:0,_ZNSt8_Rb_treeISsSt4pairIKSsdESt10_Select1stIS2_ESt4lessISsESaIS2_EE7_S_leftEPSt18_Rb_tree_node_base
FNDA:0,_ZNSt8_Rb_treeISsSt4pairIKSsN8f_config15FeatureSettingsEESt10_Select1stIS4_ESt4lessISsESaIS4_EE7_S_leftEPKSt18_Rb_tree_node_base
FNDA:1428,_ZNSt8_Rb_treeISsSt4pairIKSsSt6vectorIdSaIdEEESt10_Select1stIS5_ESt4lessISsESaIS5_EE7_S_leftEPKSt18_Rb_tree_node_base
FNDA:24,_ZNSt8_Rb_treeISsSt4pairIKSsdESt10_Select1stIS2_ESt4lessISsESaIS2_EE7_S_leftEPKSt18_Rb_tree_node_base
FNDA:24412,_ZNSt8_Rb_treeISsSt4pairIKSsSt6vectorIdSaIdEEESt10_Select1stIS5_ESt4lessISsESaIS5_EE8_S_rightEPSt18_Rb_tree_node_base
FNDA:0,_ZNSt8_Rb_treeISsSt4pairIKSsdESt10_Select1stIS2_ESt4lessISsESaIS2_EE8_S_rightEPSt18_Rb_tree_node_base
FNDA:0,_ZNSt8_Rb_treeISsSt4pairIKSsN8f_config15FeatureSettingsEESt10_Select1stIS4_ESt4lessISsESaIS4_EE8_S_rightEPKSt18_Rb_tree_node_base
FNDA:1632,_ZNSt8_Rb_treeISsSt4pairIKSsSt6vectorIdSaIdEEESt10_Select1stIS5_ESt4lessISsESaIS5_EE8_S_rightEPKSt18_Rb_tree_node_base
FNDA:0,_ZNSt8_Rb_treeISsSt4pairIKSsdESt10_Select1stIS2_ESt4lessISsESaIS2_EE8_S_rightEPKSt18_Rb_tree_node_base
FNDA:0,_ZNSt8_Rb_treeISsSt4pairIKSsdESt10_Select1stIS2_ESt4lessISsESaIS2_EE8_S_valueEPKSt18_Rb_tree_node_base
FNDA:3732,_ZNSt8_Rb_treeISsSt4pairIKSsSt6vectorIdSaIdEEESt10_Select1stIS5_ESt4lessISsESaIS5_EE8_S_valueEPKSt18_Rb_tree_node_base
FNDA:0,_ZNSt8_Rb_treeISsSt4pairIKSsdESt10_Select1stIS2_ESt4lessISsESaIS2_EE6_S_keyEPKSt18_Rb_tree_node_base
FNDA:3732,_ZNSt8_Rb_treeISsSt4pairIKSsSt6vectorIdSaIdEEESt10_Select1stIS5_ESt4lessISsESaIS5_EE6_S_keyEPKSt18_Rb_tree_node_base
FNDA:28,_ZNSt8_Rb_treeISsSt4pairIKSsSt6vectorIdSaIdEEESt10_Select1stIS5_ESt4lessISsESaIS5_EE10_S_minimumEPSt18_Rb_tree_node_base
FNDA:8,_ZNSt8_Rb_treeISsSt4pairIKSsdESt10_Select1stIS2_ESt4lessISsESaIS2_EE10_S_minimumEPSt18_Rb_tree_node_base
FNDA:28,_ZNSt8_Rb_treeISsSt4pairIKSsSt6vectorIdSaIdEEESt10_Select1stIS5_ESt4lessISsESaIS5_EE10_S_maximumEPSt18_Rb_tree_node_base
FNDA:8,_ZNSt8_Rb_treeISsSt4pairIKSsdESt10_Select1stIS2_ESt4lessISsESaIS2_EE10_S_maximumEPSt18_Rb_tree_node_base
FNDA:84,_ZNSt8_Rb_treeISsSt4pairIKSsSt6vectorIdSaIdEEESt10_Select1stIS5_ESt4lessISsESaIS5_EEC2Ev
FNDA:4,_ZNSt8_Rb_treeISsSt4pairIKSsSt6vectorIdSaIdEEESt10_Select1stIS5_ESt4lessISsESaIS5_EEC2ERKSB_
FNDA:32,_ZNSt8_Rb_treeISsSt4pairIKSsdESt10_Select1stIS2_ESt4lessISsESaIS2_EEC2ERKS8_
FNDA:88,_ZNSt8_Rb_treeISsSt4pairIKSsSt6vectorIdSaIdEEESt10_Select1stIS5_ESt4lessISsESaIS5_EED2Ev
FNDA:0,_ZNSt8_Rb_treeISsSt4pairIKSsdESt10_Select1stIS2_ESt4lessISsESaIS2_EED2Ev
FNDA:0,_ZNKSt8_Rb_treeISsSt4pairIKSsdESt10_Select1stIS2_ESt4lessISsESaIS2_EE8key_compEv
FNDA:20,_ZNKSt8_Rb_treeISsSt4pairIKSsN8f_config15FeatureSettingsEESt10_Select1stIS4_ESt4lessISsESaIS4_EE8key_compEv
FNDA:8340,_ZNKSt8_Rb_treeISsSt4pairIKSsSt6vectorIdSaIdEEESt10_Select1stIS5_ESt4lessISsESaIS5_EE8key_compEv
FNDA:0,_ZNSt8_Rb_treeISsSt4pairIKSsdESt10_Select1stIS2_ESt4lessISsESaIS2_EE5beginEv
FNDA:5156,_ZNSt8_Rb_treeISsSt4pairIKSsSt6vectorIdSaIdEEESt10_Select1stIS5_ESt4lessISsESaIS5_EE5beginEv
FNDA:0,_ZNSt8_Rb_treeISsSt4pairIKSsdESt10_Select1stIS2_ESt4lessISsESaIS2_EE3endEv
FNDA:161916,_ZNSt8_Rb_treeISsSt4pairIKSsSt6vectorIdSaIdEEESt10_Select1stIS5_ESt4lessISsESaIS5_EE3endEv
FNDA:144,_ZNKSt8_Rb_treeISsSt4pairIKSsSt6vectorIdSaIdEEESt10_Select1stIS5_ESt4lessISsESaIS5_EE3endEv
FNDA:8,_ZNKSt8_Rb_treeISsSt4pairIKSsN8f_config15FeatureSettingsEESt10_Select1stIS4_ESt4lessISsESaIS4_EE3endEv
FNDA:0,_ZNKSt8_Rb_treeISsSt4pairIKSsdESt10_Select1stIS2_ESt4lessISsESaIS2_EE4sizeEv
FNDA:376,_ZNKSt8_Rb_treeISsSt4pairIKSsSt6vectorIdSaIdEEESt10_Select1stIS5_ESt4lessISsESaIS5_EE4sizeEv
FNDA:52,_ZNSt8_Rb_treeISsSt4pairIKSsSt6vectorIdSaIdEEESt10_Select1stIS5_ESt4lessISsESaIS5_EE5clearEv
FNDA:0,_ZNSt8_Rb_treeISsSt4pairIKSsdESt10_Select1stIS2_ESt4lessISsESaIS2_EE11lower_boundERS1_
FNDA:8436,_ZNSt8_Rb_treeISsSt4pairIKSsSt6vectorIdSaIdEEESt10_Select1stIS5_ESt4lessISsESaIS5_EE11lower_boundERS1_
FNDA:144,_ZNKSt8_Rb_treeISsSt4pairIKSsSt6vectorIdSaIdEEESt10_Select1stIS5_ESt4lessISsESaIS5_EE11lower_boundERS1_
FNDA:0,_ZNKSt8_Rb_treeISsSt4pairIKSsN8f_config15FeatureSettingsEESt10_Select1stIS4_ESt4lessISsESaIS4_EE11lower_boundERS1_
FNDA:24,_ZNSt8_Rb_treeISsSt4pairIKSsSt6vectorIdSaIdEEESt10_Select1stIS5_ESt4lessISsESaIS5_EEaSERKSB_
FNDA:0,_ZNSt8_Rb_treeISsSt4pairIKSsdESt10_Select1stIS2_ESt4lessISsESaIS2_EE10_M_insert_IS2_EESt17_Rb_tree_iteratorIS2_EPKSt18_Rb_tree_node_baseSE_OT_
FNDA:1432,_ZNSt8_Rb_treeISsSt4pairIKSsSt6vectorIdSaIdEEESt10_Select1stIS5_ESt4lessISsESaIS5_EE10_M_insert_IS5_EESt17_Rb_tree_iteratorIS5_EPKSt18_Rb_tree_node_baseSH_OT_
FNDA:436,_ZNSt8_Rb_treeISsSt4pairIKSsSt6vectorIdSaIdEEESt10_Select1stIS5_ESt4lessISsESaIS5_EE7_M_copyEPKSt13_Rb_tree_nodeIS5_EPSD_
FNDA:16,_ZNSt8_Rb_treeISsSt4pairIKSsdESt10_Select1stIS2_ESt4lessISsESaIS2_EE7_M_copyEPKSt13_Rb_tree_nodeIS2_EPSA_
FNDA:2560,_ZNSt8_Rb_treeISsSt4pairIKSsSt6vectorIdSaIdEEESt10_Select1stIS5_ESt4lessISsESaIS5_EE8_M_eraseEPSt13_Rb_tree_nodeIS5_E
FNDA:0,_ZNSt8_Rb_treeISsSt4pairIKSsdESt10_Select1stIS2_ESt4lessISsESaIS2_EE8_M_eraseEPSt13_Rb_tree_nodeIS2_E
FNDA:0,_ZNSt8_Rb_treeISsSt4pairIKSsdESt10_Select1stIS2_ESt4lessISsESaIS2_EE14_M_lower_boundEPSt13_Rb_tree_nodeIS2_ESB_RS1_
FNDA:8556,_ZNSt8_Rb_treeISsSt4pairIKSsSt6vectorIdSaIdEEESt10_Select1stIS5_ESt4lessISsESaIS5_EE14_M_lower_boundEPSt13_Rb_tree_nodeIS5_ESE_RS1_
FNDA:144,_ZNKSt8_Rb_treeISsSt4pairIKSsSt6vectorIdSaIdEEESt10_Select1stIS5_ESt4lessISsESaIS5_EE14_M_lower_boundEPKSt13_Rb_tree_nodeIS5_ESF_RS1_
FNDA:0,_ZNKSt8_Rb_treeISsSt4pairIKSsN8f_config15FeatureSettingsEESt10_Select1stIS4_ESt4lessISsESaIS4_EE14_M_lower_boundEPKSt13_Rb_tree_nodeIS4_ESE_RS1_
FNDA:24,_ZNSt8_Rb_treeISsSt4pairIKSsSt6vectorIdSaIdEEESt10_Select1stIS5_ESt4lessISsESaIS5_EE4swapERSB_
FNDA:0,_ZNSt8_Rb_treeISsSt4pairIKSsdESt10_Select1stIS2_ESt4lessISsESaIS2_EE16_M_insert_uniqueIS2_EES0_ISt17_Rb_tree_iteratorIS2_EbEOT_
FNDA:48,_ZNSt8_Rb_treeISsSt4pairIKSsSt6vectorIdSaIdEEESt10_Select1stIS5_ESt4lessISsESaIS5_EE16_M_insert_uniqueIS5_EES0_ISt17_Rb_tree_iteratorIS5_EbEOT_
FNDA:0,_ZNSt8_Rb_treeISsSt4pairIKSsdESt10_Select1stIS2_ESt4lessISsESaIS2_EE17_M_insert_unique_IS2_EESt17_Rb_tree_iteratorIS2_ESt23_Rb_tree_const_iteratorIS2_EOT_
FNDA:1432,_ZNSt8_Rb_treeISsSt4pairIKSsSt6vectorIdSaIdEEESt10_Select1stIS5_ESt4lessISsESaIS5_EE17_M_insert_unique_IS5_EESt17_Rb_tree_iteratorIS5_ESt23_Rb_tree_const_iteratorIS5_EOT_
FNDA:120,_ZNSt8_Rb_treeISsSt4pairIKSsSt6vectorIdSaIdEEESt10_Select1stIS5_ESt4lessISsESaIS5_EE4findERS1_
FNF:135
FNH:86
DA:101,40
DA:103,40
DA:104,40
DA:115,40
DA:117,40
DA:118,40
DA:130,2420
DA:137,2456
DA:139,2456
DA:173,177364
DA:174,177364
DA:177,17348
DA:178,17348
DA:181,169992
DA:183,169992
DA:186,148776
DA:188,148776
DA:189,148776
DA:201,44
DA:203,44
DA:204,44
DA:216,8668
DA:217,8668
DA:220,153940
DA:221,153940
DA:246,300
DA:247,300
DA:249,1568
DA:250,1568
DA:253,0
DA:255,0
DA:258,288
DA:259,288
DA:267,0
DA:269,0
DA:270,0
DA:282,1080
DA:284,1080
DA:285,1080
DA:297,144
DA:298,144
DA:355,4888
DA:356,4888
DA:359,36
DA:360,36
DA:368,2420
DA:369,2420
DA:372,2420
DA:373,2420
DA:400,2456
DA:402,2456
DA:405,2456
DA:408,0
DA:410,0
DA:411,0
DA:413,2456
DA:417,2420
DA:419,2420
DA:420,2420
DA:421,2420
DA:425,876
DA:427,876
DA:428,876
DA:429,876
DA:430,876
DA:431,876
DA:437,88
DA:443,84
DA:445,84
DA:446,84
DA:448,36
DA:450,36
DA:451,36
DA:462,88
DA:464,88
DA:465,88
DA:466,88
DA:467,88
DA:468,88
DA:475,308
DA:476,308
DA:479,64
DA:480,64
DA:483,1568
DA:484,1568
DA:491,684
DA:492,684
DA:499,8864
DA:500,8864
DA:503,180
DA:506,180
DA:510,11464
DA:511,11464
DA:514,144
DA:515,144
DA:518,45156
DA:519,45156
DA:522,45156
DA:523,45156
DA:526,24772
DA:527,24772
DA:530,1452
DA:531,1452
DA:534,24412
DA:535,24412
DA:538,1632
DA:539,1632
DA:542,3732
DA:543,3732
DA:546,3732
DA:547,3732
DA:550,36
DA:551,36
DA:558,36
DA:559,36
DA:623,84
DA:629,36
DA:630,36
DA:632,36
DA:634,12
DA:635,12
DA:636,12
DA:637,12
DA:639,36
DA:645,88
DA:646,88
DA:653,8360
DA:654,8360
DA:657,5156
DA:660,5156
DA:671,161916
DA:672,161916
DA:675,152
DA:678,152
DA:702,376
DA:703,376
DA:814,52
DA:816,52
DA:817,52
DA:818,52
DA:819,52
DA:820,52
DA:821,52
DA:834,8436
DA:835,8436
DA:838,144
DA:839,144
DA:943,24
DA:946,24
DA:949,24
DA:951,24
DA:953,24
DA:954,24
DA:955,24
DA:956,24
DA:959,24
DA:968,1432
DA:977,1432
DA:979,1432
DA:981,1432
DA:984,1432
DA:985,1432
DA:1040,452
DA:1044,452
DA:1045,452
DA:1049,452
DA:1050,232
DA:1051,452
DA:1052,452
DA:1054,1328
DA:1056,424
DA:1057,424
DA:1058,424
DA:1059,424
DA:1060,184
DA:1061,424
DA:1062,424
DA:1065,0
DA:1067,0
DA:1068,0
DA:1070,452
DA:1076,2560
DA:1080,7540
DA:1082,2420
DA:1083,2420
DA:1084,2420
DA:1085,2420
DA:1087,2560
DA:1093,8556
DA:1097,60872
DA:1098,43760
DA:1099,22024
DA:1101,21736
DA:1102,8556
DA:1109,144
DA:1113,1008
DA:1114,720
DA:1115,576
DA:1117,144
DA:1118,144
DA:1218,24
DA:1221,24
DA:1223,24
DA:1225,24
DA:1226,24
DA:1227,24
DA:1228,24
DA:1230,24
DA:1231,24
DA:1232,24
DA:1235,0
DA:1237,0
DA:1238,0
DA:1239,0
DA:1240,0
DA:1242,0
DA:1243,0
DA:1244,0
DA:1248,0
DA:1249,0
DA:1250,0
DA:1252,0
DA:1253,0
DA:1256,24
DA:1257,24
DA:1261,24
DA:1263,24
DA:1272,48
DA:1279,48
DA:1280,48
DA:1281,48
DA:1282,96
DA:1284,0
DA:1285,0
DA:1286,0
DA:1288,48
DA:1289,48
DA:1291,48
DA:1293,48
DA:1295,0
DA:1297,0
DA:1299,0
DA:1300,0
DA:1333,1432
DA:1341,1432
DA:1343,240
DA:1346,192
DA:1348,48
DA:1350,1192
DA:1354,1192
DA:1355,1192
DA:1357,112
DA:1358,1080
DA:1361,1080
DA:1363,592
DA:1367,488
DA:1370,0
DA:1372,0
DA:1376,0
DA:1377,0
DA:1379,0
DA:1380,0
DA:1383,0
DA:1385,0
DA:1388,0
DA:1391,0
DA:1395,0
DA:1541,120
DA:1544,120
DA:1547,120
LF:270
LH:228
end_of_record
SF:/usr/include/c++/4.7.2/bits/stl_uninitialized.h
FN:70,_ZNSt20__uninitialized_copyILb0EE13__uninit_copyIN9__gnu_cxx17__normal_iteratorIPKSsSt6vectorISsSaISsEEEEPSsEET0_T_SC_SB_
FN:70,_ZNSt20__uninitialized_copyILb0EE13__uninit_copyIN9__gnu_cxx17__normal_iteratorIPKN8f_config16FeaturePositionsESt6vectorIS5_SaIS5_EEEEPS5_EET0_T_SE_SD_
FN:93,_ZNSt20__uninitialized_copyILb1EE13__uninit_copyIN9__gnu_cxx17__normal_iteratorIPKiSt6vectorIiSaIiEEEEPiEET0_T_SC_SB_
FN:93,_ZNSt20__uninitialized_copyILb1EE13__uninit_copyIN9__gnu_cxx17__normal_iteratorIPKdSt6vectorIdSaIdEEEEPdEET0_T_SC_SB_
FN:109,_ZSt18uninitialized_copyIN9__gnu_cxx17__normal_iteratorIPKdSt6vectorIdSaIdEEEEPdET0_T_SA_S9_
FN:109,_ZSt18uninitialized_copyIN9__gnu_cxx17__normal_iteratorIPKSsSt6vectorISsSaISsEEEEPSsET0_T_SA_S9_
FN:109,_ZSt18uninitialized_copyIN9__gnu_cxx17__normal_iteratorIPKN8f_config16FeaturePositionsESt6vectorIS3_SaIS3_EEEEPS3_ET0_T_SC_SB_
FN:109,_ZSt18uninitialized_copyIN9__gnu_cxx17__normal_iteratorIPKiSt6vectorIiSaIiEEEEPiET0_T_SA_S9_
FN:204,_ZNSt22__uninitialized_fill_nILb1EE15__uninit_fill_nIPdmdEEvT_T0_RKT1_
FN:220,_ZSt20uninitialized_fill_nIPdmdEvT_T0_RKT1_
FN:258,_ZSt22__uninitialized_copy_aIN9__gnu_cxx17__normal_iteratorIPKiSt6vectorIiSaIiEEEEPiiET0_T_SA_S9_RSaIT1_E
FN:258,_ZSt22__uninitialized_copy_aIN9__gnu_cxx17__normal_iteratorIPKdSt6vectorIdSaIdEEEEPddET0_T_SA_S9_RSaIT1_E
FN:258,_ZSt22__uninitialized_copy_aIN9__gnu_cxx17__normal_iteratorIPKN8f_config16FeaturePositionsESt6vectorIS3_SaIS3_EEEEPS3_S3_ET0_T_SC_SB_RSaIT1_E
FN:258,_ZSt22__uninitialized_copy_aIN9__gnu_cxx17__normal_iteratorIPKSsSt6vectorISsSaISsEEEEPSsSsET0_T_SA_S9_RSaIT1_E
FN:334,_ZSt24__uninitialized_fill_n_aIPdmddEvT_T0_RKT1_RSaIT2_E
FNDA:100,_ZNSt20__uninitialized_copyILb0EE13__uninit_copyIN9__gnu_cxx17__normal_iteratorIPKN8f_config16FeaturePositionsESt6vectorIS5_SaIS5_EEEEPS5_EET0_T_SE_SD_
FNDA:0,_ZNSt20__uninitialized_copyILb0EE13__uninit_copyIN9__gnu_cxx17__normal_iteratorIPKSsSt6vectorISsSaISsEEEEPSsEET0_T_SC_SB_
FNDA:5596,_ZNSt20__uninitialized_copyILb1EE13__uninit_copyIN9__gnu_cxx17__normal_iteratorIPKdSt6vectorIdSaIdEEEEPdEET0_T_SC_SB_
FNDA:268,_ZNSt20__uninitialized_copyILb1EE13__uninit_copyIN9__gnu_cxx17__normal_iteratorIPKiSt6vectorIiSaIiEEEEPiEET0_T_SC_SB_
FNDA:5596,_ZSt18uninitialized_copyIN9__gnu_cxx17__normal_iteratorIPKdSt6vectorIdSaIdEEEEPdET0_T_SA_S9_
FNDA:268,_ZSt18uninitialized_copyIN9__gnu_cxx17__normal_iteratorIPKiSt6vectorIiSaIiEEEEPiET0_T_SA_S9_
FNDA:100,_ZSt18uninitialized_copyIN9__gnu_cxx17__normal_iteratorIPKN8f_config16FeaturePositionsESt6vectorIS3_SaIS3_EEEEPS3_ET0_T_SC_SB_
FNDA:0,_ZSt18uninitialized_copyIN9__gnu_cxx17__normal_iteratorIPKSsSt6vectorISsSaISsEEEEPSsET0_T_SA_S9_
FNDA:2256,_ZNSt22__uninitialized_fill_nILb1EE15__uninit_fill_nIPdmdEEvT_T0_RKT1_
FNDA:2256,_ZSt20uninitialized_fill_nIPdmdEvT_T0_RKT1_
FNDA:5596,_ZSt22__uninitialized_copy_aIN9__gnu_cxx17__normal_iteratorIPKdSt6vectorIdSaIdEEEEPddET0_T_SA_S9_RSaIT1_E
FNDA:268,_ZSt22__uninitialized_copy_aIN9__gnu_cxx17__normal_iteratorIPKiSt6vectorIiSaIiEEEEPiiET0_T_SA_S9_RSaIT1_E
FNDA:100,_ZSt22__uninitialized_copy_aIN9__gnu_cxx17__normal_iteratorIPKN8f_config16FeaturePositionsESt6vectorIS3_SaIS3_EEEEPS3_S3_ET0_T_SC_SB_RSaIT1_E
FNDA:0,_ZSt22__uninitialized_copy_aIN9__gnu_cxx17__normal_iteratorIPKSsSt6vectorISsSaISsEEEEPSsSsET0_T_SA_S9_RSaIT1_E
FNDA:2256,_ZSt24__uninitialized_fill_n_aIPdmddEvT_T0_RKT1_RSaIT2_E
FNF:15
FNH:12
DA:70,100
DA:73,100
DA:76,300
DA:77,200
DA:78,100
DA:80,0
DA:82,0
DA:83,0
DA:93,5864
DA:95,5864
DA:109,5964
DA:119,5964
DA:204,2256
DA:206,2256
DA:220,2256
DA:225,2256
DA:227,2256
DA:258,5964
DA:260,5964
DA:334,2256
DA:336,2256
LF:21
LH:18
end_of_record
SF:/usr/include/c++/4.7.2/bits/stl_vector.h
FN:80,_ZNSt12_Vector_baseIN8f_config16FeaturePositionsESaIS1_EE12_Vector_implD2Ev
FN:80,_ZNSt12_Vector_baseIdSaIdEE12_Vector_implD2Ev
FN:80,_ZNSt12_Vector_baseIiSaIiEE12_Vector_implD2Ev
FN:80,_ZNSt12_Vector_baseISsSaISsEE12_Vector_implD2Ev
FN:87,_ZNSt12_Vector_baseIdSaIdEE12_Vector_implC2Ev
FN:91,_ZNSt12_Vector_baseIiSaIiEE12_Vector_implC2ERKS0_
FN:91,_ZNSt12_Vector_baseISsSaISsEE12_Vector_implC2ERKS0_
FN:91,_ZNSt12_Vector_baseIN8f_config16FeaturePositionsESaIS1_EE12_Vector_implC2ERKS2_
FN:91,_ZNSt12_Vector_baseIdSaIdEE12_Vector_implC2ERKS0_
FN:96,_ZNSt12_Vector_baseIdSaIdEE12_Vector_implC2EOS0_
FN:102,_ZNSt12_Vector_baseIdSaIdEE12_Vector_impl12_M_swap_dataERS2_
FN:114,_ZNSt12_Vector_baseIN8f_config16FeaturePositionsESaIS1_EE19_M_get_Tp_allocatorEv
FN:114,_ZNSt12_Vector_baseIiSaIiEE19_M_get_Tp_allocatorEv
FN:114,_ZNSt12_Vector_baseIdSaIdEE19_M_get_Tp_allocatorEv
FN:114,_ZNSt12_Vector_baseISsSaISsEE19_M_get_Tp_allocatorEv
FN:118,_ZNKSt12_Vector_baseISsSaISsEE19_M_get_Tp_allocatorEv
FN:118,_ZNKSt12_Vector_baseIdSaIdEE19_M_get_Tp_allocatorEv
FN:118,_ZNKSt12_Vector_baseIN8f_config16FeaturePositionsESaIS1_EE19_M_get_Tp_allocatorEv
FN:118,_ZNKSt12_Vector_baseIiSaIiEE19_M_get_Tp_allocatorEv
FN:125,_ZNSt12_Vector_baseIdSaIdEEC2Ev
FN:135,_ZNSt12_Vector_baseIdSaIdEEC2EmRKS0_
FN:135,_ZNSt12_Vector_baseIN8f_config16FeaturePositionsESaIS1_EEC2EmRKS2_
FN:135,_ZNSt12_Vector_baseISsSaISsEEC2EmRKS0_
FN:135,_ZNSt12_Vector_baseIiSaIiEEC2EmRKS0_
FN:143,_ZNSt12_Vector_baseIdSaIdEEC2EOS1_
FN:160,_ZNSt12_Vector_baseISsSaISsEED2Ev
FN:160,_ZNSt12_Vector_baseIN8f_config16FeaturePositionsESaIS1_EED2Ev
FN:160,_ZNSt12_Vector_baseIdSaIdEED2Ev
FN:160,_ZNSt12_Vector_baseIiSaIiEED2Ev
FN:168,_ZNSt12_Vector_baseIiSaIiEE11_M_allocateEm
FN:168,_ZNSt12_Vector_baseIdSaIdEE11_M_allocateEm
FN:168,_ZNSt12_Vector_baseISsSaISsEE11_M_allocateEm
FN:168,_ZNSt12_Vector_baseIN8f_config16FeaturePositionsESaIS1_EE11_M_allocateEm
FN:172,_ZNSt12_Vector_baseISsSaISsEE13_M_deallocateEPSsm
FN:172,_ZNSt12_Vector_baseIN8f_config16FeaturePositionsESaIS1_EE13_M_deallocateEPS1_m
FN:172,_ZNSt12_Vector_baseIdSaIdEE13_M_deallocateEPdm
FN:172,_ZNSt12_Vector_baseIiSaIiEE13_M_deallocateEPim
FN:180,_ZNSt12_Vector_baseIN8f_config16FeaturePositionsESaIS1_EE17_M_create_storageEm
FN:180,_ZNSt12_Vector_baseISsSaISsEE17_M_create_storageEm
FN:180,_ZNSt12_Vector_baseIdSaIdEE17_M_create_storageEm
FN:180,_ZNSt12_Vector_baseIiSaIiEE17_M_create_storageEm
FN:246,_ZNSt6vectorIdSaIdEEC2Ev
FN:278,_ZNSt6vectorIdSaIdEEC2EmRKdRKS0_
FN:307,_ZNSt6vectorIdSaIdEEC2ERKS1_
FN:307,_ZNSt6vectorIiSaIiEEC2ERKS1_
FN:307,_ZNSt6vectorISsSaISsEEC2ERKS1_
FN:307,_ZNSt6vectorIN8f_config16FeaturePositionsESaIS1_EEC2ERKS3_
FN:324,_ZNSt6vectorIdSaIdEEC2EOS1_
FN:402,_ZNSt6vectorIiSaIiEED2Ev
FN:402,_ZNSt6vectorISsSaISsEED2Ev
FN:402,_ZNSt6vectorIN8f_config16FeaturePositionsESaIS1_EED2Ev
FN:402,_ZNSt6vectorIdSaIdEED2Ev
FN:427,_ZNSt6vectorIdSaIdEEaSEOS1_
FN:518,_ZNSt6vectorIdSaIdEE5beginEv
FN:518,_ZNSt6vectorISsSaISsEE5beginEv
FN:527,_ZNKSt6vectorIN8f_config16FeaturePositionsESaIS1_EE5beginEv
FN:527,_ZNKSt6vectorISsSaISsEE5beginEv
FN:527,_ZNKSt6vectorIdSaIdEE5beginEv
FN:527,_ZNKSt6vectorIiSaIiEE5beginEv
FN:536,_ZNSt6vectorIdSaIdEE3endEv
FN:536,_ZNSt6vectorISsSaISsEE3endEv
FN:545,_ZNKSt6vectorIdSaIdEE3endEv
FN:545,_ZNKSt6vectorIN8f_config16FeaturePositionsESaIS1_EE3endEv
FN:545,_ZNKSt6vectorISsSaISsEE3endEv
FN:545,_ZNKSt6vectorIiSaIiEE3endEv
FN:625,_ZNKSt6vectorISsSaISsEE4sizeEv
FN:625,_ZNKSt6vectorIdSaIdEE4sizeEv
FN:625,_ZNKSt6vectorIiSaIiEE4sizeEv
FN:625,_ZNKSt6vectorIN5fasta7ResidueESaIS1_EE4sizeEv
FN:625,_ZNKSt6vectorIN8f_config16FeaturePositionsESaIS1_EE4sizeEv
FN:625,_ZNKSt6vectorIN5fasta8SequenceESaIS1_EE4sizeEv
FN:750,_ZNSt6vectorIdSaIdEEixEm
FN:765,_ZNKSt6vectorIN5fasta7ResidueESaIS1_EEixEm
FN:765,_ZNKSt6vectorIdSaIdEEixEm
FN:765,_ZNKSt6vectorIN5fasta8SequenceESaIS1_EEixEm
FN:1179,_ZNSt6vectorIdSaIdEE18_M_fill_initializeEmRKd
FN:1329,_ZNSt6vectorIdSaIdEE14_M_move_assignEOS1_St17integral_constantIbLb1EE
FNDA:372,_ZNSt12_Vector_baseIiSaIiEE12_Vector_implD2Ev
FNDA:232,_ZNSt12_Vector_baseIN8f_config16FeaturePositionsESaIS1_EE12_Vector_implD2Ev
FNDA:16520,_ZNSt12_Vector_baseIdSaIdEE12_Vector_implD2Ev
FNDA:0,_ZNSt12_Vector_baseISsSaISsEE12_Vector_implD2Ev
FNDA:2068,_ZNSt12_Vector_baseIdSaIdEE12_Vector_implC2Ev
FNDA:268,_ZNSt12_Vector_baseIiSaIiEE12_Vector_implC2ERKS0_
FNDA:24,_ZNSt12_Vector_baseIN8f_config16FeaturePositionsESaIS1_EE12_Vector_implC2ERKS2_
FNDA:8256,_ZNSt12_Vector_baseIdSaIdEE12_Vector_implC2ERKS0_
FNDA:0,_ZNSt12_Vector_baseISsSaISsEE12_Vector_implC2ERKS0_
FNDA:6196,_ZNSt12_Vector_baseIdSaIdEE12_Vector_implC2EOS0_
FNDA:8264,_ZNSt12_Vector_baseIdSaIdEE12_Vector_impl12_M_swap_dataERS2_
FNDA:912,_ZNSt12_Vector_baseIiSaIiEE19_M_get_Tp_allocatorEv
FNDA:616,_ZNSt12_Vector_baseIN8f_config16FeaturePositionsESaIS1_EE19_M_get_Tp_allocatorEv
FNDA:30988,_ZNSt12_Vector_baseIdSaIdEE19_M_get_Tp_allocatorEv
FNDA:0,_ZNSt12_Vector_baseISsSaISsEE19_M_get_Tp_allocatorEv
FNDA:5612,_ZNKSt12_Vector_baseIdSaIdEE19_M_get_Tp_allocatorEv
FNDA:488,_ZNKSt12_Vector_baseIiSaIiEE19_M_get_Tp_allocatorEv
FNDA:120,_ZNKSt12_Vector_baseIN8f_config16FeaturePositionsESaIS1_EE19_M_get_Tp_allocatorEv
FNDA:0,_ZNKSt12_Vector_baseISsSaISsEE19_M_get_Tp_allocatorEv
FNDA:2068,_ZNSt12_Vector_baseIdSaIdEEC2Ev
FNDA:264,_ZNSt12_Vector_baseIiSaIiEEC2EmRKS0_
FNDA:24,_ZNSt12_Vector_baseIN8f_config16FeaturePositionsESaIS1_EEC2EmRKS2_
FNDA:7832,_ZNSt12_Vector_baseIdSaIdEEC2EmRKS0_
FNDA:0,_ZNSt12_Vector_baseISsSaISsEEC2EmRKS0_
FNDA:6196,_ZNSt12_Vector_baseIdSaIdEEC2EOS1_
FNDA:372,_ZNSt12_Vector_baseIiSaIiEED2Ev
FNDA:232,_ZNSt12_Vector_baseIN8f_config16FeaturePositionsESaIS1_EED2Ev
FNDA:16520,_ZNSt12_Vector_baseIdSaIdEED2Ev
FNDA:0,_ZNSt12_Vector_baseISsSaISsEED2Ev
FNDA:392,_ZNSt12_Vector_baseIiSaIiEE11_M_allocateEm
FNDA:152,_ZNSt12_Vector_baseIN8f_config16FeaturePositionsESaIS1_EE11_M_allocateEm
FNDA:8264,_ZNSt12_Vector_baseIdSaIdEE11_M_allocateEm
FNDA:0,_ZNSt12_Vector_baseISsSaISsEE11_M_allocateEm
FNDA:496,_ZNSt12_Vector_baseIiSaIiEE13_M_deallocateEPim
FNDA:360,_ZNSt12_Vector_baseIN8f_config16FeaturePositionsESaIS1_EE13_M_deallocateEPS1_m
FNDA:16528,_ZNSt12_Vector_baseIdSaIdEE13_M_deallocateEPdm
FNDA:0,_ZNSt12_Vector_baseISsSaISsEE13_M_deallocateEPSsm
FNDA:264,_ZNSt12_Vector_baseIiSaIiEE17_M_create_storageEm
FNDA:24,_ZNSt12_Vector_baseIN8f_config16FeaturePositionsESaIS1_EE17_M_create_storageEm
FNDA:7832,_ZNSt12_Vector_baseIdSaIdEE17_M_create_storageEm
FNDA:0,_ZNSt12_Vector_baseISsSaISsEE17_M_create_storageEm
FNDA:2068,_ZNSt6vectorIdSaIdEEC2Ev
FNDA:2236,_ZNSt6vectorIdSaIdEEC2EmRKdRKS0_
FNDA:5596,_ZNSt6vectorIdSaIdEEC2ERKS1_
FNDA:264,_ZNSt6vectorIiSaIiEEC2ERKS1_
FNDA:24,_ZNSt6vectorIN8f_config16FeaturePositionsESaIS1_EEC2ERKS3_
FNDA:0,_ZNSt6vectorISsSaISsEEC2ERKS1_
FNDA:6196,_ZNSt6vectorIdSaIdEEC2EOS1_
FNDA:372,_ZNSt6vectorIiSaIiEED2Ev
FNDA:232,_ZNSt6vectorIN8f_config16FeaturePositionsESaIS1_EED2Ev
FNDA:16520,_ZNSt6vectorIdSaIdEED2Ev
FNDA:0,_ZNSt6vectorISsSaISsEED2Ev
FNDA:2068,_ZNSt6vectorIdSaIdEEaSEOS1_
FNDA:0,_ZNSt6vectorISsSaISsEE5beginEv
FNDA:1196,_ZNSt6vectorIdSaIdEE5beginEv
FNDA:5640,_ZNKSt6vectorIdSaIdEE5beginEv
FNDA:276,_ZNKSt6vectorIiSaIiEE5beginEv
FNDA:104,_ZNKSt6vectorIN8f_config16FeaturePositionsESaIS1_EE5beginEv
FNDA:0,_ZNKSt6vectorISsSaISsEE5beginEv
FNDA:0,_ZNSt6vectorISsSaISsEE3endEv
FNDA:1196,_ZNSt6vectorIdSaIdEE3endEv
FNDA:5640,_ZNKSt6vectorIdSaIdEE3endEv
FNDA:276,_ZNKSt6vectorIiSaIiEE3endEv
FNDA:104,_ZNKSt6vectorIN8f_config16FeaturePositionsESaIS1_EE3endEv
FNDA:0,_ZNKSt6vectorISsSaISsEE3endEv
FNDA:81656,_ZNKSt6vectorIdSaIdEE4sizeEv
FNDA:828,_ZNKSt6vectorIiSaIiEE4sizeEv
FNDA:340,_ZNKSt6vectorIN8f_config16FeaturePositionsESaIS1_EE4sizeEv
FNDA:0,_ZNKSt6vectorISsSaISsEE4sizeEv
FNDA:0,_ZNKSt6vectorIN5fasta7ResidueESaIS1_EE4sizeEv
FNDA:0,_ZNKSt6vectorIN5fasta8SequenceESaIS1_EE4sizeEv
FNDA:273476,_ZNSt6vectorIdSaIdEEixEm
FNDA:1512,_ZNKSt6vectorIdSaIdEEixEm
FNDA:4280,_ZNKSt6vectorIN5fasta7ResidueESaIS1_EEixEm
FNDA:4404,_ZNKSt6vectorIN5fasta8SequenceESaIS1_EEixEm
FNDA:2256,_ZNSt6vectorIdSaIdEE18_M_fill_initializeEmRKd
FNDA:2068,_ZNSt6vectorIdSaIdEE14_M_move_assignEOS1_St17integral_constantIbLb1EE
FNF:77
FNH:59
DA:80,17124
DA:87,2068
DA:88,2068
DA:89,2068
DA:91,8548
DA:92,8548
DA:93,8548
DA:96,6196
DA:98,6196
DA:99,6196
DA:102,8264
DA:104,8264
DA:105,8264
DA:106,8264
DA:107,8264
DA:114,32516
DA:115,32516
DA:118,6220
DA:119,6220
DA:125,2068
DA:126,2068
DA:135,8120
DA:136,8120
DA:137,8120
DA:143,6196
DA:144,6196
DA:145,6196
DA:160,17124
DA:161,17124
DA:162,17124
DA:168,8808
DA:169,8808
DA:172,17384
DA:174,17384
DA:175,8808
DA:176,17384
DA:180,8120
DA:182,8120
DA:183,8120
DA:184,8120
DA:185,8120
DA:246,2068
DA:247,2068
DA:278,2236
DA:280,2236
DA:281,2236
DA:307,5884
DA:309,5884
DA:310,5884
DA:314,5884
DA:324,6196
DA:325,6196
DA:402,17124
DA:403,17124
DA:404,17124
DA:427,2068
DA:431,2068
DA:432,2068
DA:434,2068
DA:518,1196
DA:519,1196
DA:527,6020
DA:528,6020
DA:536,1196
DA:537,1196
DA:545,6020
DA:546,6020
DA:625,82824
DA:626,82824
DA:750,273476
DA:751,273476
DA:765,10196
DA:766,10196
DA:1179,2256
DA:1181,2256
DA:1183,2256
DA:1184,2256
DA:1329,2068
DA:1331,2068
DA:1332,2068
DA:1333,2068
DA:1334,0
DA:1336,2068
LF:83
LH:82
end_of_record
SF:/usr/include/c++/4.7.2/ext/alloc_traits.h
FN:153,_ZN9__gnu_cxx14__alloc_traitsISaISsEE17_S_select_on_copyERKS1_
FN:153,_ZN9__gnu_cxx14__alloc_traitsISaIiEE17_S_select_on_copyERKS1_
FN:153,_ZN9__gnu_cxx14__alloc_traitsISaIN8f_config16FeaturePositionsEEE17_S_select_on_copyERKS3_
FN:153,_ZN9__gnu_cxx14__alloc_traitsISaIdEE17_S_select_on_copyERKS1_
FN:162,_ZN9__gnu_cxx14__alloc_traitsISaIdEE27_S_propagate_on_move_assignEv
FNDA:5596,_ZN9__gnu_cxx14__alloc_traitsISaIdEE17_S_select_on_copyERKS1_
FNDA:264,_ZN9__gnu_cxx14__alloc_traitsISaIiEE17_S_select_on_copyERKS1_
FNDA:24,_ZN9__gnu_cxx14__alloc_traitsISaIN8f_config16FeaturePositionsEEE17_S_select_on_copyERKS3_
FNDA:0,_ZN9__gnu_cxx14__alloc_traitsISaISsEE17_S_select_on_copyERKS1_
FNDA:2068,_ZN9__gnu_cxx14__alloc_traitsISaIdEE27_S_propagate_on_move_assignEv
FNF:5
FNH:4
DA:153,5884
DA:154,5884
DA:162,2068
DA:163,2068
LF:4
LH:4
end_of_record
SF:/usr/include/c++/4.7.2/ext/atomicity.h
FN:47,_ZN9__gnu_cxxL18__exchange_and_addEPVii
FN:64,_ZN9__gnu_cxxL25__exchange_and_add_singleEPii
FN:77,_ZN9__gnu_cxxL27__exchange_and_add_dispatchEPii
FNDA:0,_ZN9__gnu_cxxL18__exchange_and_addEPVii
FNDA:0,_ZN9__gnu_cxxL25__exchange_and_add_singleEPii
FNDA:0,_ZN9__gnu_cxxL27__exchange_and_add_dispatchEPii
FNF:3
FNH:0
DA:47,0
DA:48,0
DA:64,0
DA:66,0
DA:67,0
DA:68,0
DA:77,0
DA:80,0
DA:81,0
DA:83,0
LF:10
LH:0
end_of_record
SF:/usr/include/c++/4.7.2/ext/concurrence.h
FN:68,_ZN9__gnu_cxx24__concurrence_lock_errorD2Ev
FN:68,_ZN9__gnu_cxx24__concurrence_lock_errorD0Ev
FN:72,_ZNK9__gnu_cxx24__concurrence_lock_error4whatEv
FN:76,_ZN9__gnu_cxx26__concurrence_unlock_errorD0Ev
FN:76,_ZN9__gnu_cxx26__concurrence_unlock_errorD2Ev
FN:80,_ZNK9__gnu_cxx26__concurrence_unlock_error4whatEv
FN:84,_ZN9__gnu_cxx29__concurrence_broadcast_errorD0Ev
FN:84,_ZN9__gnu_cxx29__concurrence_broadcast_errorD2Ev
FN:88,_ZNK9__gnu_cxx29__concurrence_broadcast_error4whatEv
FN:92,_ZN9__gnu_cxx24__concurrence_wait_errorD0Ev
FN:92,_ZN9__gnu_cxx24__concurrence_wait_errorD2Ev
FN:96,_ZNK9__gnu_cxx24__concurrence_wait_error4whatEv
FNDA:0,_ZN9__gnu_cxx24__concurrence_lock_errorD0Ev
FNDA:0,_ZN9__gnu_cxx24__concurrence_lock_errorD2Ev
FNDA:0,_ZNK9__gnu_cxx24__concurrence_lock_error4whatEv
FNDA:0,_ZN9__gnu_cxx26__concurrence_unlock_errorD0Ev
FNDA:0,_ZN9__gnu_cxx26__concurrence_unlock_errorD2Ev
FNDA:0,_ZNK9__gnu_cxx26__concurrence_unlock_error4whatEv
FNDA:0,_ZN9__gnu_cxx29__concurrence_broadcast_errorD0Ev
FNDA:0,_ZN9__gnu_cxx29__concurrence_broadcast_errorD2Ev
FNDA:0,_ZNK9__gnu_cxx29__concurrence_broadcast_error4whatEv
FNDA:0,_ZN9__gnu_cxx24__concurrence_wait_errorD0Ev
FNDA:0,_ZN9__gnu_cxx24__concurrence_wait_errorD2Ev
FNDA:0,_ZNK9__gnu_cxx24__concurrence_wait_error4whatEv
FNF:12
FNH:0
DA:68,0
DA:72,0
DA:73,0
DA:76,0
DA:80,0
DA:81,0
DA:84,0
DA:88,0
DA:89,0
DA:92,0
DA:96,0
DA:97,0
LF:12
LH:0
end_of_record
SF:/usr/include/c++/4.7.2/ext/new_allocator.h
FN:69,_ZN9__gnu_cxx13new_allocatorISt13_Rb_tree_nodeISt4pairIKSsSt6vectorIdSaIdEEEEEC2Ev
FN:69,_ZN9__gnu_cxx13new_allocatorIcEC2Ev
FN:69,_ZN9__gnu_cxx13new_allocatorIdEC2Ev
FN:71,_ZN9__gnu_cxx13new_allocatorIdEC2ERKS1_
FN:71,_ZN9__gnu_cxx13new_allocatorISsEC2ERKS1_
FN:71,_ZN9__gnu_cxx13new_allocatorISt13_Rb_tree_nodeISt4pairIKSsSt6vectorIdSaIdEEEEEC2ERKS9_
FN:71,_ZN9__gnu_cxx13new_allocatorISt13_Rb_tree_nodeISt4pairIKSsdEEEC2ERKS6_
FN:71,_ZN9__gnu_cxx13new_allocatorIiEC2ERKS1_
FN:71,_ZN9__gnu_cxx13new_allocatorIN8f_config16FeaturePositionsEEC2ERKS3_
FN:71,_ZN9__gnu_cxx13new_allocatorIcEC2ERKS1_
FN:76,_ZN9__gnu_cxx13new_allocatorIiED2Ev
FN:76,_ZN9__gnu_cxx13new_allocatorIN8f_config16FeaturePositionsEED2Ev
FN:76,_ZN9__gnu_cxx13new_allocatorIdED2Ev
FN:76,_ZN9__gnu_cxx13new_allocatorIcED2Ev
FN:76,_ZN9__gnu_cxx13new_allocatorISt13_Rb_tree_nodeISt4pairIKSsSt6vectorIdSaIdEEEEED2Ev
FN:76,_ZN9__gnu_cxx13new_allocatorISt13_Rb_tree_nodeISt4pairIKSsdEEED2Ev
FN:76,_ZN9__gnu_cxx13new_allocatorISsED2Ev
FN:89,_ZN9__gnu_cxx13new_allocatorISsE8allocateEmPKv
FN:89,_ZN9__gnu_cxx13new_allocatorIiE8allocateEmPKv
FN:89,_ZN9__gnu_cxx13new_allocatorISt13_Rb_tree_nodeISt4pairIKSsSt6vectorIdSaIdEEEEE8allocateEmPKv
FN:89,_ZN9__gnu_cxx13new_allocatorISt13_Rb_tree_nodeISt4pairIKSsdEEE8allocateEmPKv
FN:89,_ZN9__gnu_cxx13new_allocatorIN8f_config16FeaturePositionsEE8allocateEmPKv
FN:89,_ZN9__gnu_cxx13new_allocatorIdE8allocateEmPKv
FN:99,_ZN9__gnu_cxx13new_allocatorIdE10deallocateEPdm
FN:99,_ZN9__gnu_cxx13new_allocatorISsE10deallocateEPSsm
FN:99,_ZN9__gnu_cxx13new_allocatorISt13_Rb_tree_nodeISt4pairIKSsSt6vectorIdSaIdEEEEE10deallocateEPS8_m
FN:99,_ZN9__gnu_cxx13new_allocatorIN8f_config16FeaturePositionsEE10deallocateEPS2_m
FN:99,_ZN9__gnu_cxx13new_allocatorISt13_Rb_tree_nodeISt4pairIKSsdEEE10deallocateEPS5_m
FN:99,_ZN9__gnu_cxx13new_allocatorIiE10deallocateEPim
FN:103,_ZNK9__gnu_cxx13new_allocatorISt13_Rb_tree_nodeISt4pairIKSsSt6vectorIdSaIdEEEEE8max_sizeEv
FN:103,_ZNK9__gnu_cxx13new_allocatorIdE8max_sizeEv
FN:103,_ZNK9__gnu_cxx13new_allocatorISsE8max_sizeEv
FN:103,_ZNK9__gnu_cxx13new_allocatorISt13_Rb_tree_nodeISt4pairIKSsdEEE8max_sizeEv
FN:103,_ZNK9__gnu_cxx13new_allocatorIN8f_config16FeaturePositionsEE8max_sizeEv
FN:103,_ZNK9__gnu_cxx13new_allocatorIiE8max_sizeEv
FN:109,_ZN9__gnu_cxx13new_allocatorISt13_Rb_tree_nodeISt4pairIKSsSt6vectorIdSaIdEEEEE9constructIS8_IRKS7_EEEvPT_DpOT0_
FN:109,_ZN9__gnu_cxx13new_allocatorISt13_Rb_tree_nodeISt4pairIKSsSt6vectorIdSaIdEEEEE9constructIS8_IS7_EEEvPT_DpOT0_
FN:109,_ZN9__gnu_cxx13new_allocatorISt13_Rb_tree_nodeISt4pairIKSsdEEE9constructIS5_IRKS4_EEEvPT_DpOT0_
FN:109,_ZN9__gnu_cxx13new_allocatorISt13_Rb_tree_nodeISt4pairIKSsdEEE9constructIS5_IS4_EEEvPT_DpOT0_
FN:114,_ZN9__gnu_cxx13new_allocatorISt13_Rb_tree_nodeISt4pairIKSsdEEE7destroyIS5_EEvPT_
FN:114,_ZN9__gnu_cxx13new_allocatorISt13_Rb_tree_nodeISt4pairIKSsSt6vectorIdSaIdEEEEE7destroyIS8_EEvPT_
FNDA:84,_ZN9__gnu_cxx13new_allocatorISt13_Rb_tree_nodeISt4pairIKSsSt6vectorIdSaIdEEEEEC2Ev
FNDA:4728,_ZN9__gnu_cxx13new_allocatorIdEC2Ev
FNDA:0,_ZN9__gnu_cxx13new_allocatorIcEC2Ev
FNDA:556,_ZN9__gnu_cxx13new_allocatorIiEC2ERKS1_
FNDA:4,_ZN9__gnu_cxx13new_allocatorISt13_Rb_tree_nodeISt4pairIKSsSt6vectorIdSaIdEEEEEC2ERKS9_
FNDA:20048,_ZN9__gnu_cxx13new_allocatorIdEC2ERKS1_
FNDA:36,_ZN9__gnu_cxx13new_allocatorISt13_Rb_tree_nodeISt4pairIKSsdEEEC2ERKS6_
FNDA:152,_ZN9__gnu_cxx13new_allocatorIN8f_config16FeaturePositionsEEC2ERKS3_
FNDA:0,_ZN9__gnu_cxx13new_allocatorISsEC2ERKS1_
FNDA:0,_ZN9__gnu_cxx13new_allocatorIcEC2ERKS1_
FNDA:640,_ZN9__gnu_cxx13new_allocatorIiED2Ev
FNDA:256,_ZN9__gnu_cxx13new_allocatorIN8f_config16FeaturePositionsEED2Ev
FNDA:88,_ZN9__gnu_cxx13new_allocatorISt13_Rb_tree_nodeISt4pairIKSsSt6vectorIdSaIdEEEEED2Ev
FNDA:0,_ZN9__gnu_cxx13new_allocatorISt13_Rb_tree_nodeISt4pairIKSsdEEED2Ev
FNDA:0,_ZN9__gnu_cxx13new_allocatorISsED2Ev
FNDA:24776,_ZN9__gnu_cxx13new_allocatorIdED2Ev
FNDA:0,_ZN9__gnu_cxx13new_allocatorIcED2Ev
FNDA:392,_ZN9__gnu_cxx13new_allocatorIiE8allocateEmPKv
FNDA:2420,_ZN9__gnu_cxx13new_allocatorISt13_Rb_tree_nodeISt4pairIKSsSt6vectorIdSaIdEEEEE8allocateEmPKv
FNDA:0,_ZN9__gnu_cxx13new_allocatorISt13_Rb_tree_nodeISt4pairIKSsdEEE8allocateEmPKv
FNDA:152,_ZN9__gnu_cxx13new_allocatorIN8f_config16FeaturePositionsEE8allocateEmPKv
FNDA:8264,_ZN9__gnu_cxx13new_allocatorIdE8allocateEmPKv
FNDA:0,_ZN9__gnu_cxx13new_allocatorISsE8allocateEmPKv
FNDA:392,_ZN9__gnu_cxx13new_allocatorIiE10deallocateEPim
FNDA:2420,_ZN9__gnu_cxx13new_allocatorISt13_Rb_tree_nodeISt4pairIKSsSt6vectorIdSaIdEEEEE10deallocateEPS8_m
FNDA:0,_ZN9__gnu_cxx13new_allocatorISt13_Rb_tree_nodeISt4pairIKSsdEEE10deallocateEPS5_m
FNDA:152,_ZN9__gnu_cxx13new_allocatorIN8f_config16FeaturePositionsEE10deallocateEPS2_m
FNDA:8264,_ZN9__gnu_cxx13new_allocatorIdE10deallocateEPdm
FNDA:0,_ZN9__gnu_cxx13new_allocatorISsE10deallocateEPSsm
FNDA:616,_ZNK9__gnu_cxx13new_allocatorIiE8max_sizeEv
FNDA:2420,_ZNK9__gnu_cxx13new_allocatorISt13_Rb_tree_nodeISt4pairIKSsSt6vectorIdSaIdEEEEE8max_sizeEv
FNDA:0,_ZNK9__gnu_cxx13new_allocatorISt13_Rb_tree_nodeISt4pairIKSsdEEE8max_sizeEv
FNDA:248,_ZNK9__gnu_cxx13new_allocatorIN8f_config16FeaturePositionsEE8max_sizeEv
FNDA:8280,_ZNK9__gnu_cxx13new_allocatorIdE8max_sizeEv
FNDA:0,_ZNK9__gnu_cxx13new_allocatorISsE8max_sizeEv
FNDA:0,_ZN9__gnu_cxx13new_allocatorISt13_Rb_tree_nodeISt4pairIKSsdEEE9constructIS5_IS4_EEEvPT_DpOT0_
FNDA:988,_ZN9__gnu_cxx13new_allocatorISt13_Rb_tree_nodeISt4pairIKSsSt6vectorIdSaIdEEEEE9constructIS8_IRKS7_EEEvPT_DpOT0_
FNDA:1432,_ZN9__gnu_cxx13new_allocatorISt13_Rb_tree_nodeISt4pairIKSsSt6vectorIdSaIdEEEEE9constructIS8_IS7_EEEvPT_DpOT0_
FNDA:36,_ZN9__gnu_cxx13new_allocatorISt13_Rb_tree_nodeISt4pairIKSsdEEE9constructIS5_IRKS4_EEEvPT_DpOT0_
FNDA:2420,_ZN9__gnu_cxx13new_allocatorISt13_Rb_tree_nodeISt4pairIKSsSt6vectorIdSaIdEEEEE7destroyIS8_EEvPT_
FNDA:0,_ZN9__gnu_cxx13new_allocatorISt13_Rb_tree_nodeISt4pairIKSsdEEE7destroyIS5_EEvPT_
FNF:41
FNH:27
DA:69,4812
DA:71,20796
DA:76,25760
DA:89,11228
DA:91,11228
DA:92,0
DA:94,11228
DA:99,11228
DA:100,11228
DA:103,11564
DA:104,11564
DA:109,2456
DA:110,2456
DA:114,2420
LF:14
LH:13
end_of_record
SF:/usr/include/c++/4.7.2/ext/string_conversions.h
FN:79,_ZN9__gnu_cxx12__to_xstringISscEET_PFiPT0_mPKS2_P13__va_list_tagEmS5_z
FNDA:0,_ZN9__gnu_cxx12__to_xstringISscEET_PFiPT0_mPKS2_P13__va_list_tagEmS5_z
FNF:1
FNH:0
DA:79,0
DA:86,0
DA:89,0
DA:91,0
DA:93,0
DA:95,0
LF:6
LH:0
end_of_record
SF:/usr/include/c++/4.7.2/ext/type_traits.h
FN:150,_ZN9__gnu_cxx17__is_null_pointerIcEEbPT_
FNDA:0,_ZN9__gnu_cxx17__is_null_pointerIcEEbPT_
FNF:1
FNH:0
DA:150,0
DA:151,0
LF:2
LH:0
end_of_record
SF:/usr/include/c++/4.7.2/iostream
DA:75,4
LF:1
LH:1
end_of_record
SF:/usr/include/c++/4.7.2/new
FN:111,_ZnwmPv
FN:117,_ZdlPvS_
FNDA:0,_ZnwmPv
FNDA:0,_ZdlPvS_
FNF:2
FNH:0
DA:111,0
DA:112,0
DA:117,0
LF:3
LH:0
end_of_record
SF:/usr/include/c++/4.7.2/x86_64-redhat-linux/bits/gthr-default.h
FN:259,_ZL18__gthread_active_pv
FNDA:0,_ZL18__gthread_active_pv
FNF:1
FNH:0
DA:259,0
DA:270,0
LF:2
LH:0
end_of_record
SF:/home/joanna/cmbi/kman/src/f_config.h
FN:11,_ZN8f_config16FeaturePositionsD2Ev
FN:11,_ZN8f_config16FeaturePositionsC2ERKS0_
FN:30,_ZN8f_config15FeatureSettingsD2Ev
FN:30,_ZN8f_config15FeatureSettingsC2ERKS0_
FNDA:344,_ZN8f_config16FeaturePositionsD2Ev
FNDA:264,_ZN8f_config16FeaturePositionsC2ERKS0_
FNDA:112,_ZN8f_config15FeatureSettingsD2Ev
FNDA:0,_ZN8f_config15FeatureSettingsC2ERKS0_
FNF:4
FNH:3
DA:11,608
DA:30,112
LF:2
LH:2
end_of_record
SF:/home/joanna/cmbi/kman/src/feature_scores.cpp
FN:8,_ZN13FeatureScoresC2ESt6vectorISsSaISsEEiiiSt3mapISsdSt4lessISsESaISt4pairIKSsdEEE
FN:19,_ZN13FeatureScores13update_scoresERKSt6vectorIN5fasta8SequenceESaIS2_EERKSt3mapISsN8f_config15FeatureSettingsESt4lessISsESaISt4pairIKSsS9_EEE
FN:53,_ZN13FeatureScores17update_occurencesERKSt6vectorIN5fasta8SequenceESaIS2_EE
FN:71,_ZN13FeatureScores9score_ptmEmSs
FN:124,_ZN13FeatureScores12score_domainEmSs
FN:139,_ZN13FeatureScores11score_motifEmSs
FN:148,_ZN13FeatureScores17score_usr_featureEmSsN8f_config15FeatureSettingsE
FN:168,_ZN13FeatureScores10get_scoresEv
FN:172,_ZNK13FeatureScores9get_scoreERKSsm
FN:175,_Z41__static_initialization_and_destruction_0ii
FN:175,_GLOBAL__sub_I__ZN13FeatureScoresC2ESt6vectorISsSaISsEEiiiSt3mapISsdSt4lessISsESaISt4pairIKSsdEEE
FNDA:16,_ZN13FeatureScoresC2ESt6vectorISsSaISsEEiiiSt3mapISsdSt4lessISsESaISt4pairIKSsdEEE
FNDA:24,_ZN13FeatureScores13update_scoresERKSt6vectorIN5fasta8SequenceESaIS2_EERKSt3mapISsN8f_config15FeatureSettingsESt4lessISsESaISt4pairIKSsS9_EEE
FNDA:24,_ZN13FeatureScores17update_occurencesERKSt6vectorIN5fasta8SequenceESaIS2_EE
FNDA:4988,_ZN13FeatureScores9score_ptmEmSs
FNDA:32,_ZN13FeatureScores12score_domainEmSs
FNDA:48,_ZN13FeatureScores11score_motifEmSs
FNDA:0,_ZN13FeatureScores17score_usr_featureEmSsN8f_config15FeatureSettingsE
FNDA:4,_ZN13FeatureScores10get_scoresEv
FNDA:144,_ZNK13FeatureScores9get_scoreERKSsm
FNDA:4,_GLOBAL__sub_I__ZN13FeatureScoresC2ESt6vectorISsSaISsEEiiiSt3mapISsdSt4lessISsESaISt4pairIKSsdEEE
FNDA:4,_Z41__static_initialization_and_destruction_0ii
FNF:11
FNH:10
DA:8,16
DA:15,16
DA:16,16
DA:19,24
DA:21,24
DA:23,740
DA:24,716
DA:25,5784
DA:26,5068
DA:27,5068
DA:31,24
DA:32,740
DA:33,716
DA:35,196
DA:36,5240
DA:37,5068
DA:38,4988
DA:39,80
DA:40,32
DA:41,48
DA:42,48
DA:44,0
DA:45,0
DA:49,24
DA:50,24
DA:53,24
DA:55,24
DA:56,740
DA:57,716
DA:59,196
DA:60,440
DA:61,388
DA:62,120
DA:63,120
DA:67,24
DA:71,4988
DA:73,4988
DA:74,4988
DA:76,4988
DA:78,4988
DA:79,4988
DA:81,4988
DA:82,1204
DA:83,3784
DA:84,1204
DA:85,2580
DA:86,1204
DA:87,1376
DA:88,1204
DA:89,172
DA:90,172
DA:94,0
DA:95,0
DA:97,455880
DA:98,303920
DA:99,146972
DA:100,146972
DA:103,146972
DA:104,146972
DA:105,20812
DA:106,20812
DA:107,4988
DA:108,15824
DA:109,4988
DA:110,10836
DA:111,4988
DA:112,5848
DA:113,4988
DA:114,860
DA:115,860
DA:118,146972
DA:119,4988
DA:120,4988
DA:124,32
DA:126,32
DA:127,3360
DA:128,2240
DA:129,1088
DA:130,32
DA:131,1056
DA:132,32
DA:135,32
DA:139,48
DA:141,48
DA:142,48
DA:143,48
DA:144,48
DA:148,0
DA:151,0
DA:153,0
DA:154,0
DA:155,0
DA:156,0
DA:159,0
DA:160,0
DA:161,0
DA:162,0
DA:164,0
DA:168,4
DA:169,4
DA:172,144
DA:174,144
DA:175,12
LF:103
LH:88
end_of_record
TN:
SF:/home/joanna/include/boost/core/checked_delete.hpp
FN:29,_ZN5boost14checked_deleteINS_10filesystem6detail17recur_dir_itr_impEEEvPT_
FN:29,_ZN5boost14checked_deleteINS_10filesystem16filesystem_error5m_impEEEvPT_
FN:29,_ZN5boost14checked_deleteINS_10filesystem6detail11dir_itr_impEEEvPT_
FNDA:0,_ZN5boost14checked_deleteINS_10filesystem16filesystem_error5m_impEEEvPT_
FNDA:0,_ZN5boost14checked_deleteINS_10filesystem6detail17recur_dir_itr_impEEEvPT_
FNDA:0,_ZN5boost14checked_deleteINS_10filesystem6detail11dir_itr_impEEEvPT_
FNF:3
FNH:0
DA:29,0
DA:34,0
DA:35,0
LF:3
LH:0
end_of_record
SF:/home/joanna/include/boost/exception/exception.hpp
FN:27,_ZN5boost16exception_detail12refcount_ptrINS0_20error_info_containerEEC2Ev
FN:32,_ZN5boost16exception_detail12refcount_ptrINS0_20error_info_containerEED2Ev
FN:37,_ZN5boost16exception_detail12refcount_ptrINS0_20error_info_containerEEC2ERKS3_
FN:44,_ZN5boost16exception_detail12refcount_ptrINS0_20error_info_containerEEaSERKS3_
FN:51,_ZN5boost16exception_detail12refcount_ptrINS0_20error_info_containerEE5adoptEPS2_
FN:59,_ZNK5boost16exception_detail12refcount_ptrINS0_20error_info_containerEE3getEv
FN:69,_ZN5boost16exception_detail12refcount_ptrINS0_20error_info_containerEE7add_refEv
FN:76,_ZN5boost16exception_detail12refcount_ptrINS0_20error_info_containerEE7releaseEv
FN:208,_ZN5boost9exceptionC2ERKS0_
FN:281,_ZN5boost9exceptionD0Ev
FN:281,_ZN5boost9exceptionD2Ev
FN:326,_ZN5boost16exception_detail19error_info_injectorINS_12bad_weak_ptrEEC2ERKS3_
FN:336,_ZN5boost16exception_detail19error_info_injectorINS_12bad_weak_ptrEED0Ev
FN:336,_ZN5boost16exception_detail19error_info_injectorINS_12bad_weak_ptrEED2Ev
FN:398,_ZN5boost16exception_detail10clone_baseC2ERKS1_
FN:398,_ZN5boost16exception_detail10clone_baseC2Ev
FN:406,_ZN5boost16exception_detail10clone_baseD2Ev
FN:406,_ZN5boost16exception_detail10clone_baseD0Ev
FN:418,_ZN5boost16exception_detail20copy_boost_exceptionEPNS_9exceptionEPKS1_
FN:437,_ZN5boost16exception_detail10clone_implINS0_19error_info_injectorINS_12bad_weak_ptrEEEEC1ERKS5_
FN:442,_ZN5boost16exception_detail10clone_implINS0_19error_info_injectorINS_12bad_weak_ptrEEEEC1ERKS5_NS5_9clone_tagE
FN:457,_ZN5boost16exception_detail10clone_implINS0_19error_info_injectorINS_12bad_weak_ptrEEEED0Ev
FN:457,_ZN5boost16exception_detail10clone_implINS0_19error_info_injectorINS_12bad_weak_ptrEEEED1Ev
FN:464,_ZNK5boost16exception_detail10clone_implINS0_19error_info_injectorINS_12bad_weak_ptrEEEE5cloneEv
FN:470,_ZNK5boost16exception_detail10clone_implINS0_19error_info_injectorINS_12bad_weak_ptrEEEE7rethrowEv
FNDA:0,_ZN5boost16exception_detail12refcount_ptrINS0_20error_info_containerEEC2Ev
FNDA:0,_ZN5boost16exception_detail12refcount_ptrINS0_20error_info_containerEED2Ev
FNDA:0,_ZN5boost16exception_detail12refcount_ptrINS0_20error_info_containerEEC2ERKS3_
FNDA:0,_ZN5boost16exception_detail12refcount_ptrINS0_20error_info_containerEEaSERKS3_
FNDA:0,_ZN5boost16exception_detail12refcount_ptrINS0_20error_info_containerEE5adoptEPS2_
FNDA:0,_ZNK5boost16exception_detail12refcount_ptrINS0_20error_info_containerEE3getEv
FNDA:0,_ZN5boost16exception_detail12refcount_ptrINS0_20error_info_containerEE7add_refEv
FNDA:0,_ZN5boost16exception_detail12refcount_ptrINS0_20error_info_containerEE7releaseEv
FNDA:0,_ZN5boost9exceptionC2ERKS0_
FNDA:0,_ZN5boost9exceptionD0Ev
FNDA:0,_ZN5boost9exceptionD2Ev
FNDA:0,_ZN5boost16exception_detail19error_info_injectorINS_12bad_weak_ptrEEC2ERKS3_
FNDA:0,_ZN5boost16exception_detail19error_info_injectorINS_12bad_weak_ptrEED0Ev
FNDA:0,_ZN5boost16exception_detail19error_info_injectorINS_12bad_weak_ptrEED2Ev
FNDA:0,_ZN5boost16exception_detail10clone_baseC2Ev
FNDA:0,_ZN5boost16exception_detail10clone_baseC2ERKS1_
FNDA:0,_ZN5boost16exception_detail10clone_baseD0Ev
FNDA:0,_ZN5boost16exception_detail10clone_baseD2Ev
FNDA:0,_ZN5boost16exception_detail20copy_boost_exceptionEPNS_9exceptionEPKS1_
FNDA:0,_ZN5boost16exception_detail10clone_implINS0_19error_info_injectorINS_12bad_weak_ptrEEEEC1ERKS5_
FNDA:0,_ZN5boost16exception_detail10clone_implINS0_19error_info_injectorINS_12bad_weak_ptrEEEEC1ERKS5_NS5_9clone_tagE
FNDA:0,_ZN5boost16exception_detail10clone_implINS0_19error_info_injectorINS_12bad_weak_ptrEEEED0Ev
FNDA:0,_ZN5boost16exception_detail10clone_implINS0_19error_info_injectorINS_12bad_weak_ptrEEEED1Ev
FNDA:0,_ZNK5boost16exception_detail10clone_implINS0_19error_info_injectorINS_12bad_weak_ptrEEEE5cloneEv
FNDA:0,_ZNK5boost16exception_detail10clone_implINS0_19error_info_injectorINS_12bad_weak_ptrEEEE7rethrowEv
FNF:25
FNH:0
DA:27,0
DA:28,0
DA:30,0
DA:32,0
DA:34,0
DA:35,0
DA:37,0
DA:38,0
DA:40,0
DA:41,0
DA:44,0
DA:46,0
DA:47,0
DA:51,0
DA:53,0
DA:54,0
DA:55,0
DA:56,0
DA:59,0
DA:61,0
DA:69,0
DA:71,0
DA:72,0
DA:73,0
DA:76,0
DA:78,0
DA:79,0
DA:80,0
DA:208,0
DA:281,0
DA:282,0
DA:284,0
DA:326,0
DA:336,0
DA:338,0
DA:398,0
DA:406,0
DA:407,0
DA:408,0
DA:418,0
DA:420,0
DA:421,0
DA:422,0
DA:423,0
DA:424,0
DA:425,0
DA:426,0
DA:427,0
DA:437,0
DA:442,0
DA:443,0
DA:445,0
DA:446,0
DA:457,0
DA:459,0
DA:464,0
DA:466,0
DA:470,0
DA:472,0
LF:59
LH:0
end_of_record
SF:/home/joanna/include/boost/filesystem/operations.hpp
FN:114,_ZN5boost10filesystem16filesystem_errorD2Ev
FN:114,_ZN5boost10filesystem16filesystem_errorD0Ev
FN:127,_ZNK5boost10filesystem16filesystem_error4whatEv
FN:159,_ZN5boost10filesystem16filesystem_error5m_impD2Ev
FN:683,_ZN5boost10filesystem15directory_entryD2Ev
FN:769,_ZN5boost10filesystem6detail11dir_itr_impD2Ev
FN:812,_ZN5boost10filesystem18directory_iteratorD2Ev
FN:898,_ZN5boost10filesystem6detail17recur_dir_itr_impD2Ev
FNDA:0,_ZN5boost10filesystem16filesystem_errorD0Ev
FNDA:0,_ZN5boost10filesystem16filesystem_errorD2Ev
FNDA:0,_ZNK5boost10filesystem16filesystem_error4whatEv
FNDA:0,_ZN5boost10filesystem16filesystem_error5m_impD2Ev
FNDA:0,_ZN5boost10filesystem15directory_entryD2Ev
FNDA:0,_ZN5boost10filesystem6detail11dir_itr_impD2Ev
FNDA:0,_ZN5boost10filesystem18directory_iteratorD2Ev
FNDA:0,_ZN5boost10filesystem6detail17recur_dir_itr_impD2Ev
FNF:8
FNH:0
DA:114,0
DA:127,0
DA:129,0
DA:130,0
DA:134,0
DA:136,0
DA:137,0
DA:139,0
DA:140,0
DA:141,0
DA:143,0
DA:145,0
DA:146,0
DA:147,0
DA:150,0
DA:152,0
DA:154,0
DA:159,0
DA:683,0
DA:769,0
DA:770,0
DA:775,0
DA:776,0
DA:812,0
DA:898,0
LF:25
LH:0
end_of_record
SF:/home/joanna/include/boost/filesystem/path.hpp
FN:55,_ZN5boost10filesystem4pathD2Ev
FN:419,_ZNK5boost10filesystem4path6stringEv
FN:484,_ZNK5boost10filesystem4path5emptyEv
FNDA:0,_ZN5boost10filesystem4pathD2Ev
FNDA:0,_ZNK5boost10filesystem4path6stringEv
FNDA:0,_ZNK5boost10filesystem4path5emptyEv
FNF:3
FNH:0
DA:55,0
DA:419,0
DA:484,0
LF:3
LH:0
end_of_record
SF:/home/joanna/include/boost/smart_ptr/bad_weak_ptr.hpp
FN:39,_ZN5boost12bad_weak_ptrD2Ev
FN:39,_ZN5boost12bad_weak_ptrD0Ev
FN:39,_ZN5boost12bad_weak_ptrC2ERKS0_
FN:43,_ZNK5boost12bad_weak_ptr4whatEv
FNDA:0,_ZN5boost12bad_weak_ptrD0Ev
FNDA:0,_ZN5boost12bad_weak_ptrD2Ev
FNDA:0,_ZN5boost12bad_weak_ptrC2ERKS0_
FNDA:0,_ZNK5boost12bad_weak_ptr4whatEv
FNF:4
FNH:0
DA:39,0
DA:43,0
DA:45,0
LF:3
LH:0
end_of_record
SF:/home/joanna/include/boost/smart_ptr/detail/shared_count.hpp
FN:441,_ZN5boost6detail12shared_countD2Ev
FNDA:0,_ZN5boost6detail12shared_countD2Ev
FNF:1
FNH:0
DA:441,0
DA:443,0
DA:447,0
LF:3
LH:0
end_of_record
SF:/home/joanna/include/boost/smart_ptr/detail/sp_counted_base_gcc_x86.hpp
FN:35,_ZN5boost6detail23atomic_exchange_and_addEPii
FN:113,_ZN5boost6detail15sp_counted_baseD2Ev
FN:113,_ZN5boost6detail15sp_counted_baseD0Ev
FN:124,_ZN5boost6detail15sp_counted_base7destroyEv
FN:142,_ZN5boost6detail15sp_counted_base7releaseEv
FN:156,_ZN5boost6detail15sp_counted_base12weak_releaseEv
FNDA:0,_ZN5boost6detail23atomic_exchange_and_addEPii
FNDA:0,_ZN5boost6detail15sp_counted_baseD0Ev
FNDA:0,_ZN5boost6detail15sp_counted_baseD2Ev
FNDA:0,_ZN5boost6detail15sp_counted_base7destroyEv
FNDA:0,_ZN5boost6detail15sp_counted_base7releaseEv
FNDA:0,_ZN5boost6detail15sp_counted_base12weak_releaseEv
FNF:6
FNH:0
DA:35,0
DA:50,0
DA:52,0
DA:113,0
DA:114,0
DA:115,0
DA:124,0
DA:126,0
DA:127,0
DA:142,0
DA:144,0
DA:146,0
DA:147,0
DA:149,0
DA:156,0
DA:158,0
DA:160,0
DA:162,0
LF:18
LH:0
end_of_record
SF:/home/joanna/include/boost/smart_ptr/detail/sp_counted_impl.hpp
FN:53,_ZN5boost6detail17sp_counted_impl_pINS_10filesystem16filesystem_error5m_impEED0Ev
FN:53,_ZN5boost6detail17sp_counted_impl_pINS_10filesystem6detail11dir_itr_impEED2Ev
FN:53,_ZN5boost6detail17sp_counted_impl_pINS_10filesystem6detail17recur_dir_itr_impEED0Ev
FN:53,_ZN5boost6detail17sp_counted_impl_pINS_10filesystem16filesystem_error5m_impEED2Ev
FN:53,_ZN5boost6detail17sp_counted_impl_pINS_10filesystem6detail17recur_dir_itr_impEED2Ev
FN:53,_ZN5boost6detail17sp_counted_impl_pINS_10filesystem6detail11dir_itr_impEED0Ev
FN:73,_ZN5boost6detail17sp_counted_impl_pINS_10filesystem16filesystem_error5m_impEE7disposeEv
FN:73,_ZN5boost6detail17sp_counted_impl_pINS_10filesystem6detail11dir_itr_impEE7disposeEv
FN:73,_ZN5boost6detail17sp_counted_impl_pINS_10filesystem6detail17recur_dir_itr_impEE7disposeEv
FN:81,_ZN5boost6detail17sp_counted_impl_pINS_10filesystem6detail11dir_itr_impEE11get_deleterERKSt9type_info
FN:81,_ZN5boost6detail17sp_counted_impl_pINS_10filesystem6detail17recur_dir_itr_impEE11get_deleterERKSt9type_info
FN:81,_ZN5boost6detail17sp_counted_impl_pINS_10filesystem16filesystem_error5m_impEE11get_deleterERKSt9type_info
FN:86,_ZN5boost6detail17sp_counted_impl_pINS_10filesystem6detail17recur_dir_itr_impEE19get_untyped_deleterEv
FN:86,_ZN5boost6detail17sp_counted_impl_pINS_10filesystem16filesystem_error5m_impEE19get_untyped_deleterEv
FN:86,_ZN5boost6detail17sp_counted_impl_pINS_10filesystem6detail11dir_itr_impEE19get_untyped_deleterEv
FNDA:0,_ZN5boost6detail17sp_counted_impl_pINS_10filesystem6detail11dir_itr_impEED0Ev
FNDA:0,_ZN5boost6detail17sp_counted_impl_pINS_10filesystem6detail11dir_itr_impEED2Ev
FNDA:0,_ZN5boost6detail17sp_counted_impl_pINS_10filesystem6detail17recur_dir_itr_impEED0Ev
FNDA:0,_ZN5boost6detail17sp_counted_impl_pINS_10filesystem6detail17recur_dir_itr_impEED2Ev
FNDA:0,_ZN5boost6detail17sp_counted_impl_pINS_10filesystem16filesystem_error5m_impEED0Ev
FNDA:0,_ZN5boost6detail17sp_counted_impl_pINS_10filesystem16filesystem_error5m_impEED2Ev
FNDA:0,_ZN5boost6detail17sp_counted_impl_pINS_10filesystem6detail11dir_itr_impEE7disposeEv
FNDA:0,_ZN5boost6detail17sp_counted_impl_pINS_10filesystem6detail17recur_dir_itr_impEE7disposeEv
FNDA:0,_ZN5boost6detail17sp_counted_impl_pINS_10filesystem16filesystem_error5m_impEE7disposeEv
FNDA:0,_ZN5boost6detail17sp_counted_impl_pINS_10filesystem6detail11dir_itr_impEE11get_deleterERKSt9type_info
FNDA:0,_ZN5boost6detail17sp_counted_impl_pINS_10filesystem6detail17recur_dir_itr_impEE11get_deleterERKSt9type_info
FNDA:0,_ZN5boost6detail17sp_counted_impl_pINS_10filesystem16filesystem_error5m_impEE11get_deleterERKSt9type_info
FNDA:0,_ZN5boost6detail17sp_counted_impl_pINS_10filesystem6detail11dir_itr_impEE19get_untyped_deleterEv
FNDA:0,_ZN5boost6detail17sp_counted_impl_pINS_10filesystem6detail17recur_dir_itr_impEE19get_untyped_deleterEv
FNDA:0,_ZN5boost6detail17sp_counted_impl_pINS_10filesystem16filesystem_error5m_impEE19get_untyped_deleterEv
FNF:15
FNH:0
DA:53,0
DA:73,0
DA:78,0
DA:79,0
DA:81,0
DA:83,0
DA:86,0
DA:88,0
LF:8
LH:0
end_of_record
SF:/home/joanna/include/boost/smart_ptr/shared_ptr.hpp
FN:323,_ZN5boost10shared_ptrINS_10filesystem16filesystem_error5m_impEED2Ev
FN:323,_ZN5boost10shared_ptrINS_10filesystem6detail11dir_itr_impEED2Ev
FN:646,_ZNK5boost10shared_ptrINS_10filesystem16filesystem_error5m_impEEptEv
FN:661,_ZNK5boost10shared_ptrINS_10filesystem16filesystem_error5m_impEE3getEv
FNDA:0,_ZN5boost10shared_ptrINS_10filesystem6detail11dir_itr_impEED2Ev
FNDA:0,_ZN5boost10shared_ptrINS_10filesystem16filesystem_error5m_impEED2Ev
FNDA:0,_ZNK5boost10shared_ptrINS_10filesystem16filesystem_error5m_impEEptEv
FNDA:0,_ZNK5boost10shared_ptrINS_10filesystem16filesystem_error5m_impEE3getEv
FNF:4
FNH:0
DA:323,0
DA:646,0
DA:648,0
DA:649,0
DA:661,0
DA:663,0
LF:6
LH:0
end_of_record
SF:/home/joanna/include/boost/system/error_code.hpp
FN:188,_ZN5boost6system14error_categoryD2Ev
FN:188,_ZN5boost6system14error_categoryD0Ev
FN:198,_ZNK5boost6system14error_categoryeqERKS1_
FN:236,_ZN5boost6system15error_conditionC2EiRKNS0_14error_categoryE
FN:288,_ZN5boost6systemeqERKNS0_15error_conditionES3_
FN:354,_ZNK5boost6system10error_code5valueEv
FN:355,_ZNK5boost6system10error_code8categoryEv
FN:357,_ZNK5boost6system10error_code7messageEv
FN:492,_ZNK5boost6system14error_category23default_error_conditionEi
FN:497,_ZNK5boost6system14error_category10equivalentEiRKNS0_15error_conditionE
FN:503,_ZNK5boost6system14error_category10equivalentERKNS0_10error_codeEi
FNDA:0,_ZN5boost6system14error_categoryD0Ev
FNDA:0,_ZN5boost6system14error_categoryD2Ev
FNDA:0,_ZNK5boost6system14error_categoryeqERKS1_
FNDA:0,_ZN5boost6system15error_conditionC2EiRKNS0_14error_categoryE
FNDA:0,_ZN5boost6systemeqERKNS0_15error_conditionES3_
FNDA:0,_ZNK5boost6system10error_code5valueEv
FNDA:0,_ZNK5boost6system10error_code8categoryEv
FNDA:0,_ZNK5boost6system10error_code7messageEv
FNDA:0,_ZNK5boost6system14error_category23default_error_conditionEi
FNDA:0,_ZNK5boost6system14error_category10equivalentEiRKNS0_15error_conditionE
FNDA:0,_ZNK5boost6system14error_category10equivalentERKNS0_10error_codeEi
FNF:11
FNH:0
DA:188,0
DA:198,0
DA:221,4
DA:222,4
DA:223,4
DA:236,0
DA:288,0
DA:291,0
DA:354,0
DA:355,0
DA:357,0
DA:492,0
DA:494,0
DA:497,0
DA:500,0
DA:503,0
DA:506,0
LF:17
LH:3
end_of_record
SF:/home/joanna/include/boost/system/system_error.hpp
FN:47,_ZN5boost6system12system_errorD2Ev
FN:47,_ZN5boost6system12system_errorD0Ev
FN:59,_ZNK5boost6system12system_error4whatEv
FNDA:0,_ZN5boost6system12system_errorD0Ev
FNDA:0,_ZN5boost6system12system_errorD2Ev
FNDA:0,_ZNK5boost6system12system_error4whatEv
FNF:3
FNH:0
DA:47,0
DA:59,0
DA:62,0
DA:68,0
DA:69,0
DA:70,0
DA:73,0
DA:76,0
LF:8
LH:0
end_of_record
SF:/usr/include/c++/4.7.2/bits/alloc_traits.h
FN:252,_ZNSt16allocator_traitsISaIN5fasta7ResidueEEE12_S_constructIS1_IRKS1_EEENSt9enable_ifIXsrNS3_18__construct_helperIT_IDpT0_EEE5valueEvE4typeERS2_PS9_DpOSA_
FN:252,_ZNSt16allocator_traitsISaIN5fasta8SequenceEEE12_S_constructIS1_IRKS1_EEENSt9enable_ifIXsrNS3_18__construct_helperIT_IDpT0_EEE5valueEvE4typeERS2_PS9_DpOSA_
FN:252,_ZNSt16allocator_traitsISaIdEE12_S_constructIdIRKdEEENSt9enable_ifIXsrNS1_18__construct_helperIT_IDpT0_EEE5valueEvE4typeERS0_PS7_DpOS8_
FN:278,_ZNSt16allocator_traitsISaIN5fasta7ResidueEEE10_S_destroyIS1_EENSt9enable_ifIXsrNS3_16__destroy_helperIT_EE5valueEvE4typeERS2_PS7_
FN:278,_ZNSt16allocator_traitsISaIN5fasta8SequenceEEE10_S_destroyIS1_EENSt9enable_ifIXsrNS3_16__destroy_helperIT_EE5valueEvE4typeERS2_PS7_
FN:278,_ZNSt16allocator_traitsISaIdEE10_S_destroyIdEENSt9enable_ifIXsrNS1_16__destroy_helperIT_EE5valueEvE4typeERS0_PS5_
FN:303,_ZNSt16allocator_traitsISaIN5fasta8SequenceEEE11_S_max_sizeIKS2_EENSt9enable_ifIXsrNS3_16__maxsize_helperIT_EE5valueEmE4typeERS8_
FN:303,_ZNSt16allocator_traitsISaIN5fasta7ResidueEEE11_S_max_sizeIKS2_EENSt9enable_ifIXsrNS3_16__maxsize_helperIT_EE5valueEmE4typeERS8_
FN:303,_ZNSt16allocator_traitsISaIdEE11_S_max_sizeIKS0_EENSt9enable_ifIXsrNS1_16__maxsize_helperIT_EE5valueEmE4typeERS6_
FN:335,_ZNSt16allocator_traitsISaIN5fasta8SequenceEEE9_S_selectIKS2_EENSt9enable_ifIXntsrNS3_15__select_helperIT_EE5valueES8_E4typeERS8_
FN:335,_ZNSt16allocator_traitsISaIN5fasta7ResidueEEE9_S_selectIKS2_EENSt9enable_ifIXntsrNS3_15__select_helperIT_EE5valueES8_E4typeERS8_
FN:335,_ZNSt16allocator_traitsISaISsEE9_S_selectIKS0_EENSt9enable_ifIXntsrNS1_15__select_helperIT_EE5valueES6_E4typeERS6_
FN:389,_ZNSt16allocator_traitsISaIdEE9constructIdIRKdEEEvRS0_PT_DpOT0_
FN:389,_ZNSt16allocator_traitsISaIN5fasta8SequenceEEE9constructIS1_IRKS1_EEEvRS2_PT_DpOT0_
FN:389,_ZNSt16allocator_traitsISaIN5fasta7ResidueEEE9constructIS1_IRKS1_EEEvRS2_PT_DpOT0_
FN:401,_ZNSt16allocator_traitsISaIN5fasta8SequenceEEE7destroyIS1_EEvRS2_PT_
FN:401,_ZNSt16allocator_traitsISaIN5fasta7ResidueEEE7destroyIS1_EEvRS2_PT_
FN:401,_ZNSt16allocator_traitsISaIdEE7destroyIdEEvRS0_PT_
FN:412,_ZNSt16allocator_traitsISaIN5fasta7ResidueEEE8max_sizeERKS2_
FN:412,_ZNSt16allocator_traitsISaIN5fasta8SequenceEEE8max_sizeERKS2_
FN:412,_ZNSt16allocator_traitsISaIdEE8max_sizeERKS0_
FN:424,_ZNSt16allocator_traitsISaIN5fasta7ResidueEEE37select_on_container_copy_constructionERKS2_
FN:424,_ZNSt16allocator_traitsISaIN5fasta8SequenceEEE37select_on_container_copy_constructionERKS2_
FN:424,_ZNSt16allocator_traitsISaISsEE37select_on_container_copy_constructionERKS0_
FN:479,_ZSt18__do_alloc_on_moveISaIN5fasta8SequenceEEEvRT_S4_St17integral_constantIbLb0EE
FN:479,_ZSt18__do_alloc_on_moveISaIdEEvRT_S2_St17integral_constantIbLb0EE
FN:479,_ZSt18__do_alloc_on_moveISaISt6vectorIN5fasta8SequenceESaIS2_EEEEvRT_S7_St17integral_constantIbLb0EE
FN:483,_ZSt15__alloc_on_moveISaISt6vectorIN5fasta8SequenceESaIS2_EEEEvRT_S7_
FN:483,_ZSt15__alloc_on_moveISaIdEEvRT_S2_
FN:483,_ZSt15__alloc_on_moveISaIN5fasta8SequenceEEEvRT_S4_
FNDA:16,_ZNSt16allocator_traitsISaIN5fasta8SequenceEEE12_S_constructIS1_IRKS1_EEENSt9enable_ifIXsrNS3_18__construct_helperIT_IDpT0_EEE5valueEvE4typeERS2_PS9_DpOSA_
FNDA:0,_ZNSt16allocator_traitsISaIN5fasta7ResidueEEE12_S_constructIS1_IRKS1_EEENSt9enable_ifIXsrNS3_18__construct_helperIT_IDpT0_EEE5valueEvE4typeERS2_PS9_DpOSA_
FNDA:8,_ZNSt16allocator_traitsISaIdEE12_S_constructIdIRKdEEENSt9enable_ifIXsrNS1_18__construct_helperIT_IDpT0_EEE5valueEvE4typeERS0_PS7_DpOS8_
FNDA:0,_ZNSt16allocator_traitsISaIN5fasta8SequenceEEE10_S_destroyIS1_EENSt9enable_ifIXsrNS3_16__destroy_helperIT_EE5valueEvE4typeERS2_PS7_
FNDA:0,_ZNSt16allocator_traitsISaIN5fasta7ResidueEEE10_S_destroyIS1_EENSt9enable_ifIXsrNS3_16__destroy_helperIT_EE5valueEvE4typeERS2_PS7_
FNDA:0,_ZNSt16allocator_traitsISaIdEE10_S_destroyIdEENSt9enable_ifIXsrNS1_16__destroy_helperIT_EE5valueEvE4typeERS0_PS5_
FNDA:0,_ZNSt16allocator_traitsISaIN5fasta8SequenceEEE11_S_max_sizeIKS2_EENSt9enable_ifIXsrNS3_16__maxsize_helperIT_EE5valueEmE4typeERS8_
FNDA:0,_ZNSt16allocator_traitsISaIN5fasta7ResidueEEE11_S_max_sizeIKS2_EENSt9enable_ifIXsrNS3_16__maxsize_helperIT_EE5valueEmE4typeERS8_
FNDA:16,_ZNSt16allocator_traitsISaIdEE11_S_max_sizeIKS0_EENSt9enable_ifIXsrNS1_16__maxsize_helperIT_EE5valueEmE4typeERS6_
FNDA:88,_ZNSt16allocator_traitsISaIN5fasta8SequenceEEE9_S_selectIKS2_EENSt9enable_ifIXntsrNS3_15__select_helperIT_EE5valueES8_E4typeERS8_
FNDA:0,_ZNSt16allocator_traitsISaIN5fasta7ResidueEEE9_S_selectIKS2_EENSt9enable_ifIXntsrNS3_15__select_helperIT_EE5valueES8_E4typeERS8_
FNDA:0,_ZNSt16allocator_traitsISaISsEE9_S_selectIKS0_EENSt9enable_ifIXntsrNS1_15__select_helperIT_EE5valueES6_E4typeERS6_
FNDA:16,_ZNSt16allocator_traitsISaIN5fasta8SequenceEEE9constructIS1_IRKS1_EEEvRS2_PT_DpOT0_
FNDA:0,_ZNSt16allocator_traitsISaIN5fasta7ResidueEEE9constructIS1_IRKS1_EEEvRS2_PT_DpOT0_
FNDA:8,_ZNSt16allocator_traitsISaIdEE9constructIdIRKdEEEvRS0_PT_DpOT0_
FNDA:0,_ZNSt16allocator_traitsISaIN5fasta8SequenceEEE7destroyIS1_EEvRS2_PT_
FNDA:0,_ZNSt16allocator_traitsISaIN5fasta7ResidueEEE7destroyIS1_EEvRS2_PT_
FNDA:0,_ZNSt16allocator_traitsISaIdEE7destroyIdEEvRS0_PT_
FNDA:0,_ZNSt16allocator_traitsISaIN5fasta8SequenceEEE8max_sizeERKS2_
FNDA:0,_ZNSt16allocator_traitsISaIN5fasta7ResidueEEE8max_sizeERKS2_
FNDA:16,_ZNSt16allocator_traitsISaIdEE8max_sizeERKS0_
FNDA:88,_ZNSt16allocator_traitsISaIN5fasta8SequenceEEE37select_on_container_copy_constructionERKS2_
FNDA:0,_ZNSt16allocator_traitsISaIN5fasta7ResidueEEE37select_on_container_copy_constructionERKS2_
FNDA:0,_ZNSt16allocator_traitsISaISsEE37select_on_container_copy_constructionERKS0_
FNDA:0,_ZSt18__do_alloc_on_moveISaIN5fasta8SequenceEEEvRT_S4_St17integral_constantIbLb0EE
FNDA:0,_ZSt18__do_alloc_on_moveISaISt6vectorIN5fasta8SequenceESaIS2_EEEEvRT_S7_St17integral_constantIbLb0EE
FNDA:0,_ZSt18__do_alloc_on_moveISaIdEEvRT_S2_St17integral_constantIbLb0EE
FNDA:0,_ZSt15__alloc_on_moveISaIN5fasta8SequenceEEEvRT_S4_
FNDA:0,_ZSt15__alloc_on_moveISaISt6vectorIN5fasta8SequenceESaIS2_EEEEvRT_S7_
FNDA:0,_ZSt15__alloc_on_moveISaIdEEvRT_S2_
FNF:30
FNH:8
DA:252,24
DA:253,24
DA:278,0
DA:279,0
DA:303,16
DA:304,16
DA:335,88
DA:336,88
DA:389,24
DA:390,24
DA:401,0
DA:402,0
DA:412,16
DA:413,16
DA:424,88
DA:425,88
DA:479,0
DA:480,0
DA:483,0
DA:487,0
DA:488,0
LF:21
LH:12
end_of_record
SF:/usr/include/c++/4.7.2/bits/allocator.h
FN:104,_ZNSaISt6vectorIN5fasta8SequenceESaIS1_EEEC2Ev
FN:104,_ZNSaIdEC2Ev
FN:104,_ZNSaIN5fasta7ResidueEEC2Ev
FN:104,_ZNSaIN5fasta8SequenceEEC2Ev
FN:106,_ZNSaISsEC2ERKS_
FN:106,_ZNSaIdEC2ERKS_
FN:106,_ZNSaISt13_Rb_tree_nodeISt4pairIKSsdEEEC2ERKS4_
FN:106,_ZNSaISt6vectorIN5fasta8SequenceESaIS1_EEEC2ERKS4_
FN:106,_ZNSaIN5fasta8SequenceEEC2ERKS1_
FN:106,_ZNSaIN5fasta7ResidueEEC2ERKS1_
FN:112,_ZNSaISt6vectorIN5fasta8SequenceESaIS1_EEED2Ev
FN:112,_ZNSaISt13_Rb_tree_nodeISt4pairIKSsdEEED2Ev
FN:112,_ZNSaIN5fasta7ResidueEED2Ev
FN:112,_ZNSaISt13_Rb_tree_nodeISt4pairIKSsSt6vectorIdSaIdEEEEED2Ev
FN:112,_ZNSaIdED2Ev
FN:112,_ZNSaISt13_Rb_tree_nodeISt4pairIKcSt6vectorIdSaIdEEEEED2Ev
FN:112,_ZNSaISt6vectorIdSaIdEEED2Ev
FN:112,_ZNSaISsED2Ev
FN:112,_ZNSaIN5fasta8SequenceEED2Ev
FN:112,_ZNSaIN5boost10filesystem18directory_iteratorEED2Ev
FN:154,_ZNSt12__alloc_swapISaISt13_Rb_tree_nodeISt4pairIKcSt6vectorIdSaIdEEEEELb1EE8_S_do_itERS8_SA_
FNDA:0,_ZNSaIN5fasta7ResidueEEC2Ev
FNDA:52,_ZNSaISt6vectorIN5fasta8SequenceESaIS1_EEEC2Ev
FNDA:0,_ZNSaIdEC2Ev
FNDA:0,_ZNSaIN5fasta8SequenceEEC2Ev
FNDA:0,_ZNSaIdEC2ERKS_
FNDA:88,_ZNSaISt6vectorIN5fasta8SequenceESaIS1_EEEC2ERKS4_
FNDA:0,_ZNSaIN5fasta8SequenceEEC2ERKS1_
FNDA:0,_ZNSaISt13_Rb_tree_nodeISt4pairIKSsdEEEC2ERKS4_
FNDA:0,_ZNSaIN5fasta7ResidueEEC2ERKS1_
FNDA:0,_ZNSaISsEC2ERKS_
FNDA:0,_ZNSaISt6vectorIdSaIdEEED2Ev
FNDA:0,_ZNSaIN5boost10filesystem18directory_iteratorEED2Ev
FNDA:0,_ZNSaISt13_Rb_tree_nodeISt4pairIKcSt6vectorIdSaIdEEEEED2Ev
FNDA:0,_ZNSaIN5fasta7ResidueEED2Ev
FNDA:0,_ZNSaISt13_Rb_tree_nodeISt4pairIKSsSt6vectorIdSaIdEEEEED2Ev
FNDA:0,_ZNSaISt13_Rb_tree_nodeISt4pairIKSsdEEED2Ev
FNDA:0,_ZNSaISsED2Ev
FNDA:140,_ZNSaISt6vectorIN5fasta8SequenceESaIS1_EEED2Ev
FNDA:0,_ZNSaIdED2Ev
FNDA:0,_ZNSaIN5fasta8SequenceEED2Ev
FNDA:8,_ZNSt12__alloc_swapISaISt13_Rb_tree_nodeISt4pairIKcSt6vectorIdSaIdEEEEELb1EE8_S_do_itERS8_SA_
FNF:21
FNH:4
DA:104,52
DA:106,88
DA:107,88
DA:112,140
DA:154,8
LF:5
LH:5
end_of_record
SF:/usr/include/c++/4.7.2/bits/basic_string.h
FN:269,_ZNSs12_Alloc_hiderC2ERKS_
FN:269,_ZNSs12_Alloc_hiderD2Ev
FNDA:0,_ZNSs12_Alloc_hiderC2ERKS_
FNDA:0,_ZNSs12_Alloc_hiderD2Ev
FNF:2
FNH:0
DA:269,0
LF:1
LH:0
end_of_record
SF:/usr/include/c++/4.7.2/bits/char_traits.h
FN:260,_ZNSt11char_traitsIcE6lengthEPKc
FNDA:0,_ZNSt11char_traitsIcE6lengthEPKc
FNF:1
FNH:0
DA:260,0
DA:261,0
LF:2
LH:0
end_of_record
SF:/usr/include/c++/4.7.2/bits/move.h
FN:47,_ZSt11__addressofIN5fasta7ResidueEEPT_RS2_
FN:47,_ZSt11__addressofISt6vectorIN5fasta8SequenceESaIS2_EEEPT_RS5_
FN:47,_ZSt11__addressofIKSt4pairIKcSt6vectorIdSaIdEEEEPT_RS7_
FN:47,_ZSt11__addressofISt6vectorIdSaIdEEEPT_RS3_
FN:47,_ZSt11__addressofISsEPT_RS0_
FN:47,_ZSt11__addressofIN5boost10filesystem18directory_iteratorEEPT_RS3_
FN:47,_ZSt11__addressofIN5fasta8SequenceEEPT_RS2_
FN:77,_ZSt7forwardIRKSsEOT_RNSt16remove_referenceIS2_E4typeE
FN:77,_ZSt7forwardIN5fasta8SequenceEEOT_RNSt16remove_referenceIS2_E4typeE
FN:77,_ZSt7forwardIRKdEOT_RNSt16remove_referenceIS2_E4typeE
FN:77,_ZSt7forwardIRKN5fasta8SequenceEEOT_RNSt16remove_referenceIS4_E4typeE
FN:77,_ZSt7forwardIRKN5fasta7ResidueEEOT_RNSt16remove_referenceIS4_E4typeE
FN:77,_ZSt7forwardIRKSt4pairIKSsdEEOT_RNSt16remove_referenceIS5_E4typeE
FN:77,_ZSt7forwardIRKSt6vectorIN5fasta8SequenceESaIS2_EEEOT_RNSt16remove_referenceIS7_E4typeE
FN:77,_ZSt7forwardIN5fasta7ResidueEEOT_RNSt16remove_referenceIS2_E4typeE
FN:102,_ZSt4moveIRPdEONSt16remove_referenceIT_E4typeEOS3_
FN:102,_ZSt4moveIRPSsEONSt16remove_referenceIT_E4typeEOS3_
FN:102,_ZSt4moveIRN5fasta8SequenceEEONSt16remove_referenceIT_E4typeEOS4_
FN:102,_ZSt4moveIRSaISt6vectorIN5fasta8SequenceESaIS2_EEEEONSt16remove_referenceIT_E4typeEOS8_
FN:102,_ZSt4moveIRN5fasta7ResidueEEONSt16remove_referenceIT_E4typeEOS4_
FN:102,_ZSt4moveIRPN5fasta8SequenceEEONSt16remove_referenceIT_E4typeEOS5_
FN:102,_ZSt4moveIRSt6vectorIS0_IN5fasta8SequenceESaIS2_EESaIS4_EEEONSt16remove_referenceIT_E4typeEOS9_
FN:102,_ZSt4moveIRSaIN5fasta7ResidueEEEONSt16remove_referenceIT_E4typeEOS5_
FN:102,_ZSt4moveIRSt6vectorIN5fasta8SequenceESaIS2_EEEONSt16remove_referenceIT_E4typeEOS7_
FN:102,_ZSt4moveIRPN5fasta7ResidueEEONSt16remove_referenceIT_E4typeEOS5_
FN:102,_ZSt4moveIRPSt18_Rb_tree_node_baseEONSt16remove_referenceIT_E4typeEOS4_
FN:102,_ZSt4moveIRSaIN5fasta8SequenceEEEONSt16remove_referenceIT_E4typeEOS5_
FN:102,_ZSt4moveIRSt6vectorISsSaISsEEEONSt16remove_referenceIT_E4typeEOS5_
FN:102,_ZSt4moveIRSaISsEEONSt16remove_referenceIT_E4typeEOS3_
FN:102,_ZSt4moveIRSaIdEEONSt16remove_referenceIT_E4typeEOS3_
FN:102,_ZSt4moveIRSt6vectorIN5fasta7ResidueESaIS2_EEEONSt16remove_referenceIT_E4typeEOS7_
FN:102,_ZSt4moveIRSt4lessIcEEONSt16remove_referenceIT_E4typeEOS4_
FN:102,_ZSt4moveIRSt6vectorIdSaIdEEEONSt16remove_referenceIT_E4typeEOS5_
FN:102,_ZSt4moveIRmEONSt16remove_referenceIT_E4typeEOS2_
FN:102,_ZSt4moveIRPSt6vectorIN5fasta8SequenceESaIS2_EEEONSt16remove_referenceIT_E4typeEOS8_
FN:167,_ZSt4swapIPN5fasta7ResidueEEvRT_S4_
FN:167,_ZSt4swapIPSsEvRT_S2_
FN:167,_ZSt4swapIPSt6vectorIN5fasta8SequenceESaIS2_EEEvRT_S7_
FN:167,_ZSt4swapIPdEvRT_S2_
FN:167,_ZSt4swapIPN5fasta8SequenceEEvRT_S4_
FN:167,_ZSt4swapISt4lessIcEEvRT_S3_
FN:167,_ZSt4swapIPSt18_Rb_tree_node_baseEvRT_S3_
FN:167,_ZSt4swapImEvRT_S1_
FNDA:0,_ZSt11__addressofISt6vectorIdSaIdEEEPT_RS3_
FNDA:176,_ZSt11__addressofISt6vectorIN5fasta8SequenceESaIS2_EEEPT_RS5_
FNDA:0,_ZSt11__addressofIN5fasta8SequenceEEPT_RS2_
FNDA:0,_ZSt11__addressofIN5fasta7ResidueEEPT_RS2_
FNDA:0,_ZSt11__addressofIN5boost10filesystem18directory_iteratorEEPT_RS3_
FNDA:0,_ZSt11__addressofISsEPT_RS0_
FNDA:0,_ZSt11__addressofIKSt4pairIKcSt6vectorIdSaIdEEEEPT_RS7_
FNDA:0,_ZSt7forwardIN5fasta8SequenceEEOT_RNSt16remove_referenceIS2_E4typeE
FNDA:0,_ZSt7forwardIN5fasta7ResidueEEOT_RNSt16remove_referenceIS2_E4typeE
FNDA:88,_ZSt7forwardIRKSt6vectorIN5fasta8SequenceESaIS2_EEEOT_RNSt16remove_referenceIS7_E4typeE
FNDA:0,_ZSt7forwardIRKSt4pairIKSsdEEOT_RNSt16remove_referenceIS5_E4typeE
FNDA:0,_ZSt7forwardIRKSsEOT_RNSt16remove_referenceIS2_E4typeE
FNDA:0,_ZSt7forwardIRKN5fasta8SequenceEEOT_RNSt16remove_referenceIS4_E4typeE
FNDA:0,_ZSt7forwardIRKN5fasta7ResidueEEOT_RNSt16remove_referenceIS4_E4typeE
FNDA:32,_ZSt7forwardIRKdEOT_RNSt16remove_referenceIS2_E4typeE
FNDA:0,_ZSt4moveIRPSsEONSt16remove_referenceIT_E4typeEOS3_
FNDA:0,_ZSt4moveIRSaISsEEONSt16remove_referenceIT_E4typeEOS3_
FNDA:0,_ZSt4moveIRSt6vectorISsSaISsEEEONSt16remove_referenceIT_E4typeEOS5_
FNDA:0,_ZSt4moveIRN5fasta8SequenceEEONSt16remove_referenceIT_E4typeEOS4_
FNDA:0,_ZSt4moveIRN5fasta7ResidueEEONSt16remove_referenceIT_E4typeEOS4_
FNDA:504,_ZSt4moveIRPN5fasta8SequenceEEONSt16remove_referenceIT_E4typeEOS5_
FNDA:24,_ZSt4moveIRSt4lessIcEEONSt16remove_referenceIT_E4typeEOS4_
FNDA:0,_ZSt4moveIRmEONSt16remove_referenceIT_E4typeEOS2_
FNDA:0,_ZSt4moveIRPSt18_Rb_tree_node_baseEONSt16remove_referenceIT_E4typeEOS4_
FNDA:792,_ZSt4moveIRPSt6vectorIN5fasta8SequenceESaIS2_EEEONSt16remove_referenceIT_E4typeEOS8_
FNDA:0,_ZSt4moveIRPdEONSt16remove_referenceIT_E4typeEOS3_
FNDA:0,_ZSt4moveIRPN5fasta7ResidueEEONSt16remove_referenceIT_E4typeEOS5_
FNDA:0,_ZSt4moveIRSaIdEEONSt16remove_referenceIT_E4typeEOS3_
FNDA:56,_ZSt4moveIRSaIN5fasta8SequenceEEEONSt16remove_referenceIT_E4typeEOS5_
FNDA:88,_ZSt4moveIRSaISt6vectorIN5fasta8SequenceESaIS2_EEEEONSt16remove_referenceIT_E4typeEOS8_
FNDA:0,_ZSt4moveIRSaIN5fasta7ResidueEEEONSt16remove_referenceIT_E4typeEOS5_
FNDA:84,_ZSt4moveIRSt6vectorIN5fasta8SequenceESaIS2_EEEONSt16remove_referenceIT_E4typeEOS7_
FNDA:132,_ZSt4moveIRSt6vectorIS0_IN5fasta8SequenceESaIS2_EESaIS4_EEEONSt16remove_referenceIT_E4typeEOS9_
FNDA:0,_ZSt4moveIRSt6vectorIdSaIdEEEONSt16remove_referenceIT_E4typeEOS5_
FNDA:0,_ZSt4moveIRSt6vectorIN5fasta7ResidueESaIS2_EEEONSt16remove_referenceIT_E4typeEOS7_
FNDA:0,_ZSt4swapIPSsEvRT_S2_
FNDA:168,_ZSt4swapIPN5fasta8SequenceEEvRT_S4_
FNDA:8,_ZSt4swapISt4lessIcEEvRT_S3_
FNDA:0,_ZSt4swapImEvRT_S1_
FNDA:0,_ZSt4swapIPSt18_Rb_tree_node_baseEvRT_S3_
FNDA:264,_ZSt4swapIPSt6vectorIN5fasta8SequenceESaIS2_EEEvRT_S7_
FNDA:0,_ZSt4swapIPdEvRT_S2_
FNDA:0,_ZSt4swapIPN5fasta7ResidueEEvRT_S4_
FNF:43
FNH:13
DA:47,176
DA:50,176
DA:77,120
DA:78,120
DA:102,1680
DA:103,1680
DA:167,440
DA:176,440
DA:177,440
DA:178,440
DA:179,440
LF:11
LH:11
end_of_record
SF:/usr/include/c++/4.7.2/bits/stl_algobase.h
FN:210,_ZSt3maxImERKT_S2_S2_
FN:271,_ZSt12__niter_baseIPKdENSt11_Niter_baseIT_E13iterator_typeES3_
FN:271,_ZSt12__niter_baseIPdENSt11_Niter_baseIT_E13iterator_typeES2_
FN:282,_ZSt12__miter_baseIPKdENSt11_Miter_baseIT_E13iterator_typeES3_
FN:282,_ZSt12__miter_baseISt13move_iteratorIPdEENSt11_Miter_baseIT_E13iterator_typeES4_
FN:362,_ZNSt11__copy_moveILb1ELb1ESt26random_access_iterator_tagE8__copy_mIdEEPT_PKS3_S6_S4_
FN:362,_ZNSt11__copy_moveILb0ELb1ESt26random_access_iterator_tagE8__copy_mIdEEPT_PKS3_S6_S4_
FN:373,_ZSt13__copy_move_aILb1EPdS0_ET1_T0_S2_S1_
FN:373,_ZSt13__copy_move_aILb0EPKdPdET1_T0_S4_S3_
FN:418,_ZSt14__copy_move_a2ILb0EPKdPdET1_T0_S4_S3_
FN:418,_ZSt14__copy_move_a2ILb1EPdS0_ET1_T0_S2_S1_
FN:444,_ZSt4copyIPKdPdET0_T_S4_S3_
FN:444,_ZSt4copyISt13move_iteratorIPdES1_ET0_T_S4_S3_
FNDA:0,_ZSt3maxImERKT_S2_S2_
FNDA:0,_ZSt12__niter_baseIPdENSt11_Niter_baseIT_E13iterator_typeES2_
FNDA:0,_ZSt12__niter_baseIPKdENSt11_Niter_baseIT_E13iterator_typeES3_
FNDA:16,_ZSt12__miter_baseISt13move_iteratorIPdEENSt11_Miter_baseIT_E13iterator_typeES4_
FNDA:0,_ZSt12__miter_baseIPKdENSt11_Miter_baseIT_E13iterator_typeES3_
FNDA:8,_ZNSt11__copy_moveILb1ELb1ESt26random_access_iterator_tagE8__copy_mIdEEPT_PKS3_S6_S4_
FNDA:0,_ZNSt11__copy_moveILb0ELb1ESt26random_access_iterator_tagE8__copy_mIdEEPT_PKS3_S6_S4_
FNDA:8,_ZSt13__copy_move_aILb1EPdS0_ET1_T0_S2_S1_
FNDA:0,_ZSt13__copy_move_aILb0EPKdPdET1_T0_S4_S3_
FNDA:8,_ZSt14__copy_move_a2ILb1EPdS0_ET1_T0_S2_S1_
FNDA:0,_ZSt14__copy_move_a2ILb0EPKdPdET1_T0_S4_S3_
FNDA:8,_ZSt4copyISt13move_iteratorIPdES1_ET0_T_S4_S3_
FNDA:0,_ZSt4copyIPKdPdET0_T_S4_S3_
FNF:13
FNH:5
DA:210,0
DA:215,0
DA:216,0
DA:217,0
DA:271,0
DA:272,0
DA:282,16
DA:283,16
DA:362,8
DA:364,8
DA:365,8
DA:366,8
DA:367,8
DA:373,8
DA:381,8
DA:384,8
DA:418,8
DA:422,8
DA:444,8
DA:454,8
LF:20
LH:14
end_of_record
SF:/usr/include/c++/4.7.2/bits/stl_construct.h
FN:76,_ZSt10_ConstructIN5fasta7ResidueEIS1_EEvPT_DpOT0_
FN:76,_ZSt10_ConstructIN5fasta7ResidueEIRKS1_EEvPT_DpOT0_
FN:76,_ZSt10_ConstructISsIRKSsEEvPT_DpOT0_
FN:76,_ZSt10_ConstructIN5fasta8SequenceEIRKS1_EEvPT_DpOT0_
FN:76,_ZSt10_ConstructISt6vectorIN5fasta8SequenceESaIS2_EEIRKS4_EEvPT_DpOT0_
FN:76,_ZSt10_ConstructIN5fasta8SequenceEIS1_EEvPT_DpOT0_
FN:94,_ZSt8_DestroyISt6vectorIN5fasta8SequenceESaIS2_EEEvPT_
FN:94,_ZSt8_DestroyIN5fasta8SequenceEEvPT_
FN:94,_ZSt8_DestroyISt6vectorIdSaIdEEEvPT_
FN:94,_ZSt8_DestroyISsEvPT_
FN:94,_ZSt8_DestroyIN5boost10filesystem18directory_iteratorEEvPT_
FN:94,_ZSt8_DestroyIN5fasta7ResidueEEvPT_
FN:102,_ZNSt12_Destroy_auxILb0EE9__destroyIPSt6vectorIdSaIdEEEEvT_S6_
FN:102,_ZNSt12_Destroy_auxILb0EE9__destroyIPN5boost10filesystem18directory_iteratorEEEvT_S6_
FN:102,_ZNSt12_Destroy_auxILb0EE9__destroyIPSsEEvT_S3_
FN:102,_ZNSt12_Destroy_auxILb0EE9__destroyIPN5fasta7ResidueEEEvT_S5_
FN:102,_ZNSt12_Destroy_auxILb0EE9__destroyIPN5fasta8SequenceEEEvT_S5_
FN:102,_ZNSt12_Destroy_auxILb0EE9__destroyIPSt6vectorIN5fasta8SequenceESaIS4_EEEEvT_S8_
FN:114,_ZNSt12_Destroy_auxILb1EE9__destroyIPdEEvT_S3_
FN:124,_ZSt8_DestroyIPN5fasta7ResidueEEvT_S3_
FN:124,_ZSt8_DestroyIPSt6vectorIN5fasta8SequenceESaIS2_EEEvT_S6_
FN:124,_ZSt8_DestroyIPSt6vectorIdSaIdEEEvT_S4_
FN:124,_ZSt8_DestroyIPN5fasta8SequenceEEvT_S3_
FN:124,_ZSt8_DestroyIPN5boost10filesystem18directory_iteratorEEvT_S4_
FN:124,_ZSt8_DestroyIPdEvT_S1_
FN:124,_ZSt8_DestroyIPSsEvT_S1_
FN:152,_ZSt8_DestroyIPSt6vectorIN5fasta8SequenceESaIS2_EES4_EvT_S6_RSaIT0_E
FN:152,_ZSt8_DestroyIPN5boost10filesystem18directory_iteratorES2_EvT_S4_RSaIT0_E
FN:152,_ZSt8_DestroyIPSt6vectorIdSaIdEES2_EvT_S4_RSaIT0_E
FN:152,_ZSt8_DestroyIPSsSsEvT_S1_RSaIT0_E
FN:152,_ZSt8_DestroyIPN5fasta7ResidueES1_EvT_S3_RSaIT0_E
FN:152,_ZSt8_DestroyIPN5fasta8SequenceES1_EvT_S3_RSaIT0_E
FN:152,_ZSt8_DestroyIPddEvT_S1_RSaIT0_E
FNDA:0,_ZSt10_ConstructIN5fasta8SequenceEIS1_EEvPT_DpOT0_
FNDA:0,_ZSt10_ConstructIN5fasta7ResidueEIS1_EEvPT_DpOT0_
FNDA:88,_ZSt10_ConstructISt6vectorIN5fasta8SequenceESaIS2_EEIRKS4_EEvPT_DpOT0_
FNDA:0,_ZSt10_ConstructIN5fasta8SequenceEIRKS1_EEvPT_DpOT0_
FNDA:0,_ZSt10_ConstructIN5fasta7ResidueEIRKS1_EEvPT_DpOT0_
FNDA:0,_ZSt10_ConstructISsIRKSsEEvPT_DpOT0_
FNDA:0,_ZSt8_DestroyISt6vectorIdSaIdEEEvPT_
FNDA:88,_ZSt8_DestroyISt6vectorIN5fasta8SequenceESaIS2_EEEvPT_
FNDA:0,_ZSt8_DestroyIN5fasta8SequenceEEvPT_
FNDA:0,_ZSt8_DestroyIN5fasta7ResidueEEvPT_
FNDA:0,_ZSt8_DestroyIN5boost10filesystem18directory_iteratorEEvPT_
FNDA:0,_ZSt8_DestroyISsEvPT_
FNDA:0,_ZNSt12_Destroy_auxILb0EE9__destroyIPSt6vectorIdSaIdEEEEvT_S6_
FNDA:96,_ZNSt12_Destroy_auxILb0EE9__destroyIPSt6vectorIN5fasta8SequenceESaIS4_EEEEvT_S8_
FNDA:0,_ZNSt12_Destroy_auxILb0EE9__destroyIPN5fasta8SequenceEEEvT_S5_
FNDA:0,_ZNSt12_Destroy_auxILb0EE9__destroyIPN5fasta7ResidueEEEvT_S5_
FNDA:0,_ZNSt12_Destroy_auxILb0EE9__destroyIPN5boost10filesystem18directory_iteratorEEEvT_S6_
FNDA:0,_ZNSt12_Destroy_auxILb0EE9__destroyIPSsEEvT_S3_
FNDA:0,_ZNSt12_Destroy_auxILb1EE9__destroyIPdEEvT_S3_
FNDA:0,_ZSt8_DestroyIPSt6vectorIdSaIdEEEvT_S4_
FNDA:96,_ZSt8_DestroyIPSt6vectorIN5fasta8SequenceESaIS2_EEEvT_S6_
FNDA:0,_ZSt8_DestroyIPdEvT_S1_
FNDA:0,_ZSt8_DestroyIPN5fasta8SequenceEEvT_S3_
FNDA:0,_ZSt8_DestroyIPN5fasta7ResidueEEvT_S3_
FNDA:0,_ZSt8_DestroyIPN5boost10filesystem18directory_iteratorEEvT_S4_
FNDA:0,_ZSt8_DestroyIPSsEvT_S1_
FNDA:0,_ZSt8_DestroyIPSt6vectorIdSaIdEES2_EvT_S4_RSaIT0_E
FNDA:96,_ZSt8_DestroyIPSt6vectorIN5fasta8SequenceESaIS2_EES4_EvT_S6_RSaIT0_E
FNDA:0,_ZSt8_DestroyIPddEvT_S1_RSaIT0_E
FNDA:0,_ZSt8_DestroyIPN5fasta8SequenceES1_EvT_S3_RSaIT0_E
FNDA:0,_ZSt8_DestroyIPN5fasta7ResidueES1_EvT_S3_RSaIT0_E
FNDA:0,_ZSt8_DestroyIPN5boost10filesystem18directory_iteratorES2_EvT_S4_RSaIT0_E
FNDA:0,_ZSt8_DestroyIPSsSsEvT_S1_RSaIT0_E
FNF:33
FNH:5
DA:76,88
DA:77,88
DA:94,88
DA:95,88
DA:102,96
DA:104,184
DA:105,88
DA:106,96
DA:114,0
DA:124,96
DA:128,96
DA:130,96
DA:152,96
DA:155,96
DA:156,96
LF:15
LH:14
end_of_record
SF:/usr/include/c++/4.7.2/bits/stl_iterator.h
FN:728,_ZN9__gnu_cxx17__normal_iteratorIPKSsSt6vectorISsSaISsEEEC2ERKS2_
FN:728,_ZN9__gnu_cxx17__normal_iteratorIPKN5fasta8SequenceESt6vectorIS2_SaIS2_EEEC2ERKS4_
FN:728,_ZN9__gnu_cxx17__normal_iteratorIPKN5fasta7ResidueESt6vectorIS2_SaIS2_EEEC2ERKS4_
FN:728,_ZN9__gnu_cxx17__normal_iteratorIPKdSt6vectorIdSaIdEEEC2ERKS2_
FN:740,_ZNK9__gnu_cxx17__normal_iteratorIPKN5fasta7ResidueESt6vectorIS2_SaIS2_EEEdeEv
FN:740,_ZNK9__gnu_cxx17__normal_iteratorIPKSsSt6vectorISsSaISsEEEdeEv
FN:740,_ZNK9__gnu_cxx17__normal_iteratorIPKdSt6vectorIdSaIdEEEdeEv
FN:740,_ZNK9__gnu_cxx17__normal_iteratorIPKN5fasta8SequenceESt6vectorIS2_SaIS2_EEEdeEv
FN:748,_ZN9__gnu_cxx17__normal_iteratorIPKN5fasta7ResidueESt6vectorIS2_SaIS2_EEEppEv
FN:748,_ZN9__gnu_cxx17__normal_iteratorIPKN5fasta8SequenceESt6vectorIS2_SaIS2_EEEppEv
FN:748,_ZN9__gnu_cxx17__normal_iteratorIPKdSt6vectorIdSaIdEEEppEv
FN:748,_ZN9__gnu_cxx17__normal_iteratorIPKSsSt6vectorISsSaISsEEEppEv
FN:792,_ZNK9__gnu_cxx17__normal_iteratorIPKSsSt6vectorISsSaISsEEE4baseEv
FN:792,_ZNK9__gnu_cxx17__normal_iteratorIPKN5fasta8SequenceESt6vectorIS2_SaIS2_EEE4baseEv
FN:792,_ZNK9__gnu_cxx17__normal_iteratorIPKdSt6vectorIdSaIdEEE4baseEv
FN:792,_ZNK9__gnu_cxx17__normal_iteratorIPKN5fasta7ResidueESt6vectorIS2_SaIS2_EEE4baseEv
FN:825,_ZN9__gnu_cxxneIPKN5fasta7ResidueESt6vectorIS2_SaIS2_EEEEbRKNS_17__normal_iteratorIT_T0_EESD_
FN:825,_ZN9__gnu_cxxneIPKdSt6vectorIdSaIdEEEEbRKNS_17__normal_iteratorIT_T0_EESB_
FN:825,_ZN9__gnu_cxxneIPKN5fasta8SequenceESt6vectorIS2_SaIS2_EEEEbRKNS_17__normal_iteratorIT_T0_EESD_
FN:825,_ZN9__gnu_cxxneIPKSsSt6vectorISsSaISsEEEEbRKNS_17__normal_iteratorIT_T0_EESB_
FN:952,_ZNSt13move_iteratorIPN5fasta8SequenceEEC2ES2_
FN:952,_ZNSt13move_iteratorIPN5fasta7ResidueEEC2ES2_
FN:952,_ZNSt13move_iteratorIPdEC2ES0_
FN:960,_ZNKSt13move_iteratorIPdE4baseEv
FN:960,_ZNKSt13move_iteratorIPN5fasta8SequenceEE4baseEv
FN:960,_ZNKSt13move_iteratorIPN5fasta7ResidueEE4baseEv
FN:964,_ZNKSt13move_iteratorIPN5fasta8SequenceEEdeEv
FN:964,_ZNKSt13move_iteratorIPN5fasta7ResidueEEdeEv
FN:972,_ZNSt13move_iteratorIPN5fasta8SequenceEEppEv
FN:972,_ZNSt13move_iteratorIPN5fasta7ResidueEEppEv
FN:1039,_ZSteqIPN5fasta8SequenceEEbRKSt13move_iteratorIT_ES7_
FN:1039,_ZSteqIPN5fasta7ResidueEEbRKSt13move_iteratorIT_ES7_
FN:1051,_ZStneIPN5fasta7ResidueEEbRKSt13move_iteratorIT_ES7_
FN:1051,_ZStneIPN5fasta8SequenceEEbRKSt13move_iteratorIT_ES7_
FN:1134,_ZSt32__make_move_if_noexcept_iteratorIPdSt13move_iteratorIS0_EET0_T_
FN:1134,_ZSt32__make_move_if_noexcept_iteratorIPN5fasta8SequenceESt13move_iteratorIS2_EET0_T_
FN:1134,_ZSt32__make_move_if_noexcept_iteratorIPN5fasta7ResidueESt13move_iteratorIS2_EET0_T_
FNDA:0,_ZN9__gnu_cxx17__normal_iteratorIPKN5fasta8SequenceESt6vectorIS2_SaIS2_EEEC2ERKS4_
FNDA:0,_ZN9__gnu_cxx17__normal_iteratorIPKN5fasta7ResidueESt6vectorIS2_SaIS2_EEEC2ERKS4_
FNDA:0,_ZN9__gnu_cxx17__normal_iteratorIPKSsSt6vectorISsSaISsEEEC2ERKS2_
FNDA:0,_ZN9__gnu_cxx17__normal_iteratorIPKdSt6vectorIdSaIdEEEC2ERKS2_
FNDA:0,_ZNK9__gnu_cxx17__normal_iteratorIPKN5fasta8SequenceESt6vectorIS2_SaIS2_EEEdeEv
FNDA:0,_ZNK9__gnu_cxx17__normal_iteratorIPKN5fasta7ResidueESt6vectorIS2_SaIS2_EEEdeEv
FNDA:0,_ZNK9__gnu_cxx17__normal_iteratorIPKSsSt6vectorISsSaISsEEEdeEv
FNDA:112,_ZNK9__gnu_cxx17__normal_iteratorIPKdSt6vectorIdSaIdEEEdeEv
FNDA:0,_ZN9__gnu_cxx17__normal_iteratorIPKN5fasta8SequenceESt6vectorIS2_SaIS2_EEEppEv
FNDA:0,_ZN9__gnu_cxx17__normal_iteratorIPKN5fasta7ResidueESt6vectorIS2_SaIS2_EEEppEv
FNDA:0,_ZN9__gnu_cxx17__normal_iteratorIPKSsSt6vectorISsSaISsEEEppEv
FNDA:112,_ZN9__gnu_cxx17__normal_iteratorIPKdSt6vectorIdSaIdEEEppEv
FNDA:0,_ZNK9__gnu_cxx17__normal_iteratorIPKN5fasta8SequenceESt6vectorIS2_SaIS2_EEE4baseEv
FNDA:0,_ZNK9__gnu_cxx17__normal_iteratorIPKN5fasta7ResidueESt6vectorIS2_SaIS2_EEE4baseEv
FNDA:0,_ZNK9__gnu_cxx17__normal_iteratorIPKSsSt6vectorISsSaISsEEE4baseEv
FNDA:0,_ZNK9__gnu_cxx17__normal_iteratorIPKdSt6vectorIdSaIdEEE4baseEv
FNDA:0,_ZN9__gnu_cxxneIPKN5fasta8SequenceESt6vectorIS2_SaIS2_EEEEbRKNS_17__normal_iteratorIT_T0_EESD_
FNDA:0,_ZN9__gnu_cxxneIPKN5fasta7ResidueESt6vectorIS2_SaIS2_EEEEbRKNS_17__normal_iteratorIT_T0_EESD_
FNDA:0,_ZN9__gnu_cxxneIPKSsSt6vectorISsSaISsEEEEbRKNS_17__normal_iteratorIT_T0_EESB_
FNDA:156,_ZN9__gnu_cxxneIPKdSt6vectorIdSaIdEEEEbRKNS_17__normal_iteratorIT_T0_EESB_
FNDA:0,_ZNSt13move_iteratorIPN5fasta8SequenceEEC2ES2_
FNDA:0,_ZNSt13move_iteratorIPN5fasta7ResidueEEC2ES2_
FNDA:16,_ZNSt13move_iteratorIPdEC2ES0_
FNDA:16,_ZNKSt13move_iteratorIPdE4baseEv
FNDA:0,_ZNKSt13move_iteratorIPN5fasta8SequenceEE4baseEv
FNDA:0,_ZNKSt13move_iteratorIPN5fasta7ResidueEE4baseEv
FNDA:0,_ZNKSt13move_iteratorIPN5fasta8SequenceEEdeEv
FNDA:0,_ZNKSt13move_iteratorIPN5fasta7ResidueEEdeEv
FNDA:0,_ZNSt13move_iteratorIPN5fasta8SequenceEEppEv
FNDA:0,_ZNSt13move_iteratorIPN5fasta7ResidueEEppEv
FNDA:0,_ZSteqIPN5fasta8SequenceEEbRKSt13move_iteratorIT_ES7_
FNDA:0,_ZSteqIPN5fasta7ResidueEEbRKSt13move_iteratorIT_ES7_
FNDA:0,_ZStneIPN5fasta8SequenceEEbRKSt13move_iteratorIT_ES7_
FNDA:0,_ZStneIPN5fasta7ResidueEEbRKSt13move_iteratorIT_ES7_
FNDA:0,_ZSt32__make_move_if_noexcept_iteratorIPN5fasta8SequenceESt13move_iteratorIS2_EET0_T_
FNDA:0,_ZSt32__make_move_if_noexcept_iteratorIPN5fasta7ResidueESt13move_iteratorIS2_EET0_T_
FNDA:16,_ZSt32__make_move_if_noexcept_iteratorIPdSt13move_iteratorIS0_EET0_T_
FNF:37
FNH:6
DA:728,0
DA:740,112
DA:741,112
DA:748,112
DA:750,112
DA:751,112
DA:792,0
DA:793,0
DA:825,156
DA:827,156
DA:952,16
DA:953,16
DA:960,16
DA:961,16
DA:964,0
DA:965,0
DA:972,0
DA:974,0
DA:975,0
DA:1039,0
DA:1041,0
DA:1051,0
DA:1053,0
DA:1134,16
DA:1135,16
LF:25
LH:13
end_of_record
SF:/usr/include/c++/4.7.2/bits/stl_iterator_base_funcs.h
FN:90,_ZSt10__distanceIPKSt6vectorIN5fasta8SequenceESaIS2_EEENSt15iterator_traitsIT_E15difference_typeES8_S8_St26random_access_iterator_tag
FN:90,_ZSt10__distanceIPKN5fasta8SequenceEENSt15iterator_traitsIT_E15difference_typeES5_S5_St26random_access_iterator_tag
FN:90,_ZSt10__distanceIPKdENSt15iterator_traitsIT_E15difference_typeES3_S3_St26random_access_iterator_tag
FN:114,_ZSt8distanceIPKdENSt15iterator_traitsIT_E15difference_typeES3_S3_
FN:114,_ZSt8distanceIPKSt6vectorIN5fasta8SequenceESaIS2_EEENSt15iterator_traitsIT_E15difference_typeES8_S8_
FN:114,_ZSt8distanceIPKN5fasta8SequenceEENSt15iterator_traitsIT_E15difference_typeES5_S5_
FNDA:44,_ZSt10__distanceIPKSt6vectorIN5fasta8SequenceESaIS2_EEENSt15iterator_traitsIT_E15difference_typeES8_S8_St26random_access_iterator_tag
FNDA:0,_ZSt10__distanceIPKdENSt15iterator_traitsIT_E15difference_typeES3_S3_St26random_access_iterator_tag
FNDA:0,_ZSt10__distanceIPKN5fasta8SequenceEENSt15iterator_traitsIT_E15difference_typeES5_S5_St26random_access_iterator_tag
FNDA:44,_ZSt8distanceIPKSt6vectorIN5fasta8SequenceESaIS2_EEENSt15iterator_traitsIT_E15difference_typeES8_S8_
FNDA:0,_ZSt8distanceIPKdENSt15iterator_traitsIT_E15difference_typeES3_S3_
FNDA:0,_ZSt8distanceIPKN5fasta8SequenceEENSt15iterator_traitsIT_E15difference_typeES5_S5_
FNF:6
FNH:2
DA:90,44
DA:96,44
DA:114,44
DA:118,44
LF:4
LH:4
end_of_record
SF:/usr/include/c++/4.7.2/bits/stl_iterator_base_types.h
FN:202,_ZSt19__iterator_categoryIPKSt6vectorIN5fasta8SequenceESaIS2_EEENSt15iterator_traitsIT_E17iterator_categoryERKS8_
FN:202,_ZSt19__iterator_categoryIPKdENSt15iterator_traitsIT_E17iterator_categoryERKS3_
FN:202,_ZSt19__iterator_categoryIPKN5fasta8SequenceEENSt15iterator_traitsIT_E17iterator_categoryERKS5_
FN:213,_ZNSt10_Iter_baseIPKdLb0EE7_S_baseES1_
FN:213,_ZNSt10_Iter_baseIPdLb0EE7_S_baseES0_
FN:221,_ZNSt10_Iter_baseISt13move_iteratorIPdELb1EE7_S_baseES2_
FNDA:44,_ZSt19__iterator_categoryIPKSt6vectorIN5fasta8SequenceESaIS2_EEENSt15iterator_traitsIT_E17iterator_categoryERKS8_
FNDA:0,_ZSt19__iterator_categoryIPKdENSt15iterator_traitsIT_E17iterator_categoryERKS3_
FNDA:0,_ZSt19__iterator_categoryIPKN5fasta8SequenceEENSt15iterator_traitsIT_E17iterator_categoryERKS5_
FNDA:0,_ZNSt10_Iter_baseIPdLb0EE7_S_baseES0_
FNDA:0,_ZNSt10_Iter_baseIPKdLb0EE7_S_baseES1_
FNDA:16,_ZNSt10_Iter_baseISt13move_iteratorIPdELb1EE7_S_baseES2_
FNF:6
FNH:2
DA:202,44
DA:203,44
DA:213,0
DA:214,0
DA:221,16
DA:222,16
LF:6
LH:4
end_of_record
SF:/usr/include/c++/4.7.2/bits/stl_map.h
FN:90,_ZNSt3mapISsdSt4lessISsESaISt4pairIKSsdEEED2Ev
FN:90,_ZNSt3mapIcSt6vectorIdSaIdEESt4lessIcESaISt4pairIKcS2_EEED2Ev
FN:90,_ZNSt3mapISsSt6vectorIdSaIdEESt4lessISsESaISt4pairIKSsS2_EEED2Ev
FN:174,_ZNSt3mapISsdSt4lessISsESaISt4pairIKSsdEEEC2ERKS6_
FN:273,_ZNSt3mapIcSt6vectorIdSaIdEESt4lessIcESaISt4pairIKcS2_EEEaSEOS9_
FN:323,_ZNKSt3mapIcSt6vectorIdSaIdEESt4lessIcESaISt4pairIKcS2_EEE5beginEv
FN:705,_ZNSt3mapIcSt6vectorIdSaIdEESt4lessIcESaISt4pairIKcS2_EEE4swapERS9_
FN:715,_ZNSt3mapIcSt6vectorIdSaIdEESt4lessIcESaISt4pairIKcS2_EEE5clearEv
FNDA:0,_ZNSt3mapIcSt6vectorIdSaIdEESt4lessIcESaISt4pairIKcS2_EEED2Ev
FNDA:0,_ZNSt3mapISsSt6vectorIdSaIdEESt4lessISsESaISt4pairIKSsS2_EEED2Ev
FNDA:0,_ZNSt3mapISsdSt4lessISsESaISt4pairIKSsdEEED2Ev
FNDA:0,_ZNSt3mapISsdSt4lessISsESaISt4pairIKSsdEEEC2ERKS6_
FNDA:8,_ZNSt3mapIcSt6vectorIdSaIdEESt4lessIcESaISt4pairIKcS2_EEEaSEOS9_
FNDA:0,_ZNKSt3mapIcSt6vectorIdSaIdEESt4lessIcESaISt4pairIKcS2_EEE5beginEv
FNDA:8,_ZNSt3mapIcSt6vectorIdSaIdEESt4lessIcESaISt4pairIKcS2_EEE4swapERS9_
FNDA:12,_ZNSt3mapIcSt6vectorIdSaIdEESt4lessIcESaISt4pairIKcS2_EEE5clearEv
FNF:8
FNH:3
DA:90,0
DA:174,0
DA:175,0
DA:273,8
DA:277,8
DA:278,8
DA:279,8
DA:323,0
DA:324,0
DA:705,8
DA:706,8
DA:715,12
DA:716,12
LF:13
LH:8
end_of_record
SF:/usr/include/c++/4.7.2/bits/stl_pair.h
FN:88,_ZNSt4pairIKSsSt6vectorIdSaIdEEED2Ev
FN:88,_ZNSt4pairIKcSt6vectorIdSaIdEEED2Ev
FN:88,_ZNSt4pairIKSsdED2Ev
FN:119,_ZNSt4pairIKSsdEC2ERKS1_
FNDA:0,_ZNSt4pairIKcSt6vectorIdSaIdEEED2Ev
FNDA:0,_ZNSt4pairIKSsSt6vectorIdSaIdEEED2Ev
FNDA:0,_ZNSt4pairIKSsdED2Ev
FNDA:0,_ZNSt4pairIKSsdEC2ERKS1_
FNF:4
FNH:0
DA:88,0
DA:119,0
LF:2
LH:0
end_of_record
SF:/usr/include/c++/4.7.2/bits/stl_stack.h
FN:95,_ZNSt5stackIN5boost10filesystem18directory_iteratorESt6vectorIS2_SaIS2_EEED2Ev
FNDA:0,_ZNSt5stackIN5boost10filesystem18directory_iteratorESt6vectorIS2_SaIS2_EEED2Ev
FNF:1
FNH:0
DA:95,0
LF:1
LH:0
end_of_record
SF:/usr/include/c++/4.7.2/bits/stl_tree.h
FN:101,_ZNSt18_Rb_tree_node_base10_S_minimumEPS_
FN:115,_ZNSt18_Rb_tree_node_base10_S_maximumEPS_
FN:130,_ZNSt13_Rb_tree_nodeISt4pairIKcSt6vectorIdSaIdEEEED2Ev
FN:130,_ZNSt13_Rb_tree_nodeISt4pairIKSsSt6vectorIdSaIdEEEED2Ev
FN:130,_ZNSt13_Rb_tree_nodeISt4pairIKSsdEED2Ev
FN:137,_ZNSt13_Rb_tree_nodeISt4pairIKSsdEEC2IIRKS2_EEEDpOT_
FN:246,_ZNSt23_Rb_tree_const_iteratorISt4pairIKcSt6vectorIdSaIdEEEEC2EPKSt13_Rb_tree_nodeIS5_E
FN:262,_ZNKSt23_Rb_tree_const_iteratorISt4pairIKcSt6vectorIdSaIdEEEEptEv
FN:355,_ZNSt8_Rb_treeISsSt4pairIKSsSt6vectorIdSaIdEEESt10_Select1stIS5_ESt4lessISsESaIS5_EE21_M_get_Node_allocatorEv
FN:355,_ZNSt8_Rb_treeISsSt4pairIKSsdESt10_Select1stIS2_ESt4lessISsESaIS2_EE21_M_get_Node_allocatorEv
FN:355,_ZNSt8_Rb_treeIcSt4pairIKcSt6vectorIdSaIdEEESt10_Select1stIS5_ESt4lessIcESaIS5_EE21_M_get_Node_allocatorEv
FN:359,_ZNKSt8_Rb_treeISsSt4pairIKSsdESt10_Select1stIS2_ESt4lessISsESaIS2_EE21_M_get_Node_allocatorEv
FN:368,_ZNSt8_Rb_treeISsSt4pairIKSsdESt10_Select1stIS2_ESt4lessISsESaIS2_EE11_M_get_nodeEv
FN:372,_ZNSt8_Rb_treeISsSt4pairIKSsSt6vectorIdSaIdEEESt10_Select1stIS5_ESt4lessISsESaIS5_EE11_M_put_nodeEPSt13_Rb_tree_nodeIS5_E
FN:372,_ZNSt8_Rb_treeIcSt4pairIKcSt6vectorIdSaIdEEESt10_Select1stIS5_ESt4lessIcESaIS5_EE11_M_put_nodeEPSt13_Rb_tree_nodeIS5_E
FN:372,_ZNSt8_Rb_treeISsSt4pairIKSsdESt10_Select1stIS2_ESt4lessISsESaIS2_EE11_M_put_nodeEPSt13_Rb_tree_nodeIS2_E
FN:400,_ZNSt8_Rb_treeISsSt4pairIKSsdESt10_Select1stIS2_ESt4lessISsESaIS2_EE14_M_create_nodeIIRKS2_EEEPSt13_Rb_tree_nodeIS2_EDpOT_
FN:417,_ZNSt8_Rb_treeISsSt4pairIKSsSt6vectorIdSaIdEEESt10_Select1stIS5_ESt4lessISsESaIS5_EE15_M_destroy_nodeEPSt13_Rb_tree_nodeIS5_E
FN:417,_ZNSt8_Rb_treeIcSt4pairIKcSt6vectorIdSaIdEEESt10_Select1stIS5_ESt4lessIcESaIS5_EE15_M_destroy_nodeEPSt13_Rb_tree_nodeIS5_E
FN:417,_ZNSt8_Rb_treeISsSt4pairIKSsdESt10_Select1stIS2_ESt4lessISsESaIS2_EE15_M_destroy_nodeEPSt13_Rb_tree_nodeIS2_E
FN:425,_ZNSt8_Rb_treeISsSt4pairIKSsdESt10_Select1stIS2_ESt4lessISsESaIS2_EE13_M_clone_nodeEPKSt13_Rb_tree_nodeIS2_E
FN:437,_ZNSt8_Rb_treeISsSt4pairIKSsdESt10_Select1stIS2_ESt4lessISsESaIS2_EE13_Rb_tree_implIS6_Lb1EED2Ev
FN:437,_ZNSt8_Rb_treeISsSt4pairIKSsSt6vectorIdSaIdEEESt10_Select1stIS5_ESt4lessISsESaIS5_EE13_Rb_tree_implIS9_Lb1EED2Ev
FN:437,_ZNSt8_Rb_treeIcSt4pairIKcSt6vectorIdSaIdEEESt10_Select1stIS5_ESt4lessIcESaIS5_EE13_Rb_tree_implIS9_Lb1EED2Ev
FN:448,_ZNSt8_Rb_treeISsSt4pairIKSsdESt10_Select1stIS2_ESt4lessISsESaIS2_EE13_Rb_tree_implIS6_Lb1EEC2ERKS6_RKSaISt13_Rb_tree_nodeIS2_EE
FN:462,_ZNSt8_Rb_treeISsSt4pairIKSsdESt10_Select1stIS2_ESt4lessISsESaIS2_EE13_Rb_tree_implIS6_Lb1EE13_M_initializeEv
FN:475,_ZNSt8_Rb_treeIcSt4pairIKcSt6vectorIdSaIdEEESt10_Select1stIS5_ESt4lessIcESaIS5_EE7_M_rootEv
FN:475,_ZNSt8_Rb_treeISsSt4pairIKSsdESt10_Select1stIS2_ESt4lessISsESaIS2_EE7_M_rootEv
FN:479,_ZNKSt8_Rb_treeISsSt4pairIKSsdESt10_Select1stIS2_ESt4lessISsESaIS2_EE7_M_rootEv
FN:483,_ZNSt8_Rb_treeIcSt4pairIKcSt6vectorIdSaIdEEESt10_Select1stIS5_ESt4lessIcESaIS5_EE11_M_leftmostEv
FN:483,_ZNSt8_Rb_treeISsSt4pairIKSsdESt10_Select1stIS2_ESt4lessISsESaIS2_EE11_M_leftmostEv
FN:491,_ZNSt8_Rb_treeIcSt4pairIKcSt6vectorIdSaIdEEESt10_Select1stIS5_ESt4lessIcESaIS5_EE12_M_rightmostEv
FN:491,_ZNSt8_Rb_treeISsSt4pairIKSsdESt10_Select1stIS2_ESt4lessISsESaIS2_EE12_M_rightmostEv
FN:499,_ZNSt8_Rb_treeIcSt4pairIKcSt6vectorIdSaIdEEESt10_Select1stIS5_ESt4lessIcESaIS5_EE8_M_beginEv
FN:499,_ZNSt8_Rb_treeISsSt4pairIKSsSt6vectorIdSaIdEEESt10_Select1stIS5_ESt4lessISsESaIS5_EE8_M_beginEv
FN:499,_ZNSt8_Rb_treeISsSt4pairIKSsdESt10_Select1stIS2_ESt4lessISsESaIS2_EE8_M_beginEv
FN:503,_ZNKSt8_Rb_treeISsSt4pairIKSsdESt10_Select1stIS2_ESt4lessISsESaIS2_EE8_M_beginEv
FN:510,_ZNSt8_Rb_treeISsSt4pairIKSsdESt10_Select1stIS2_ESt4lessISsESaIS2_EE6_M_endEv
FN:510,_ZNSt8_Rb_treeIcSt4pairIKcSt6vectorIdSaIdEEESt10_Select1stIS5_ESt4lessIcESaIS5_EE6_M_endEv
FN:526,_ZNSt8_Rb_treeIcSt4pairIKcSt6vectorIdSaIdEEESt10_Select1stIS5_ESt4lessIcESaIS5_EE7_S_leftEPSt18_Rb_tree_node_base
FN:526,_ZNSt8_Rb_treeISsSt4pairIKSsSt6vectorIdSaIdEEESt10_Select1stIS5_ESt4lessISsESaIS5_EE7_S_leftEPSt18_Rb_tree_node_base
FN:526,_ZNSt8_Rb_treeISsSt4pairIKSsdESt10_Select1stIS2_ESt4lessISsESaIS2_EE7_S_leftEPSt18_Rb_tree_node_base
FN:530,_ZNSt8_Rb_treeISsSt4pairIKSsdESt10_Select1stIS2_ESt4lessISsESaIS2_EE7_S_leftEPKSt18_Rb_tree_node_base
FN:534,_ZNSt8_Rb_treeIcSt4pairIKcSt6vectorIdSaIdEEESt10_Select1stIS5_ESt4lessIcESaIS5_EE8_S_rightEPSt18_Rb_tree_node_base
FN:534,_ZNSt8_Rb_treeISsSt4pairIKSsdESt10_Select1stIS2_ESt4lessISsESaIS2_EE8_S_rightEPSt18_Rb_tree_node_base
FN:534,_ZNSt8_Rb_treeISsSt4pairIKSsSt6vectorIdSaIdEEESt10_Select1stIS5_ESt4lessISsESaIS5_EE8_S_rightEPSt18_Rb_tree_node_base
FN:538,_ZNSt8_Rb_treeISsSt4pairIKSsdESt10_Select1stIS2_ESt4lessISsESaIS2_EE8_S_rightEPKSt18_Rb_tree_node_base
FN:550,_ZNSt8_Rb_treeISsSt4pairIKSsdESt10_Select1stIS2_ESt4lessISsESaIS2_EE10_S_minimumEPSt18_Rb_tree_node_base
FN:558,_ZNSt8_Rb_treeISsSt4pairIKSsdESt10_Select1stIS2_ESt4lessISsESaIS2_EE10_S_maximumEPSt18_Rb_tree_node_base
FN:629,_ZNSt8_Rb_treeISsSt4pairIKSsdESt10_Select1stIS2_ESt4lessISsESaIS2_EEC2ERKS8_
FN:645,_ZNSt8_Rb_treeIcSt4pairIKcSt6vectorIdSaIdEEESt10_Select1stIS5_ESt4lessIcESaIS5_EED2Ev
FN:645,_ZNSt8_Rb_treeISsSt4pairIKSsSt6vectorIdSaIdEEESt10_Select1stIS5_ESt4lessISsESaIS5_EED2Ev
FN:645,_ZNSt8_Rb_treeISsSt4pairIKSsdESt10_Select1stIS2_ESt4lessISsESaIS2_EED2Ev
FN:664,_ZNKSt8_Rb_treeIcSt4pairIKcSt6vectorIdSaIdEEESt10_Select1stIS5_ESt4lessIcESaIS5_EE5beginEv
FN:814,_ZNSt8_Rb_treeIcSt4pairIKcSt6vectorIdSaIdEEESt10_Select1stIS5_ESt4lessIcESaIS5_EE5clearEv
FN:1040,_ZNSt8_Rb_treeISsSt4pairIKSsdESt10_Select1stIS2_ESt4lessISsESaIS2_EE7_M_copyEPKSt13_Rb_tree_nodeIS2_EPSA_
FN:1076,_ZNSt8_Rb_treeIcSt4pairIKcSt6vectorIdSaIdEEESt10_Select1stIS5_ESt4lessIcESaIS5_EE8_M_eraseEPSt13_Rb_tree_nodeIS5_E
FN:1076,_ZNSt8_Rb_treeISsSt4pairIKSsdESt10_Select1stIS2_ESt4lessISsESaIS2_EE8_M_eraseEPSt13_Rb_tree_nodeIS2_E
FN:1076,_ZNSt8_Rb_treeISsSt4pairIKSsSt6vectorIdSaIdEEESt10_Select1stIS5_ESt4lessISsESaIS5_EE8_M_eraseEPSt13_Rb_tree_nodeIS5_E
FN:1218,_ZNSt8_Rb_treeIcSt4pairIKcSt6vectorIdSaIdEEESt10_Select1stIS5_ESt4lessIcESaIS5_EE4swapERSB_
FNDA:0,_ZNSt18_Rb_tree_node_base10_S_minimumEPS_
FNDA:0,_ZNSt18_Rb_tree_node_base10_S_maximumEPS_
FNDA:0,_ZNSt13_Rb_tree_nodeISt4pairIKcSt6vectorIdSaIdEEEED2Ev
FNDA:0,_ZNSt13_Rb_tree_nodeISt4pairIKSsSt6vectorIdSaIdEEEED2Ev
FNDA:0,_ZNSt13_Rb_tree_nodeISt4pairIKSsdEED2Ev
FNDA:0,_ZNSt13_Rb_tree_nodeISt4pairIKSsdEEC2IIRKS2_EEEDpOT_
FNDA:0,_ZNSt23_Rb_tree_const_iteratorISt4pairIKcSt6vectorIdSaIdEEEEC2EPKSt13_Rb_tree_nodeIS5_E
FNDA:0,_ZNKSt23_Rb_tree_const_iteratorISt4pairIKcSt6vectorIdSaIdEEEEptEv
FNDA:0,_ZNSt8_Rb_treeISsSt4pairIKSsSt6vectorIdSaIdEEESt10_Select1stIS5_ESt4lessISsESaIS5_EE21_M_get_Node_allocatorEv
FNDA:0,_ZNSt8_Rb_treeISsSt4pairIKSsdESt10_Select1stIS2_ESt4lessISsESaIS2_EE21_M_get_Node_allocatorEv
FNDA:0,_ZNSt8_Rb_treeIcSt4pairIKcSt6vectorIdSaIdEEESt10_Select1stIS5_ESt4lessIcESaIS5_EE21_M_get_Node_allocatorEv
FNDA:0,_ZNKSt8_Rb_treeISsSt4pairIKSsdESt10_Select1stIS2_ESt4lessISsESaIS2_EE21_M_get_Node_allocatorEv
FNDA:0,_ZNSt8_Rb_treeISsSt4pairIKSsdESt10_Select1stIS2_ESt4lessISsESaIS2_EE11_M_get_nodeEv
FNDA:0,_ZNSt8_Rb_treeIcSt4pairIKcSt6vectorIdSaIdEEESt10_Select1stIS5_ESt4lessIcESaIS5_EE11_M_put_nodeEPSt13_Rb_tree_nodeIS5_E
FNDA:0,_ZNSt8_Rb_treeISsSt4pairIKSsSt6vectorIdSaIdEEESt10_Select1stIS5_ESt4lessISsESaIS5_EE11_M_put_nodeEPSt13_Rb_tree_nodeIS5_E
FNDA:0,_ZNSt8_Rb_treeISsSt4pairIKSsdESt10_Select1stIS2_ESt4lessISsESaIS2_EE11_M_put_nodeEPSt13_Rb_tree_nodeIS2_E
FNDA:0,_ZNSt8_Rb_treeISsSt4pairIKSsdESt10_Select1stIS2_ESt4lessISsESaIS2_EE14_M_create_nodeIIRKS2_EEEPSt13_Rb_tree_nodeIS2_EDpOT_
FNDA:0,_ZNSt8_Rb_treeIcSt4pairIKcSt6vectorIdSaIdEEESt10_Select1stIS5_ESt4lessIcESaIS5_EE15_M_destroy_nodeEPSt13_Rb_tree_nodeIS5_E
FNDA:0,_ZNSt8_Rb_treeISsSt4pairIKSsSt6vectorIdSaIdEEESt10_Select1stIS5_ESt4lessISsESaIS5_EE15_M_destroy_nodeEPSt13_Rb_tree_nodeIS5_E
FNDA:0,_ZNSt8_Rb_treeISsSt4pairIKSsdESt10_Select1stIS2_ESt4lessISsESaIS2_EE15_M_destroy_nodeEPSt13_Rb_tree_nodeIS2_E
FNDA:0,_ZNSt8_Rb_treeISsSt4pairIKSsdESt10_Select1stIS2_ESt4lessISsESaIS2_EE13_M_clone_nodeEPKSt13_Rb_tree_nodeIS2_E
FNDA:0,_ZNSt8_Rb_treeIcSt4pairIKcSt6vectorIdSaIdEEESt10_Select1stIS5_ESt4lessIcESaIS5_EE13_Rb_tree_implIS9_Lb1EED2Ev
FNDA:0,_ZNSt8_Rb_treeISsSt4pairIKSsSt6vectorIdSaIdEEESt10_Select1stIS5_ESt4lessISsESaIS5_EE13_Rb_tree_implIS9_Lb1EED2Ev
FNDA:0,_ZNSt8_Rb_treeISsSt4pairIKSsdESt10_Select1stIS2_ESt4lessISsESaIS2_EE13_Rb_tree_implIS6_Lb1EED2Ev
FNDA:0,_ZNSt8_Rb_treeISsSt4pairIKSsdESt10_Select1stIS2_ESt4lessISsESaIS2_EE13_Rb_tree_implIS6_Lb1EEC2ERKS6_RKSaISt13_Rb_tree_nodeIS2_EE
FNDA:0,_ZNSt8_Rb_treeISsSt4pairIKSsdESt10_Select1stIS2_ESt4lessISsESaIS2_EE13_Rb_tree_implIS6_Lb1EE13_M_initializeEv
FNDA:60,_ZNSt8_Rb_treeIcSt4pairIKcSt6vectorIdSaIdEEESt10_Select1stIS5_ESt4lessIcESaIS5_EE7_M_rootEv
FNDA:0,_ZNSt8_Rb_treeISsSt4pairIKSsdESt10_Select1stIS2_ESt4lessISsESaIS2_EE7_M_rootEv
FNDA:0,_ZNKSt8_Rb_treeISsSt4pairIKSsdESt10_Select1stIS2_ESt4lessISsESaIS2_EE7_M_rootEv
FNDA:0,_ZNSt8_Rb_treeIcSt4pairIKcSt6vectorIdSaIdEEESt10_Select1stIS5_ESt4lessIcESaIS5_EE11_M_leftmostEv
FNDA:0,_ZNSt8_Rb_treeISsSt4pairIKSsdESt10_Select1stIS2_ESt4lessISsESaIS2_EE11_M_leftmostEv
FNDA:0,_ZNSt8_Rb_treeIcSt4pairIKcSt6vectorIdSaIdEEESt10_Select1stIS5_ESt4lessIcESaIS5_EE12_M_rightmostEv
FNDA:0,_ZNSt8_Rb_treeISsSt4pairIKSsdESt10_Select1stIS2_ESt4lessISsESaIS2_EE12_M_rightmostEv
FNDA:0,_ZNSt8_Rb_treeIcSt4pairIKcSt6vectorIdSaIdEEESt10_Select1stIS5_ESt4lessIcESaIS5_EE8_M_beginEv
FNDA:0,_ZNSt8_Rb_treeISsSt4pairIKSsSt6vectorIdSaIdEEESt10_Select1stIS5_ESt4lessISsESaIS5_EE8_M_beginEv
FNDA:0,_ZNSt8_Rb_treeISsSt4pairIKSsdESt10_Select1stIS2_ESt4lessISsESaIS2_EE8_M_beginEv
FNDA:0,_ZNKSt8_Rb_treeISsSt4pairIKSsdESt10_Select1stIS2_ESt4lessISsESaIS2_EE8_M_beginEv
FNDA:0,_ZNSt8_Rb_treeIcSt4pairIKcSt6vectorIdSaIdEEESt10_Select1stIS5_ESt4lessIcESaIS5_EE6_M_endEv
FNDA:0,_ZNSt8_Rb_treeISsSt4pairIKSsdESt10_Select1stIS2_ESt4lessISsESaIS2_EE6_M_endEv
FNDA:0,_ZNSt8_Rb_treeIcSt4pairIKcSt6vectorIdSaIdEEESt10_Select1stIS5_ESt4lessIcESaIS5_EE7_S_leftEPSt18_Rb_tree_node_base
FNDA:0,_ZNSt8_Rb_treeISsSt4pairIKSsSt6vectorIdSaIdEEESt10_Select1stIS5_ESt4lessISsESaIS5_EE7_S_leftEPSt18_Rb_tree_node_base
FNDA:0,_ZNSt8_Rb_treeISsSt4pairIKSsdESt10_Select1stIS2_ESt4lessISsESaIS2_EE7_S_leftEPSt18_Rb_tree_node_base
FNDA:0,_ZNSt8_Rb_treeISsSt4pairIKSsdESt10_Select1stIS2_ESt4lessISsESaIS2_EE7_S_leftEPKSt18_Rb_tree_node_base
FNDA:0,_ZNSt8_Rb_treeIcSt4pairIKcSt6vectorIdSaIdEEESt10_Select1stIS5_ESt4lessIcESaIS5_EE8_S_rightEPSt18_Rb_tree_node_base
FNDA:0,_ZNSt8_Rb_treeISsSt4pairIKSsSt6vectorIdSaIdEEESt10_Select1stIS5_ESt4lessISsESaIS5_EE8_S_rightEPSt18_Rb_tree_node_base
FNDA:0,_ZNSt8_Rb_treeISsSt4pairIKSsdESt10_Select1stIS2_ESt4lessISsESaIS2_EE8_S_rightEPSt18_Rb_tree_node_base
FNDA:0,_ZNSt8_Rb_treeISsSt4pairIKSsdESt10_Select1stIS2_ESt4lessISsESaIS2_EE8_S_rightEPKSt18_Rb_tree_node_base
FNDA:0,_ZNSt8_Rb_treeISsSt4pairIKSsdESt10_Select1stIS2_ESt4lessISsESaIS2_EE10_S_minimumEPSt18_Rb_tree_node_base
FNDA:0,_ZNSt8_Rb_treeISsSt4pairIKSsdESt10_Select1stIS2_ESt4lessISsESaIS2_EE10_S_maximumEPSt18_Rb_tree_node_base
FNDA:0,_ZNSt8_Rb_treeISsSt4pairIKSsdESt10_Select1stIS2_ESt4lessISsESaIS2_EEC2ERKS8_
FNDA:0,_ZNSt8_Rb_treeIcSt4pairIKcSt6vectorIdSaIdEEESt10_Select1stIS5_ESt4lessIcESaIS5_EED2Ev
FNDA:0,_ZNSt8_Rb_treeISsSt4pairIKSsSt6vectorIdSaIdEEESt10_Select1stIS5_ESt4lessISsESaIS5_EED2Ev
FNDA:0,_ZNSt8_Rb_treeISsSt4pairIKSsdESt10_Select1stIS2_ESt4lessISsESaIS2_EED2Ev
FNDA:0,_ZNKSt8_Rb_treeIcSt4pairIKcSt6vectorIdSaIdEEESt10_Select1stIS5_ESt4lessIcESaIS5_EE5beginEv
FNDA:12,_ZNSt8_Rb_treeIcSt4pairIKcSt6vectorIdSaIdEEESt10_Select1stIS5_ESt4lessIcESaIS5_EE5clearEv
FNDA:0,_ZNSt8_Rb_treeISsSt4pairIKSsdESt10_Select1stIS2_ESt4lessISsESaIS2_EE7_M_copyEPKSt13_Rb_tree_nodeIS2_EPSA_
FNDA:0,_ZNSt8_Rb_treeIcSt4pairIKcSt6vectorIdSaIdEEESt10_Select1stIS5_ESt4lessIcESaIS5_EE8_M_eraseEPSt13_Rb_tree_nodeIS5_E
FNDA:0,_ZNSt8_Rb_treeISsSt4pairIKSsSt6vectorIdSaIdEEESt10_Select1stIS5_ESt4lessISsESaIS5_EE8_M_eraseEPSt13_Rb_tree_nodeIS5_E
FNDA:0,_ZNSt8_Rb_treeISsSt4pairIKSsdESt10_Select1stIS2_ESt4lessISsESaIS2_EE8_M_eraseEPSt13_Rb_tree_nodeIS2_E
FNDA:8,_ZNSt8_Rb_treeIcSt4pairIKcSt6vectorIdSaIdEEESt10_Select1stIS5_ESt4lessIcESaIS5_EE4swapERSB_
FNF:60
FNH:3
DA:101,0
DA:103,0
DA:104,0
DA:115,0
DA:117,0
DA:118,0
DA:130,0
DA:137,0
DA:139,0
DA:246,0
DA:247,0
DA:262,0
DA:264,0
DA:355,0
DA:356,0
DA:359,0
DA:360,0
DA:368,0
DA:369,0
DA:372,0
DA:373,0
DA:400,0
DA:402,0
DA:405,0
DA:408,0
DA:410,0
DA:411,0
DA:413,0
DA:417,0
DA:419,0
DA:420,0
DA:421,0
DA:425,0
DA:427,0
DA:428,0
DA:429,0
DA:430,0
DA:431,0
DA:437,0
DA:448,0
DA:450,0
DA:451,0
DA:462,0
DA:464,0
DA:465,0
DA:466,0
DA:467,0
DA:468,0
DA:475,60
DA:476,60
DA:479,0
DA:480,0
DA:483,0
DA:484,0
DA:491,0
DA:492,0
DA:499,0
DA:500,0
DA:503,0
DA:506,0
DA:510,0
DA:511,0
DA:526,0
DA:527,0
DA:530,0
DA:531,0
DA:534,0
DA:535,0
DA:538,0
DA:539,0
DA:550,0
DA:551,0
DA:558,0
DA:559,0
DA:629,0
DA:630,0
DA:632,0
DA:634,0
DA:635,0
DA:636,0
DA:637,0
DA:639,0
DA:645,0
DA:646,0
DA:664,0
DA:667,0
DA:814,12
DA:816,12
DA:817,12
DA:818,12
DA:819,12
DA:820,12
DA:821,12
DA:1040,0
DA:1044,0
DA:1045,0
DA:1049,0
DA:1050,0
DA:1051,0
DA:1052,0
DA:1054,0
DA:1056,0
DA:1057,0
DA:1058,0
DA:1059,0
DA:1060,0
DA:1061,0
DA:1062,0
DA:1065,0
DA:1067,0
DA:1068,0
DA:1070,0
DA:1076,0
DA:1080,0
DA:1082,0
DA:1083,0
DA:1084,0
DA:1085,0
DA:1087,0
DA:1218,8
DA:1221,8
DA:1223,8
DA:1225,8
DA:1226,8
DA:1227,8
DA:1228,8
DA:1230,8
DA:1231,8
DA:1232,8
DA:1235,0
DA:1237,0
DA:1238,0
DA:1239,0
DA:1240,0
DA:1242,0
DA:1243,0
DA:1244,0
DA:1248,0
DA:1249,0
DA:1250,0
DA:1252,0
DA:1253,0
DA:1256,8
DA:1257,8
DA:1261,8
DA:1263,8
LF:146
LH:23
end_of_record
SF:/usr/include/c++/4.7.2/bits/stl_uninitialized.h
FN:70,_ZNSt20__uninitialized_copyILb0EE13__uninit_copyISt13move_iteratorIPN5fasta8SequenceEES5_EET0_T_S8_S7_
FN:70,_ZNSt20__uninitialized_copyILb0EE13__uninit_copyIN9__gnu_cxx17__normal_iteratorIPKN5fasta8SequenceESt6vectorIS5_SaIS5_EEEEPS5_EET0_T_SE_SD_
FN:70,_ZNSt20__uninitialized_copyILb0EE13__uninit_copyIN9__gnu_cxx17__normal_iteratorIPKSsSt6vectorISsSaISsEEEEPSsEET0_T_SC_SB_
FN:70,_ZNSt20__uninitialized_copyILb0EE13__uninit_copyIPKSt6vectorIN5fasta8SequenceESaIS4_EEPS6_EET0_T_SB_SA_
FN:70,_ZNSt20__uninitialized_copyILb0EE13__uninit_copyIN9__gnu_cxx17__normal_iteratorIPKN5fasta7ResidueESt6vectorIS5_SaIS5_EEEEPS5_EET0_T_SE_SD_
FN:70,_ZNSt20__uninitialized_copyILb0EE13__uninit_copyISt13move_iteratorIPN5fasta7ResidueEES5_EET0_T_S8_S7_
FN:70,_ZNSt20__uninitialized_copyILb0EE13__uninit_copyIPKN5fasta8SequenceEPS3_EET0_T_S8_S7_
FN:93,_ZNSt20__uninitialized_copyILb1EE13__uninit_copyISt13move_iteratorIPdES3_EET0_T_S6_S5_
FN:93,_ZNSt20__uninitialized_copyILb1EE13__uninit_copyIPKdPdEET0_T_S6_S5_
FN:109,_ZSt18uninitialized_copyIN9__gnu_cxx17__normal_iteratorIPKN5fasta7ResidueESt6vectorIS3_SaIS3_EEEEPS3_ET0_T_SC_SB_
FN:109,_ZSt18uninitialized_copyIN9__gnu_cxx17__normal_iteratorIPKSsSt6vectorISsSaISsEEEEPSsET0_T_SA_S9_
FN:109,_ZSt18uninitialized_copyISt13move_iteratorIPN5fasta7ResidueEES3_ET0_T_S6_S5_
FN:109,_ZSt18uninitialized_copyIPKN5fasta8SequenceEPS1_ET0_T_S6_S5_
FN:109,_ZSt18uninitialized_copyIPKdPdET0_T_S4_S3_
FN:109,_ZSt18uninitialized_copyISt13move_iteratorIPdES1_ET0_T_S4_S3_
FN:109,_ZSt18uninitialized_copyISt13move_iteratorIPN5fasta8SequenceEES3_ET0_T_S6_S5_
FN:109,_ZSt18uninitialized_copyIN9__gnu_cxx17__normal_iteratorIPKN5fasta8SequenceESt6vectorIS3_SaIS3_EEEEPS3_ET0_T_SC_SB_
FN:109,_ZSt18uninitialized_copyIPKSt6vectorIN5fasta8SequenceESaIS2_EEPS4_ET0_T_S9_S8_
FN:258,_ZSt22__uninitialized_copy_aIN9__gnu_cxx17__normal_iteratorIPKN5fasta8SequenceESt6vectorIS3_SaIS3_EEEEPS3_S3_ET0_T_SC_SB_RSaIT1_E
FN:258,_ZSt22__uninitialized_copy_aISt13move_iteratorIPN5fasta8SequenceEES3_S2_ET0_T_S6_S5_RSaIT1_E
FN:258,_ZSt22__uninitialized_copy_aISt13move_iteratorIPdES1_dET0_T_S4_S3_RSaIT1_E
FN:258,_ZSt22__uninitialized_copy_aIPKSt6vectorIN5fasta8SequenceESaIS2_EEPS4_S4_ET0_T_S9_S8_RSaIT1_E
FN:258,_ZSt22__uninitialized_copy_aIN9__gnu_cxx17__normal_iteratorIPKN5fasta7ResidueESt6vectorIS3_SaIS3_EEEEPS3_S3_ET0_T_SC_SB_RSaIT1_E
FN:258,_ZSt22__uninitialized_copy_aIPKdPddET0_T_S4_S3_RSaIT1_E
FN:258,_ZSt22__uninitialized_copy_aISt13move_iteratorIPN5fasta7ResidueEES3_S2_ET0_T_S6_S5_RSaIT1_E
FN:258,_ZSt22__uninitialized_copy_aIN9__gnu_cxx17__normal_iteratorIPKSsSt6vectorISsSaISsEEEEPSsSsET0_T_SA_S9_RSaIT1_E
FN:258,_ZSt22__uninitialized_copy_aIPKN5fasta8SequenceEPS1_S1_ET0_T_S6_S5_RSaIT1_E
FN:276,_ZSt34__uninitialized_move_if_noexcept_aIPN5fasta7ResidueES2_SaIS1_EET0_T_S5_S4_RT1_
FN:276,_ZSt34__uninitialized_move_if_noexcept_aIPdS0_SaIdEET0_T_S3_S2_RT1_
FN:276,_ZSt34__uninitialized_move_if_noexcept_aIPN5fasta8SequenceES2_SaIS1_EET0_T_S5_S4_RT1_
FNDA:0,_ZNSt20__uninitialized_copyILb0EE13__uninit_copyIN9__gnu_cxx17__normal_iteratorIPKN5fasta8SequenceESt6vectorIS5_SaIS5_EEEEPS5_EET0_T_SE_SD_
FNDA:0,_ZNSt20__uninitialized_copyILb0EE13__uninit_copyISt13move_iteratorIPN5fasta8SequenceEES5_EET0_T_S8_S7_
FNDA:0,_ZNSt20__uninitialized_copyILb0EE13__uninit_copyISt13move_iteratorIPN5fasta7ResidueEES5_EET0_T_S8_S7_
FNDA:44,_ZNSt20__uninitialized_copyILb0EE13__uninit_copyIPKSt6vectorIN5fasta8SequenceESaIS4_EEPS6_EET0_T_SB_SA_
FNDA:0,_ZNSt20__uninitialized_copyILb0EE13__uninit_copyIPKN5fasta8SequenceEPS3_EET0_T_S8_S7_
FNDA:0,_ZNSt20__uninitialized_copyILb0EE13__uninit_copyIN9__gnu_cxx17__normal_iteratorIPKN5fasta7ResidueESt6vectorIS5_SaIS5_EEEEPS5_EET0_T_SE_SD_
FNDA:0,_ZNSt20__uninitialized_copyILb0EE13__uninit_copyIN9__gnu_cxx17__normal_iteratorIPKSsSt6vectorISsSaISsEEEEPSsEET0_T_SC_SB_
FNDA:8,_ZNSt20__uninitialized_copyILb1EE13__uninit_copyISt13move_iteratorIPdES3_EET0_T_S6_S5_
FNDA:0,_ZNSt20__uninitialized_copyILb1EE13__uninit_copyIPKdPdEET0_T_S6_S5_
FNDA:0,_ZSt18uninitialized_copyIN9__gnu_cxx17__normal_iteratorIPKN5fasta8SequenceESt6vectorIS3_SaIS3_EEEEPS3_ET0_T_SC_SB_
FNDA:0,_ZSt18uninitialized_copyISt13move_iteratorIPN5fasta8SequenceEES3_ET0_T_S6_S5_
FNDA:0,_ZSt18uninitialized_copyISt13move_iteratorIPN5fasta7ResidueEES3_ET0_T_S6_S5_
FNDA:8,_ZSt18uninitialized_copyISt13move_iteratorIPdES1_ET0_T_S4_S3_
FNDA:44,_ZSt18uninitialized_copyIPKSt6vectorIN5fasta8SequenceESaIS2_EEPS4_ET0_T_S9_S8_
FNDA:0,_ZSt18uninitialized_copyIPKdPdET0_T_S4_S3_
FNDA:0,_ZSt18uninitialized_copyIPKN5fasta8SequenceEPS1_ET0_T_S6_S5_
FNDA:0,_ZSt18uninitialized_copyIN9__gnu_cxx17__normal_iteratorIPKN5fasta7ResidueESt6vectorIS3_SaIS3_EEEEPS3_ET0_T_SC_SB_
FNDA:0,_ZSt18uninitialized_copyIN9__gnu_cxx17__normal_iteratorIPKSsSt6vectorISsSaISsEEEEPSsET0_T_SA_S9_
FNDA:0,_ZSt22__uninitialized_copy_aIN9__gnu_cxx17__normal_iteratorIPKN5fasta8SequenceESt6vectorIS3_SaIS3_EEEEPS3_S3_ET0_T_SC_SB_RSaIT1_E
FNDA:0,_ZSt22__uninitialized_copy_aISt13move_iteratorIPN5fasta8SequenceEES3_S2_ET0_T_S6_S5_RSaIT1_E
FNDA:0,_ZSt22__uninitialized_copy_aISt13move_iteratorIPN5fasta7ResidueEES3_S2_ET0_T_S6_S5_RSaIT1_E
FNDA:8,_ZSt22__uninitialized_copy_aISt13move_iteratorIPdES1_dET0_T_S4_S3_RSaIT1_E
FNDA:44,_ZSt22__uninitialized_copy_aIPKSt6vectorIN5fasta8SequenceESaIS2_EEPS4_S4_ET0_T_S9_S8_RSaIT1_E
FNDA:0,_ZSt22__uninitialized_copy_aIPKdPddET0_T_S4_S3_RSaIT1_E
FNDA:0,_ZSt22__uninitialized_copy_aIPKN5fasta8SequenceEPS1_S1_ET0_T_S6_S5_RSaIT1_E
FNDA:0,_ZSt22__uninitialized_copy_aIN9__gnu_cxx17__normal_iteratorIPKN5fasta7ResidueESt6vectorIS3_SaIS3_EEEEPS3_S3_ET0_T_SC_SB_RSaIT1_E
FNDA:0,_ZSt22__uninitialized_copy_aIN9__gnu_cxx17__normal_iteratorIPKSsSt6vectorISsSaISsEEEEPSsSsET0_T_SA_S9_RSaIT1_E
FNDA:0,_ZSt34__uninitialized_move_if_noexcept_aIPN5fasta8SequenceES2_SaIS1_EET0_T_S5_S4_RT1_
FNDA:0,_ZSt34__uninitialized_move_if_noexcept_aIPN5fasta7ResidueES2_SaIS1_EET0_T_S5_S4_RT1_
FNDA:8,_ZSt34__uninitialized_move_if_noexcept_aIPdS0_SaIdEET0_T_S3_S2_RT1_
FNF:30
FNH:7
DA:70,44
DA:73,44
DA:76,132
DA:77,88
DA:78,44
DA:80,0
DA:82,0
DA:83,0
DA:93,8
DA:95,8
DA:109,52
DA:119,52
DA:258,52
DA:260,52
DA:276,8
DA:283,8
LF:16
LH:13
end_of_record
SF:/usr/include/c++/4.7.2/bits/stl_vector.h
FN:80,_ZNSt12_Vector_baseISt6vectorIdSaIdEESaIS2_EE12_Vector_implD2Ev
FN:80,_ZNSt12_Vector_baseIN5fasta8SequenceESaIS1_EE12_Vector_implD2Ev
FN:80,_ZNSt12_Vector_baseIdSaIdEE12_Vector_implD2Ev
FN:80,_ZNSt12_Vector_baseIN5boost10filesystem18directory_iteratorESaIS2_EE12_Vector_implD2Ev
FN:80,_ZNSt12_Vector_baseISsSaISsEE12_Vector_implD2Ev
FN:80,_ZNSt12_Vector_baseIN5fasta7ResidueESaIS1_EE12_Vector_implD2Ev
FN:80,_ZNSt12_Vector_baseISt6vectorIN5fasta8SequenceESaIS2_EESaIS4_EE12_Vector_implD2Ev
FN:87,_ZNSt12_Vector_baseIN5fasta8SequenceESaIS1_EE12_Vector_implC2Ev
FN:87,_ZNSt12_Vector_baseIdSaIdEE12_Vector_implC2Ev
FN:87,_ZNSt12_Vector_baseIN5fasta7ResidueESaIS1_EE12_Vector_implC2Ev
FN:87,_ZNSt12_Vector_baseISt6vectorIN5fasta8SequenceESaIS2_EESaIS4_EE12_Vector_implC2Ev
FN:91,_ZNSt12_Vector_baseISsSaISsEE12_Vector_implC2ERKS0_
FN:91,_ZNSt12_Vector_baseISt6vectorIN5fasta8SequenceESaIS2_EESaIS4_EE12_Vector_implC2ERKS5_
FN:91,_ZNSt12_Vector_baseIN5fasta8SequenceESaIS1_EE12_Vector_implC2ERKS2_
FN:91,_ZNSt12_Vector_baseIN5fasta7ResidueESaIS1_EE12_Vector_implC2ERKS2_
FN:91,_ZNSt12_Vector_baseIdSaIdEE12_Vector_implC2ERKS0_
FN:96,_ZNSt12_Vector_baseIN5fasta7ResidueESaIS1_EE12_Vector_implC2EOS2_
FN:96,_ZNSt12_Vector_baseIdSaIdEE12_Vector_implC2EOS0_
FN:96,_ZNSt12_Vector_baseISt6vectorIN5fasta8SequenceESaIS2_EESaIS4_EE12_Vector_implC2EOS5_
FN:96,_ZNSt12_Vector_baseISsSaISsEE12_Vector_implC2EOS0_
FN:96,_ZNSt12_Vector_baseIN5fasta8SequenceESaIS1_EE12_Vector_implC2EOS2_
FN:102,_ZNSt12_Vector_baseISsSaISsEE12_Vector_impl12_M_swap_dataERS2_
FN:102,_ZNSt12_Vector_baseIdSaIdEE12_Vector_impl12_M_swap_dataERS2_
FN:102,_ZNSt12_Vector_baseISt6vectorIN5fasta8SequenceESaIS2_EESaIS4_EE12_Vector_impl12_M_swap_dataERS7_
FN:102,_ZNSt12_Vector_baseIN5fasta8SequenceESaIS1_EE12_Vector_impl12_M_swap_dataERS4_
FN:102,_ZNSt12_Vector_baseIN5fasta7ResidueESaIS1_EE12_Vector_impl12_M_swap_dataERS4_
FN:114,_ZNSt12_Vector_baseIN5fasta8SequenceESaIS1_EE19_M_get_Tp_allocatorEv
FN:114,_ZNSt12_Vector_baseISt6vectorIN5fasta8SequenceESaIS2_EESaIS4_EE19_M_get_Tp_allocatorEv
FN:114,_ZNSt12_Vector_baseIN5fasta7ResidueESaIS1_EE19_M_get_Tp_allocatorEv
FN:114,_ZNSt12_Vector_baseIN5boost10filesystem18directory_iteratorESaIS2_EE19_M_get_Tp_allocatorEv
FN:114,_ZNSt12_Vector_baseIdSaIdEE19_M_get_Tp_allocatorEv
FN:114,_ZNSt12_Vector_baseISt6vectorIdSaIdEESaIS2_EE19_M_get_Tp_allocatorEv
FN:114,_ZNSt12_Vector_baseISsSaISsEE19_M_get_Tp_allocatorEv
FN:118,_ZNKSt12_Vector_baseISsSaISsEE19_M_get_Tp_allocatorEv
FN:118,_ZNKSt12_Vector_baseIN5fasta8SequenceESaIS1_EE19_M_get_Tp_allocatorEv
FN:118,_ZNKSt12_Vector_baseIdSaIdEE19_M_get_Tp_allocatorEv
FN:118,_ZNKSt12_Vector_baseIN5fasta7ResidueESaIS1_EE19_M_get_Tp_allocatorEv
FN:125,_ZNSt12_Vector_baseISt6vectorIN5fasta8SequenceESaIS2_EESaIS4_EEC2Ev
FN:125,_ZNSt12_Vector_baseIdSaIdEEC2Ev
FN:125,_ZNSt12_Vector_baseIN5fasta8SequenceESaIS1_EEC2Ev
FN:125,_ZNSt12_Vector_baseIN5fasta7ResidueESaIS1_EEC2Ev
FN:128,_ZNSt12_Vector_baseIN5fasta8SequenceESaIS1_EEC2ERKS2_
FN:128,_ZNSt12_Vector_baseIdSaIdEEC2ERKS0_
FN:128,_ZNSt12_Vector_baseISt6vectorIN5fasta8SequenceESaIS2_EESaIS4_EEC2ERKS5_
FN:135,_ZNSt12_Vector_baseISsSaISsEEC2EmRKS0_
FN:135,_ZNSt12_Vector_baseIN5fasta8SequenceESaIS1_EEC2EmRKS2_
FN:135,_ZNSt12_Vector_baseIN5fasta7ResidueESaIS1_EEC2EmRKS2_
FN:143,_ZNSt12_Vector_baseIN5fasta8SequenceESaIS1_EEC2EOS3_
FN:143,_ZNSt12_Vector_baseIN5fasta7ResidueESaIS1_EEC2EOS3_
FN:143,_ZNSt12_Vector_baseISsSaISsEEC2EOS1_
FN:143,_ZNSt12_Vector_baseIdSaIdEEC2EOS1_
FN:143,_ZNSt12_Vector_baseISt6vectorIN5fasta8SequenceESaIS2_EESaIS4_EEC2EOS6_
FN:160,_ZNSt12_Vector_baseIN5fasta7ResidueESaIS1_EED2Ev
FN:160,_ZNSt12_Vector_baseISsSaISsEED2Ev
FN:160,_ZNSt12_Vector_baseISt6vectorIN5fasta8SequenceESaIS2_EESaIS4_EED2Ev
FN:160,_ZNSt12_Vector_baseIN5boost10filesystem18directory_iteratorESaIS2_EED2Ev
FN:160,_ZNSt12_Vector_baseIdSaIdEED2Ev
FN:160,_ZNSt12_Vector_baseISt6vectorIdSaIdEESaIS2_EED2Ev
FN:160,_ZNSt12_Vector_baseIN5fasta8SequenceESaIS1_EED2Ev
FN:168,_ZNSt12_Vector_baseISsSaISsEE11_M_allocateEm
FN:168,_ZNSt12_Vector_baseIN5fasta7ResidueESaIS1_EE11_M_allocateEm
FN:168,_ZNSt12_Vector_baseISt6vectorIN5fasta8SequenceESaIS2_EESaIS4_EE11_M_allocateEm
FN:168,_ZNSt12_Vector_baseIdSaIdEE11_M_allocateEm
FN:168,_ZNSt12_Vector_baseIN5fasta8SequenceESaIS1_EE11_M_allocateEm
FN:172,_ZNSt12_Vector_baseISt6vectorIdSaIdEESaIS2_EE13_M_deallocateEPS2_m
FN:172,_ZNSt12_Vector_baseIN5fasta7ResidueESaIS1_EE13_M_deallocateEPS1_m
FN:172,_ZNSt12_Vector_baseIN5fasta8SequenceESaIS1_EE13_M_deallocateEPS1_m
FN:172,_ZNSt12_Vector_baseISt6vectorIN5fasta8SequenceESaIS2_EESaIS4_EE13_M_deallocateEPS4_m
FN:172,_ZNSt12_Vector_baseISsSaISsEE13_M_deallocateEPSsm
FN:172,_ZNSt12_Vector_baseIdSaIdEE13_M_deallocateEPdm
FN:172,_ZNSt12_Vector_baseIN5boost10filesystem18directory_iteratorESaIS2_EE13_M_deallocateEPS2_m
FN:180,_ZNSt12_Vector_baseISsSaISsEE17_M_create_storageEm
FN:180,_ZNSt12_Vector_baseIN5fasta8SequenceESaIS1_EE17_M_create_storageEm
FN:180,_ZNSt12_Vector_baseIN5fasta7ResidueESaIS1_EE17_M_create_storageEm
FN:246,_ZNSt6vectorIN5fasta8SequenceESaIS1_EEC2Ev
FN:246,_ZNSt6vectorIS_IN5fasta8SequenceESaIS1_EESaIS3_EEC2Ev
FN:246,_ZNSt6vectorIdSaIdEEC2Ev
FN:246,_ZNSt6vectorIN5fasta7ResidueESaIS1_EEC2Ev
FN:307,_ZNSt6vectorISsSaISsEEC2ERKS1_
FN:307,_ZNSt6vectorIN5fasta7ResidueESaIS1_EEC2ERKS3_
FN:307,_ZNSt6vectorIN5fasta8SequenceESaIS1_EEC2ERKS3_
FN:324,_ZNSt6vectorIS_IN5fasta8SequenceESaIS1_EESaIS3_EEC2EOS5_
FN:324,_ZNSt6vectorIdSaIdEEC2EOS1_
FN:324,_ZNSt6vectorIN5fasta8SequenceESaIS1_EEC2EOS3_
FN:324,_ZNSt6vectorIN5fasta7ResidueESaIS1_EEC2EOS3_
FN:324,_ZNSt6vectorISsSaISsEEC2EOS1_
FN:361,_ZNSt6vectorIS_IN5fasta8SequenceESaIS1_EESaIS3_EEC2ESt16initializer_listIS3_ERKS4_
FN:361,_ZNSt6vectorIdSaIdEEC2ESt16initializer_listIdERKS0_
FN:361,_ZNSt6vectorIN5fasta8SequenceESaIS1_EEC2ESt16initializer_listIS1_ERKS2_
FN:402,_ZNSt6vectorIS_IdSaIdEESaIS1_EED2Ev
FN:402,_ZNSt6vectorIN5fasta8SequenceESaIS1_EED2Ev
FN:402,_ZNSt6vectorIS_IN5fasta8SequenceESaIS1_EESaIS3_EED2Ev
FN:402,_ZNSt6vectorISsSaISsEED2Ev
FN:402,_ZNSt6vectorIdSaIdEED2Ev
FN:402,_ZNSt6vectorIN5boost10filesystem18directory_iteratorESaIS2_EED2Ev
FN:402,_ZNSt6vectorIN5fasta7ResidueESaIS1_EED2Ev
FN:427,_ZNSt6vectorIN5fasta8SequenceESaIS1_EEaSEOS3_
FN:427,_ZNSt6vectorIdSaIdEEaSEOS1_
FN:427,_ZNSt6vectorIS_IN5fasta8SequenceESaIS1_EESaIS3_EEaSEOS5_
FN:527,_ZNKSt6vectorIN5fasta7ResidueESaIS1_EE5beginEv
FN:527,_ZNKSt6vectorISsSaISsEE5beginEv
FN:527,_ZNKSt6vectorIdSaIdEE5beginEv
FN:527,_ZNKSt6vectorIN5fasta8SequenceESaIS1_EE5beginEv
FN:545,_ZNKSt6vectorIN5fasta7ResidueESaIS1_EE3endEv
FN:545,_ZNKSt6vectorIdSaIdEE3endEv
FN:545,_ZNKSt6vectorISsSaISsEE3endEv
FN:545,_ZNKSt6vectorIN5fasta8SequenceESaIS1_EE3endEv
FN:625,_ZNKSt6vectorISsSaISsEE4sizeEv
FN:625,_ZNKSt6vectorIN5fasta7ResidueESaIS1_EE4sizeEv
FN:625,_ZNKSt6vectorIdSaIdEE4sizeEv
FN:625,_ZNKSt6vectorIN5fasta8SequenceESaIS1_EE4sizeEv
FN:630,_ZNKSt6vectorIN5fasta8SequenceESaIS1_EE8max_sizeEv
FN:630,_ZNKSt6vectorIdSaIdEE8max_sizeEv
FN:630,_ZNKSt6vectorIN5fasta7ResidueESaIS1_EE8max_sizeEv
FN:750,_ZNSt6vectorIN5fasta8SequenceESaIS1_EEixEm
FN:750,_ZNSt6vectorIS_IN5fasta8SequenceESaIS1_EESaIS3_EEixEm
FN:750,_ZNSt6vectorIN5fasta7ResidueESaIS1_EEixEm
FN:765,_ZNKSt6vectorIN5fasta7ResidueESaIS1_EEixEm
FN:765,_ZNKSt6vectorIdSaIdEEixEm
FN:765,_ZNKSt6vectorIN5fasta8SequenceESaIS1_EEixEm
FN:881,_ZNSt6vectorIN5fasta7ResidueESaIS1_EE9push_backERKS1_
FN:881,_ZNSt6vectorIdSaIdEE9push_backERKd
FN:881,_ZNSt6vectorIN5fasta8SequenceESaIS1_EE9push_backERKS1_
FN:1164,_ZNSt6vectorIN5fasta8SequenceESaIS1_EE19_M_range_initializeIPKS1_EEvT_S7_St20forward_iterator_tag
FN:1164,_ZNSt6vectorIdSaIdEE19_M_range_initializeIPKdEEvT_S5_St20forward_iterator_tag
FN:1164,_ZNSt6vectorIS_IN5fasta8SequenceESaIS1_EESaIS3_EE19_M_range_initializeIPKS3_EEvT_S9_St20forward_iterator_tag
FN:1303,_ZNKSt6vectorIN5fasta8SequenceESaIS1_EE12_M_check_lenEmPKc
FN:1303,_ZNKSt6vectorIdSaIdEE12_M_check_lenEmPKc
FN:1303,_ZNKSt6vectorIN5fasta7ResidueESaIS1_EE12_M_check_lenEmPKc
FN:1329,_ZNSt6vectorIS_IN5fasta8SequenceESaIS1_EESaIS3_EE14_M_move_assignEOS5_St17integral_constantIbLb1EE
FN:1329,_ZNSt6vectorIdSaIdEE14_M_move_assignEOS1_St17integral_constantIbLb1EE
FN:1329,_ZNSt6vectorIN5fasta8SequenceESaIS1_EE14_M_move_assignEOS3_St17integral_constantIbLb1EE
FNDA:0,_ZNSt12_Vector_baseISt6vectorIdSaIdEESaIS2_EE12_Vector_implD2Ev
FNDA:96,_ZNSt12_Vector_baseISt6vectorIN5fasta8SequenceESaIS2_EESaIS4_EE12_Vector_implD2Ev
FNDA:0,_ZNSt12_Vector_baseIdSaIdEE12_Vector_implD2Ev
FNDA:0,_ZNSt12_Vector_baseIN5fasta8SequenceESaIS1_EE12_Vector_implD2Ev
FNDA:0,_ZNSt12_Vector_baseIN5fasta7ResidueESaIS1_EE12_Vector_implD2Ev
FNDA:0,_ZNSt12_Vector_baseIN5boost10filesystem18directory_iteratorESaIS2_EE12_Vector_implD2Ev
FNDA:0,_ZNSt12_Vector_baseISsSaISsEE12_Vector_implD2Ev
FNDA:0,_ZNSt12_Vector_baseIN5fasta8SequenceESaIS1_EE12_Vector_implC2Ev
FNDA:0,_ZNSt12_Vector_baseIN5fasta7ResidueESaIS1_EE12_Vector_implC2Ev
FNDA:8,_ZNSt12_Vector_baseISt6vectorIN5fasta8SequenceESaIS2_EESaIS4_EE12_Vector_implC2Ev
FNDA:0,_ZNSt12_Vector_baseIdSaIdEE12_Vector_implC2Ev
FNDA:44,_ZNSt12_Vector_baseISt6vectorIN5fasta8SequenceESaIS2_EESaIS4_EE12_Vector_implC2ERKS5_
FNDA:0,_ZNSt12_Vector_baseIdSaIdEE12_Vector_implC2ERKS0_
FNDA:0,_ZNSt12_Vector_baseIN5fasta8SequenceESaIS1_EE12_Vector_implC2ERKS2_
FNDA:0,_ZNSt12_Vector_baseIN5fasta7ResidueESaIS1_EE12_Vector_implC2ERKS2_
FNDA:0,_ZNSt12_Vector_baseISsSaISsEE12_Vector_implC2ERKS0_
FNDA:0,_ZNSt12_Vector_baseISsSaISsEE12_Vector_implC2EOS0_
FNDA:0,_ZNSt12_Vector_baseIdSaIdEE12_Vector_implC2EOS0_
FNDA:28,_ZNSt12_Vector_baseIN5fasta8SequenceESaIS1_EE12_Vector_implC2EOS2_
FNDA:44,_ZNSt12_Vector_baseISt6vectorIN5fasta8SequenceESaIS2_EESaIS4_EE12_Vector_implC2EOS5_
FNDA:0,_ZNSt12_Vector_baseIN5fasta7ResidueESaIS1_EE12_Vector_implC2EOS2_
FNDA:0,_ZNSt12_Vector_baseISsSaISsEE12_Vector_impl12_M_swap_dataERS2_
FNDA:56,_ZNSt12_Vector_baseIN5fasta8SequenceESaIS1_EE12_Vector_impl12_M_swap_dataERS4_
FNDA:88,_ZNSt12_Vector_baseISt6vectorIN5fasta8SequenceESaIS2_EESaIS4_EE12_Vector_impl12_M_swap_dataERS7_
FNDA:0,_ZNSt12_Vector_baseIdSaIdEE12_Vector_impl12_M_swap_dataERS2_
FNDA:0,_ZNSt12_Vector_baseIN5fasta7ResidueESaIS1_EE12_Vector_impl12_M_swap_dataERS4_
FNDA:0,_ZNSt12_Vector_baseISt6vectorIdSaIdEESaIS2_EE19_M_get_Tp_allocatorEv
FNDA:184,_ZNSt12_Vector_baseISt6vectorIN5fasta8SequenceESaIS2_EESaIS4_EE19_M_get_Tp_allocatorEv
FNDA:0,_ZNSt12_Vector_baseIdSaIdEE19_M_get_Tp_allocatorEv
FNDA:0,_ZNSt12_Vector_baseIN5fasta8SequenceESaIS1_EE19_M_get_Tp_allocatorEv
FNDA:0,_ZNSt12_Vector_baseIN5fasta7ResidueESaIS1_EE19_M_get_Tp_allocatorEv
FNDA:0,_ZNSt12_Vector_baseIN5boost10filesystem18directory_iteratorESaIS2_EE19_M_get_Tp_allocatorEv
FNDA:0,_ZNSt12_Vector_baseISsSaISsEE19_M_get_Tp_allocatorEv
FNDA:0,_ZNKSt12_Vector_baseIN5fasta8SequenceESaIS1_EE19_M_get_Tp_allocatorEv
FNDA:0,_ZNKSt12_Vector_baseIdSaIdEE19_M_get_Tp_allocatorEv
FNDA:0,_ZNKSt12_Vector_baseIN5fasta7ResidueESaIS1_EE19_M_get_Tp_allocatorEv
FNDA:0,_ZNKSt12_Vector_baseISsSaISsEE19_M_get_Tp_allocatorEv
FNDA:0,_ZNSt12_Vector_baseIN5fasta8SequenceESaIS1_EEC2Ev
FNDA:0,_ZNSt12_Vector_baseIN5fasta7ResidueESaIS1_EEC2Ev
FNDA:8,_ZNSt12_Vector_baseISt6vectorIN5fasta8SequenceESaIS2_EESaIS4_EEC2Ev
FNDA:0,_ZNSt12_Vector_baseIdSaIdEEC2Ev
FNDA:44,_ZNSt12_Vector_baseISt6vectorIN5fasta8SequenceESaIS2_EESaIS4_EEC2ERKS5_
FNDA:0,_ZNSt12_Vector_baseIdSaIdEEC2ERKS0_
FNDA:0,_ZNSt12_Vector_baseIN5fasta8SequenceESaIS1_EEC2ERKS2_
FNDA:88,_ZNSt12_Vector_baseIN5fasta8SequenceESaIS1_EEC2EmRKS2_
FNDA:0,_ZNSt12_Vector_baseIN5fasta7ResidueESaIS1_EEC2EmRKS2_
FNDA:0,_ZNSt12_Vector_baseISsSaISsEEC2EmRKS0_
FNDA:0,_ZNSt12_Vector_baseISsSaISsEEC2EOS1_
FNDA:0,_ZNSt12_Vector_baseIdSaIdEEC2EOS1_
FNDA:28,_ZNSt12_Vector_baseIN5fasta8SequenceESaIS1_EEC2EOS3_
FNDA:44,_ZNSt12_Vector_baseISt6vectorIN5fasta8SequenceESaIS2_EESaIS4_EEC2EOS6_
FNDA:0,_ZNSt12_Vector_baseIN5fasta7ResidueESaIS1_EEC2EOS3_
FNDA:0,_ZNSt12_Vector_baseISt6vectorIdSaIdEESaIS2_EED2Ev
FNDA:96,_ZNSt12_Vector_baseISt6vectorIN5fasta8SequenceESaIS2_EESaIS4_EED2Ev
FNDA:0,_ZNSt12_Vector_baseIdSaIdEED2Ev
FNDA:0,_ZNSt12_Vector_baseIN5fasta8SequenceESaIS1_EED2Ev
FNDA:0,_ZNSt12_Vector_baseIN5fasta7ResidueESaIS1_EED2Ev
FNDA:0,_ZNSt12_Vector_baseIN5boost10filesystem18directory_iteratorESaIS2_EED2Ev
FNDA:0,_ZNSt12_Vector_baseISsSaISsEED2Ev
FNDA:0,_ZNSt12_Vector_baseISsSaISsEE11_M_allocateEm
FNDA:44,_ZNSt12_Vector_baseISt6vectorIN5fasta8SequenceESaIS2_EESaIS4_EE11_M_allocateEm
FNDA:0,_ZNSt12_Vector_baseIN5fasta7ResidueESaIS1_EE11_M_allocateEm
FNDA:0,_ZNSt12_Vector_baseIdSaIdEE11_M_allocateEm
FNDA:0,_ZNSt12_Vector_baseIN5fasta8SequenceESaIS1_EE11_M_allocateEm
FNDA:0,_ZNSt12_Vector_baseISt6vectorIdSaIdEESaIS2_EE13_M_deallocateEPS2_m
FNDA:96,_ZNSt12_Vector_baseISt6vectorIN5fasta8SequenceESaIS2_EESaIS4_EE13_M_deallocateEPS4_m
FNDA:0,_ZNSt12_Vector_baseIdSaIdEE13_M_deallocateEPdm
FNDA:0,_ZNSt12_Vector_baseIN5fasta8SequenceESaIS1_EE13_M_deallocateEPS1_m
FNDA:0,_ZNSt12_Vector_baseIN5fasta7ResidueESaIS1_EE13_M_deallocateEPS1_m
FNDA:0,_ZNSt12_Vector_baseIN5boost10filesystem18directory_iteratorESaIS2_EE13_M_deallocateEPS2_m
FNDA:0,_ZNSt12_Vector_baseISsSaISsEE13_M_deallocateEPSsm
FNDA:88,_ZNSt12_Vector_baseIN5fasta8SequenceESaIS1_EE17_M_create_storageEm
FNDA:0,_ZNSt12_Vector_baseIN5fasta7ResidueESaIS1_EE17_M_create_storageEm
FNDA:0,_ZNSt12_Vector_baseISsSaISsEE17_M_create_storageEm
FNDA:0,_ZNSt6vectorIN5fasta8SequenceESaIS1_EEC2Ev
FNDA:0,_ZNSt6vectorIN5fasta7ResidueESaIS1_EEC2Ev
FNDA:8,_ZNSt6vectorIS_IN5fasta8SequenceESaIS1_EESaIS3_EEC2Ev
FNDA:0,_ZNSt6vectorIdSaIdEEC2Ev
FNDA:88,_ZNSt6vectorIN5fasta8SequenceESaIS1_EEC2ERKS3_
FNDA:0,_ZNSt6vectorIN5fasta7ResidueESaIS1_EEC2ERKS3_
FNDA:0,_ZNSt6vectorISsSaISsEEC2ERKS1_
FNDA:0,_ZNSt6vectorISsSaISsEEC2EOS1_
FNDA:0,_ZNSt6vectorIdSaIdEEC2EOS1_
FNDA:28,_ZNSt6vectorIN5fasta8SequenceESaIS1_EEC2EOS3_
FNDA:44,_ZNSt6vectorIS_IN5fasta8SequenceESaIS1_EESaIS3_EEC2EOS5_
FNDA:0,_ZNSt6vectorIN5fasta7ResidueESaIS1_EEC2EOS3_
FNDA:44,_ZNSt6vectorIS_IN5fasta8SequenceESaIS1_EESaIS3_EEC2ESt16initializer_listIS3_ERKS4_
FNDA:0,_ZNSt6vectorIdSaIdEEC2ESt16initializer_listIdERKS0_
FNDA:0,_ZNSt6vectorIN5fasta8SequenceESaIS1_EEC2ESt16initializer_listIS1_ERKS2_
FNDA:0,_ZNSt6vectorIS_IdSaIdEESaIS1_EED2Ev
FNDA:96,_ZNSt6vectorIS_IN5fasta8SequenceESaIS1_EESaIS3_EED2Ev
FNDA:0,_ZNSt6vectorIdSaIdEED2Ev
FNDA:0,_ZNSt6vectorIN5fasta8SequenceESaIS1_EED2Ev
FNDA:0,_ZNSt6vectorIN5fasta7ResidueESaIS1_EED2Ev
FNDA:0,_ZNSt6vectorIN5boost10filesystem18directory_iteratorESaIS2_EED2Ev
FNDA:0,_ZNSt6vectorISsSaISsEED2Ev
FNDA:28,_ZNSt6vectorIN5fasta8SequenceESaIS1_EEaSEOS3_
FNDA:44,_ZNSt6vectorIS_IN5fasta8SequenceESaIS1_EESaIS3_EEaSEOS5_
FNDA:0,_ZNSt6vectorIdSaIdEEaSEOS1_
FNDA:0,_ZNKSt6vectorIN5fasta8SequenceESaIS1_EE5beginEv
FNDA:0,_ZNKSt6vectorIN5fasta7ResidueESaIS1_EE5beginEv
FNDA:0,_ZNKSt6vectorISsSaISsEE5beginEv
FNDA:0,_ZNKSt6vectorIdSaIdEE5beginEv
FNDA:0,_ZNKSt6vectorIN5fasta8SequenceESaIS1_EE3endEv
FNDA:0,_ZNKSt6vectorIN5fasta7ResidueESaIS1_EE3endEv
FNDA:0,_ZNKSt6vectorISsSaISsEE3endEv
FNDA:0,_ZNKSt6vectorIdSaIdEE3endEv
FNDA:0,_ZNKSt6vectorISsSaISsEE4sizeEv
FNDA:0,_ZNKSt6vectorIdSaIdEE4sizeEv
FNDA:0,_ZNKSt6vectorIN5fasta7ResidueESaIS1_EE4sizeEv
FNDA:0,_ZNKSt6vectorIN5fasta8SequenceESaIS1_EE4sizeEv
FNDA:0,_ZNKSt6vectorIN5fasta8SequenceESaIS1_EE8max_sizeEv
FNDA:0,_ZNKSt6vectorIN5fasta7ResidueESaIS1_EE8max_sizeEv
FNDA:16,_ZNKSt6vectorIdSaIdEE8max_sizeEv
FNDA:0,_ZNSt6vectorIN5fasta7ResidueESaIS1_EEixEm
FNDA:0,_ZNSt6vectorIN5fasta8SequenceESaIS1_EEixEm
FNDA:464,_ZNSt6vectorIS_IN5fasta8SequenceESaIS1_EESaIS3_EEixEm
FNDA:0,_ZNKSt6vectorIdSaIdEEixEm
FNDA:0,_ZNKSt6vectorIN5fasta7ResidueESaIS1_EEixEm
FNDA:0,_ZNKSt6vectorIN5fasta8SequenceESaIS1_EEixEm
FNDA:16,_ZNSt6vectorIN5fasta8SequenceESaIS1_EE9push_backERKS1_
FNDA:0,_ZNSt6vectorIN5fasta7ResidueESaIS1_EE9push_backERKS1_
FNDA:8,_ZNSt6vectorIdSaIdEE9push_backERKd
FNDA:44,_ZNSt6vectorIS_IN5fasta8SequenceESaIS1_EESaIS3_EE19_M_range_initializeIPKS3_EEvT_S9_St20forward_iterator_tag
FNDA:0,_ZNSt6vectorIdSaIdEE19_M_range_initializeIPKdEEvT_S5_St20forward_iterator_tag
FNDA:0,_ZNSt6vectorIN5fasta8SequenceESaIS1_EE19_M_range_initializeIPKS1_EEvT_S7_St20forward_iterator_tag
FNDA:0,_ZNKSt6vectorIN5fasta8SequenceESaIS1_EE12_M_check_lenEmPKc
FNDA:0,_ZNKSt6vectorIN5fasta7ResidueESaIS1_EE12_M_check_lenEmPKc
FNDA:8,_ZNKSt6vectorIdSaIdEE12_M_check_lenEmPKc
FNDA:28,_ZNSt6vectorIN5fasta8SequenceESaIS1_EE14_M_move_assignEOS3_St17integral_constantIbLb1EE
FNDA:44,_ZNSt6vectorIS_IN5fasta8SequenceESaIS1_EESaIS3_EE14_M_move_assignEOS5_St17integral_constantIbLb1EE
FNDA:0,_ZNSt6vectorIdSaIdEE14_M_move_assignEOS1_St17integral_constantIbLb1EE
FNF:132
FNH:33
DA:80,96
DA:87,8
DA:88,8
DA:89,8
DA:91,44
DA:92,44
DA:93,44
DA:96,72
DA:98,72
DA:99,72
DA:102,144
DA:104,144
DA:105,144
DA:106,144
DA:107,144
DA:114,184
DA:115,184
DA:118,0
DA:119,0
DA:125,8
DA:126,8
DA:128,44
DA:129,44
DA:135,88
DA:136,88
DA:137,88
DA:143,72
DA:144,72
DA:145,72
DA:160,96
DA:161,96
DA:162,96
DA:168,44
DA:169,44
DA:172,96
DA:174,96
DA:175,44
DA:176,96
DA:180,88
DA:182,88
DA:183,88
DA:184,88
DA:185,88
DA:246,8
DA:247,8
DA:307,88
DA:309,88
DA:310,88
DA:314,88
DA:324,72
DA:325,72
DA:361,44
DA:363,44
DA:365,44
DA:367,44
DA:402,96
DA:403,96
DA:404,96
DA:427,72
DA:431,72
DA:432,72
DA:434,72
DA:527,0
DA:528,0
DA:545,0
DA:546,0
DA:625,0
DA:626,0
DA:630,16
DA:631,16
DA:750,464
DA:751,464
DA:765,0
DA:766,0
DA:881,24
DA:883,24
DA:885,0
DA:887,0
DA:891,24
DA:895,24
DA:1164,44
DA:1167,44
DA:1168,44
DA:1169,44
DA:1170,44
DA:1174,44
DA:1303,8
DA:1305,8
DA:1306,0
DA:1308,8
DA:1309,8
DA:1329,72
DA:1331,72
DA:1332,72
DA:1333,72
DA:1334,0
DA:1336,72
LF:97
LH:83
end_of_record
SF:/usr/include/c++/4.7.2/bits/vector.tcc
FN:397,_ZNSt6vectorIdSaIdEE19_M_emplace_back_auxIIRKdEEEvDpOT_
FN:397,_ZNSt6vectorIN5fasta7ResidueESaIS1_EE19_M_emplace_back_auxIIRKS1_EEEvDpOT_
FN:397,_ZNSt6vectorIN5fasta8SequenceESaIS1_EE19_M_emplace_back_auxIIRKS1_EEEvDpOT_
FNDA:16,_ZNSt6vectorIN5fasta8SequenceESaIS1_EE19_M_emplace_back_auxIIRKS1_EEEvDpOT_
FNDA:0,_ZNSt6vectorIN5fasta7ResidueESaIS1_EE19_M_emplace_back_auxIIRKS1_EEEvDpOT_
FNDA:8,_ZNSt6vectorIdSaIdEE19_M_emplace_back_auxIIRKdEEEvDpOT_
FNF:3
FNH:2
DA:397,24
DA:401,24
DA:402,24
DA:403,24
DA:406,24
DA:408,24
DA:410,24
DA:415,24
DA:417,0
DA:419,0
DA:420,0
DA:422,0
DA:423,0
DA:424,0
DA:426,24
DA:428,24
DA:431,24
DA:432,24
DA:433,24
DA:434,24
LF:20
LH:14
end_of_record
SF:/usr/include/c++/4.7.2/exception
FN:62,_ZNSt9exceptionC2ERKS_
FNDA:0,_ZNSt9exceptionC2ERKS_
FNF:1
FNH:0
DA:62,0
LF:1
LH:0
end_of_record
SF:/usr/include/c++/4.7.2/ext/alloc_traits.h
FN:153,_ZN9__gnu_cxx14__alloc_traitsISaIN5fasta7ResidueEEE17_S_select_on_copyERKS3_
FN:153,_ZN9__gnu_cxx14__alloc_traitsISaISsEE17_S_select_on_copyERKS1_
FN:153,_ZN9__gnu_cxx14__alloc_traitsISaIN5fasta8SequenceEEE17_S_select_on_copyERKS3_
FN:162,_ZN9__gnu_cxx14__alloc_traitsISaIN5fasta8SequenceEEE27_S_propagate_on_move_assignEv
FN:162,_ZN9__gnu_cxx14__alloc_traitsISaISt6vectorIN5fasta8SequenceESaIS3_EEEE27_S_propagate_on_move_assignEv
FN:162,_ZN9__gnu_cxx14__alloc_traitsISaIdEE27_S_propagate_on_move_assignEv
FNDA:88,_ZN9__gnu_cxx14__alloc_traitsISaIN5fasta8SequenceEEE17_S_select_on_copyERKS3_
FNDA:0,_ZN9__gnu_cxx14__alloc_traitsISaIN5fasta7ResidueEEE17_S_select_on_copyERKS3_
FNDA:0,_ZN9__gnu_cxx14__alloc_traitsISaISsEE17_S_select_on_copyERKS1_
FNDA:28,_ZN9__gnu_cxx14__alloc_traitsISaIN5fasta8SequenceEEE27_S_propagate_on_move_assignEv
FNDA:44,_ZN9__gnu_cxx14__alloc_traitsISaISt6vectorIN5fasta8SequenceESaIS3_EEEE27_S_propagate_on_move_assignEv
FNDA:0,_ZN9__gnu_cxx14__alloc_traitsISaIdEE27_S_propagate_on_move_assignEv
FNF:6
FNH:3
DA:153,88
DA:154,88
DA:162,72
DA:163,72
LF:4
LH:4
end_of_record
SF:/usr/include/c++/4.7.2/ext/atomicity.h
FN:47,_ZN9__gnu_cxxL18__exchange_and_addEPVii
FN:64,_ZN9__gnu_cxxL25__exchange_and_add_singleEPii
FN:77,_ZN9__gnu_cxxL27__exchange_and_add_dispatchEPii
FNDA:0,_ZN9__gnu_cxxL18__exchange_and_addEPVii
FNDA:0,_ZN9__gnu_cxxL25__exchange_and_add_singleEPii
FNDA:0,_ZN9__gnu_cxxL27__exchange_and_add_dispatchEPii
FNF:3
FNH:0
DA:47,0
DA:48,0
DA:64,0
DA:66,0
DA:67,0
DA:68,0
DA:77,0
DA:80,0
DA:81,0
DA:83,0
LF:10
LH:0
end_of_record
SF:/usr/include/c++/4.7.2/ext/concurrence.h
FN:68,_ZN9__gnu_cxx24__concurrence_lock_errorD2Ev
FN:68,_ZN9__gnu_cxx24__concurrence_lock_errorD0Ev
FN:72,_ZNK9__gnu_cxx24__concurrence_lock_error4whatEv
FN:76,_ZN9__gnu_cxx26__concurrence_unlock_errorD0Ev
FN:76,_ZN9__gnu_cxx26__concurrence_unlock_errorD2Ev
FN:80,_ZNK9__gnu_cxx26__concurrence_unlock_error4whatEv
FN:84,_ZN9__gnu_cxx29__concurrence_broadcast_errorD0Ev
FN:84,_ZN9__gnu_cxx29__concurrence_broadcast_errorD2Ev
FN:88,_ZNK9__gnu_cxx29__concurrence_broadcast_error4whatEv
FN:92,_ZN9__gnu_cxx24__concurrence_wait_errorD0Ev
FN:92,_ZN9__gnu_cxx24__concurrence_wait_errorD2Ev
FN:96,_ZNK9__gnu_cxx24__concurrence_wait_error4whatEv
FNDA:0,_ZN9__gnu_cxx24__concurrence_lock_errorD0Ev
FNDA:0,_ZN9__gnu_cxx24__concurrence_lock_errorD2Ev
FNDA:0,_ZNK9__gnu_cxx24__concurrence_lock_error4whatEv
FNDA:0,_ZN9__gnu_cxx26__concurrence_unlock_errorD0Ev
FNDA:0,_ZN9__gnu_cxx26__concurrence_unlock_errorD2Ev
FNDA:0,_ZNK9__gnu_cxx26__concurrence_unlock_error4whatEv
FNDA:0,_ZN9__gnu_cxx29__concurrence_broadcast_errorD0Ev
FNDA:0,_ZN9__gnu_cxx29__concurrence_broadcast_errorD2Ev
FNDA:0,_ZNK9__gnu_cxx29__concurrence_broadcast_error4whatEv
FNDA:0,_ZN9__gnu_cxx24__concurrence_wait_errorD0Ev
FNDA:0,_ZN9__gnu_cxx24__concurrence_wait_errorD2Ev
FNDA:0,_ZNK9__gnu_cxx24__concurrence_wait_error4whatEv
FNF:12
FNH:0
DA:68,0
DA:72,0
DA:73,0
DA:76,0
DA:80,0
DA:81,0
DA:84,0
DA:88,0
DA:89,0
DA:92,0
DA:96,0
DA:97,0
LF:12
LH:0
end_of_record
SF:/usr/include/c++/4.7.2/ext/new_allocator.h
FN:69,_ZN9__gnu_cxx13new_allocatorIN5fasta7ResidueEEC2Ev
FN:69,_ZN9__gnu_cxx13new_allocatorISt6vectorIN5fasta8SequenceESaIS3_EEEC2Ev
FN:69,_ZN9__gnu_cxx13new_allocatorIcEC2Ev
FN:69,_ZN9__gnu_cxx13new_allocatorIdEC2Ev
FN:69,_ZN9__gnu_cxx13new_allocatorIN5fasta8SequenceEEC2Ev
FN:71,_ZN9__gnu_cxx13new_allocatorIdEC2ERKS1_
FN:71,_ZN9__gnu_cxx13new_allocatorISsEC2ERKS1_
FN:71,_ZN9__gnu_cxx13new_allocatorISt13_Rb_tree_nodeISt4pairIKSsdEEEC2ERKS6_
FN:71,_ZN9__gnu_cxx13new_allocatorIN5fasta7ResidueEEC2ERKS3_
FN:71,_ZN9__gnu_cxx13new_allocatorIN5fasta8SequenceEEC2ERKS3_
FN:71,_ZN9__gnu_cxx13new_allocatorIcEC2ERKS1_
FN:71,_ZN9__gnu_cxx13new_allocatorISt6vectorIN5fasta8SequenceESaIS3_EEEC2ERKS6_
FN:76,_ZN9__gnu_cxx13new_allocatorIN5fasta7ResidueEED2Ev
FN:76,_ZN9__gnu_cxx13new_allocatorISt6vectorIdSaIdEEED2Ev
FN:76,_ZN9__gnu_cxx13new_allocatorISt13_Rb_tree_nodeISt4pairIKcSt6vectorIdSaIdEEEEED2Ev
FN:76,_ZN9__gnu_cxx13new_allocatorIdED2Ev
FN:76,_ZN9__gnu_cxx13new_allocatorIcED2Ev
FN:76,_ZN9__gnu_cxx13new_allocatorISt13_Rb_tree_nodeISt4pairIKSsSt6vectorIdSaIdEEEEED2Ev
FN:76,_ZN9__gnu_cxx13new_allocatorISt13_Rb_tree_nodeISt4pairIKSsdEEED2Ev
FN:76,_ZN9__gnu_cxx13new_allocatorISt6vectorIN5fasta8SequenceESaIS3_EEED2Ev
FN:76,_ZN9__gnu_cxx13new_allocatorIN5boost10filesystem18directory_iteratorEED2Ev
FN:76,_ZN9__gnu_cxx13new_allocatorIN5fasta8SequenceEED2Ev
FN:76,_ZN9__gnu_cxx13new_allocatorISsED2Ev
FN:89,_ZN9__gnu_cxx13new_allocatorIN5fasta7ResidueEE8allocateEmPKv
FN:89,_ZN9__gnu_cxx13new_allocatorISsE8allocateEmPKv
FN:89,_ZN9__gnu_cxx13new_allocatorISt6vectorIN5fasta8SequenceESaIS3_EEE8allocateEmPKv
FN:89,_ZN9__gnu_cxx13new_allocatorISt13_Rb_tree_nodeISt4pairIKSsdEEE8allocateEmPKv
FN:89,_ZN9__gnu_cxx13new_allocatorIN5fasta8SequenceEE8allocateEmPKv
FN:89,_ZN9__gnu_cxx13new_allocatorIdE8allocateEmPKv
FN:99,_ZN9__gnu_cxx13new_allocatorIdE10deallocateEPdm
FN:99,_ZN9__gnu_cxx13new_allocatorISt6vectorIN5fasta8SequenceESaIS3_EEE10deallocateEPS5_m
FN:99,_ZN9__gnu_cxx13new_allocatorISsE10deallocateEPSsm
FN:99,_ZN9__gnu_cxx13new_allocatorISt13_Rb_tree_nodeISt4pairIKSsSt6vectorIdSaIdEEEEE10deallocateEPS8_m
FN:99,_ZN9__gnu_cxx13new_allocatorISt6vectorIdSaIdEEE10deallocateEPS3_m
FN:99,_ZN9__gnu_cxx13new_allocatorIN5fasta7ResidueEE10deallocateEPS2_m
FN:99,_ZN9__gnu_cxx13new_allocatorIN5boost10filesystem18directory_iteratorEE10deallocateEPS3_m
FN:99,_ZN9__gnu_cxx13new_allocatorISt13_Rb_tree_nodeISt4pairIKSsdEEE10deallocateEPS5_m
FN:99,_ZN9__gnu_cxx13new_allocatorISt13_Rb_tree_nodeISt4pairIKcSt6vectorIdSaIdEEEEE10deallocateEPS8_m
FN:99,_ZN9__gnu_cxx13new_allocatorIN5fasta8SequenceEE10deallocateEPS2_m
FN:103,_ZNK9__gnu_cxx13new_allocatorIN5fasta8SequenceEE8max_sizeEv
FN:103,_ZNK9__gnu_cxx13new_allocatorIdE8max_sizeEv
FN:103,_ZNK9__gnu_cxx13new_allocatorISsE8max_sizeEv
FN:103,_ZNK9__gnu_cxx13new_allocatorISt6vectorIN5fasta8SequenceESaIS3_EEE8max_sizeEv
FN:103,_ZNK9__gnu_cxx13new_allocatorIN5fasta7ResidueEE8max_sizeEv
FN:103,_ZNK9__gnu_cxx13new_allocatorISt13_Rb_tree_nodeISt4pairIKSsdEEE8max_sizeEv
FN:109,_ZN9__gnu_cxx13new_allocatorIdE9constructIdIRKdEEEvPT_DpOT0_
FN:109,_ZN9__gnu_cxx13new_allocatorIN5fasta7ResidueEE9constructIS2_IRKS2_EEEvPT_DpOT0_
FN:109,_ZN9__gnu_cxx13new_allocatorIN5fasta8SequenceEE9constructIS2_IRKS2_EEEvPT_DpOT0_
FN:109,_ZN9__gnu_cxx13new_allocatorISt13_Rb_tree_nodeISt4pairIKSsdEEE9constructIS5_IRKS4_EEEvPT_DpOT0_
FN:114,_ZN9__gnu_cxx13new_allocatorISt13_Rb_tree_nodeISt4pairIKSsdEEE7destroyIS5_EEvPT_
FN:114,_ZN9__gnu_cxx13new_allocatorIdE7destroyIdEEvPT_
FN:114,_ZN9__gnu_cxx13new_allocatorIN5fasta8SequenceEE7destroyIS2_EEvPT_
FN:114,_ZN9__gnu_cxx13new_allocatorISt13_Rb_tree_nodeISt4pairIKcSt6vectorIdSaIdEEEEE7destroyIS8_EEvPT_
FN:114,_ZN9__gnu_cxx13new_allocatorIN5fasta7ResidueEE7destroyIS2_EEvPT_
FN:114,_ZN9__gnu_cxx13new_allocatorISt13_Rb_tree_nodeISt4pairIKSsSt6vectorIdSaIdEEEEE7destroyIS8_EEvPT_
FNDA:0,_ZN9__gnu_cxx13new_allocatorIN5fasta7ResidueEEC2Ev
FNDA:52,_ZN9__gnu_cxx13new_allocatorISt6vectorIN5fasta8SequenceESaIS3_EEEC2Ev
FNDA:0,_ZN9__gnu_cxx13new_allocatorIdEC2Ev
FNDA:0,_ZN9__gnu_cxx13new_allocatorIN5fasta8SequenceEEC2Ev
FNDA:0,_ZN9__gnu_cxx13new_allocatorIcEC2Ev
FNDA:0,_ZN9__gnu_cxx13new_allocatorIdEC2ERKS1_
FNDA:88,_ZN9__gnu_cxx13new_allocatorISt6vectorIN5fasta8SequenceESaIS3_EEEC2ERKS6_
FNDA:0,_ZN9__gnu_cxx13new_allocatorIN5fasta8SequenceEEC2ERKS3_
FNDA:0,_ZN9__gnu_cxx13new_allocatorISt13_Rb_tree_nodeISt4pairIKSsdEEEC2ERKS6_
FNDA:0,_ZN9__gnu_cxx13new_allocatorIN5fasta7ResidueEEC2ERKS3_
FNDA:0,_ZN9__gnu_cxx13new_allocatorISsEC2ERKS1_
FNDA:0,_ZN9__gnu_cxx13new_allocatorIcEC2ERKS1_
FNDA:0,_ZN9__gnu_cxx13new_allocatorISt6vectorIdSaIdEEED2Ev
FNDA:0,_ZN9__gnu_cxx13new_allocatorIN5boost10filesystem18directory_iteratorEED2Ev
FNDA:0,_ZN9__gnu_cxx13new_allocatorISt13_Rb_tree_nodeISt4pairIKcSt6vectorIdSaIdEEEEED2Ev
FNDA:0,_ZN9__gnu_cxx13new_allocatorIN5fasta7ResidueEED2Ev
FNDA:0,_ZN9__gnu_cxx13new_allocatorISt13_Rb_tree_nodeISt4pairIKSsSt6vectorIdSaIdEEEEED2Ev
FNDA:0,_ZN9__gnu_cxx13new_allocatorISt13_Rb_tree_nodeISt4pairIKSsdEEED2Ev
FNDA:0,_ZN9__gnu_cxx13new_allocatorISsED2Ev
FNDA:140,_ZN9__gnu_cxx13new_allocatorISt6vectorIN5fasta8SequenceESaIS3_EEED2Ev
FNDA:0,_ZN9__gnu_cxx13new_allocatorIdED2Ev
FNDA:0,_ZN9__gnu_cxx13new_allocatorIN5fasta8SequenceEED2Ev
FNDA:0,_ZN9__gnu_cxx13new_allocatorIcED2Ev
FNDA:0,_ZN9__gnu_cxx13new_allocatorISt13_Rb_tree_nodeISt4pairIKSsdEEE8allocateEmPKv
FNDA:0,_ZN9__gnu_cxx13new_allocatorISsE8allocateEmPKv
FNDA:44,_ZN9__gnu_cxx13new_allocatorISt6vectorIN5fasta8SequenceESaIS3_EEE8allocateEmPKv
FNDA:0,_ZN9__gnu_cxx13new_allocatorIN5fasta7ResidueEE8allocateEmPKv
FNDA:0,_ZN9__gnu_cxx13new_allocatorIdE8allocateEmPKv
FNDA:0,_ZN9__gnu_cxx13new_allocatorIN5fasta8SequenceEE8allocateEmPKv
FNDA:0,_ZN9__gnu_cxx13new_allocatorISt13_Rb_tree_nodeISt4pairIKcSt6vectorIdSaIdEEEEE10deallocateEPS8_m
FNDA:0,_ZN9__gnu_cxx13new_allocatorISt13_Rb_tree_nodeISt4pairIKSsSt6vectorIdSaIdEEEEE10deallocateEPS8_m
FNDA:0,_ZN9__gnu_cxx13new_allocatorISt13_Rb_tree_nodeISt4pairIKSsdEEE10deallocateEPS5_m
FNDA:0,_ZN9__gnu_cxx13new_allocatorISt6vectorIdSaIdEEE10deallocateEPS3_m
FNDA:44,_ZN9__gnu_cxx13new_allocatorISt6vectorIN5fasta8SequenceESaIS3_EEE10deallocateEPS5_m
FNDA:0,_ZN9__gnu_cxx13new_allocatorIdE10deallocateEPdm
FNDA:0,_ZN9__gnu_cxx13new_allocatorIN5fasta8SequenceEE10deallocateEPS2_m
FNDA:0,_ZN9__gnu_cxx13new_allocatorIN5fasta7ResidueEE10deallocateEPS2_m
FNDA:0,_ZN9__gnu_cxx13new_allocatorIN5boost10filesystem18directory_iteratorEE10deallocateEPS3_m
FNDA:0,_ZN9__gnu_cxx13new_allocatorISsE10deallocateEPSsm
FNDA:0,_ZNK9__gnu_cxx13new_allocatorISt13_Rb_tree_nodeISt4pairIKSsdEEE8max_sizeEv
FNDA:0,_ZNK9__gnu_cxx13new_allocatorISsE8max_sizeEv
FNDA:44,_ZNK9__gnu_cxx13new_allocatorISt6vectorIN5fasta8SequenceESaIS3_EEE8max_sizeEv
FNDA:0,_ZNK9__gnu_cxx13new_allocatorIN5fasta7ResidueEE8max_sizeEv
FNDA:0,_ZNK9__gnu_cxx13new_allocatorIdE8max_sizeEv
FNDA:0,_ZNK9__gnu_cxx13new_allocatorIN5fasta8SequenceEE8max_sizeEv
FNDA:0,_ZN9__gnu_cxx13new_allocatorISt13_Rb_tree_nodeISt4pairIKSsdEEE9constructIS5_IRKS4_EEEvPT_DpOT0_
FNDA:16,_ZN9__gnu_cxx13new_allocatorIN5fasta8SequenceEE9constructIS2_IRKS2_EEEvPT_DpOT0_
FNDA:0,_ZN9__gnu_cxx13new_allocatorIN5fasta7ResidueEE9constructIS2_IRKS2_EEEvPT_DpOT0_
FNDA:8,_ZN9__gnu_cxx13new_allocatorIdE9constructIdIRKdEEEvPT_DpOT0_
FNDA:0,_ZN9__gnu_cxx13new_allocatorIN5fasta8SequenceEE7destroyIS2_EEvPT_
FNDA:0,_ZN9__gnu_cxx13new_allocatorIN5fasta7ResidueEE7destroyIS2_EEvPT_
FNDA:0,_ZN9__gnu_cxx13new_allocatorIdE7destroyIdEEvPT_
FNDA:0,_ZN9__gnu_cxx13new_allocatorISt13_Rb_tree_nodeISt4pairIKcSt6vectorIdSaIdEEEEE7destroyIS8_EEvPT_
FNDA:0,_ZN9__gnu_cxx13new_allocatorISt13_Rb_tree_nodeISt4pairIKSsSt6vectorIdSaIdEEEEE7destroyIS8_EEvPT_
FNDA:0,_ZN9__gnu_cxx13new_allocatorISt13_Rb_tree_nodeISt4pairIKSsdEEE7destroyIS5_EEvPT_
FNF:55
FNH:8
DA:69,52
DA:71,88
DA:76,140
DA:89,44
DA:91,44
DA:92,0
DA:94,44
DA:99,44
DA:100,44
DA:103,44
DA:104,44
DA:109,24
DA:110,24
DA:114,0
LF:14
LH:12
end_of_record
SF:/usr/include/c++/4.7.2/initializer_list
FN:71,_ZNKSt16initializer_listISt6vectorIN5fasta8SequenceESaIS2_EEE4sizeEv
FN:71,_ZNKSt16initializer_listIdE4sizeEv
FN:71,_ZNKSt16initializer_listIN5fasta8SequenceEE4sizeEv
FN:75,_ZNKSt16initializer_listISt6vectorIN5fasta8SequenceESaIS2_EEE5beginEv
FN:75,_ZNKSt16initializer_listIdE5beginEv
FN:75,_ZNKSt16initializer_listIN5fasta8SequenceEE5beginEv
FN:79,_ZNKSt16initializer_listIN5fasta8SequenceEE3endEv
FN:79,_ZNKSt16initializer_listIdE3endEv
FN:79,_ZNKSt16initializer_listISt6vectorIN5fasta8SequenceESaIS2_EEE3endEv
FNDA:44,_ZNKSt16initializer_listISt6vectorIN5fasta8SequenceESaIS2_EEE4sizeEv
FNDA:0,_ZNKSt16initializer_listIdE4sizeEv
FNDA:0,_ZNKSt16initializer_listIN5fasta8SequenceEE4sizeEv
FNDA:88,_ZNKSt16initializer_listISt6vectorIN5fasta8SequenceESaIS2_EEE5beginEv
FNDA:0,_ZNKSt16initializer_listIdE5beginEv
FNDA:0,_ZNKSt16initializer_listIN5fasta8SequenceEE5beginEv
FNDA:44,_ZNKSt16initializer_listISt6vectorIN5fasta8SequenceESaIS2_EEE3endEv
FNDA:0,_ZNKSt16initializer_listIdE3endEv
FNDA:0,_ZNKSt16initializer_listIN5fasta8SequenceEE3endEv
FNF:9
FNH:3
DA:71,44
DA:75,88
DA:79,44
LF:3
LH:3
end_of_record
SF:/usr/include/c++/4.7.2/iostream
DA:75,4
LF:1
LH:1
end_of_record
SF:/usr/include/c++/4.7.2/new
FN:111,_ZnwmPv
FN:117,_ZdlPvS_
FNDA:0,_ZnwmPv
FNDA:0,_ZdlPvS_
FNF:2
FNH:0
DA:111,0
DA:112,0
DA:117,0
LF:3
LH:0
end_of_record
SF:/usr/include/c++/4.7.2/x86_64-redhat-linux/bits/gthr-default.h
FN:259,_ZL18__gthread_active_pv
FNDA:0,_ZL18__gthread_active_pv
FNF:1
FNH:0
DA:259,0
DA:270,0
LF:2
LH:0
end_of_record
SF:/home/joanna/cmbi/kman/src/fasta.h
FN:11,_ZN5fasta7ResidueD2Ev
FN:11,_ZN5fasta7ResidueC2EOS0_
FN:11,_ZN5fasta7ResidueC2ERKS0_
FN:22,_ZN5fasta8SequenceC2Ev
FN:22,_ZN5fasta8SequenceC2ERKS0_
FN:22,_ZN5fasta8SequenceD2Ev
FN:22,_ZN5fasta8SequenceC2EOS0_
FNDA:0,_ZN5fasta7ResidueC2EOS0_
FNDA:0,_ZN5fasta7ResidueD2Ev
FNDA:0,_ZN5fasta7ResidueC2ERKS0_
FNDA:0,_ZN5fasta8SequenceC2Ev
FNDA:0,_ZN5fasta8SequenceC2EOS0_
FNDA:0,_ZN5fasta8SequenceD2Ev
FNDA:0,_ZN5fasta8SequenceC2ERKS0_
FNF:7
FNH:0
DA:11,0
DA:22,0
LF:2
LH:0
end_of_record
SF:/home/joanna/cmbi/kman/src/feature_scores.h
FN:11,_ZN13FeatureScoresD2Ev
FNDA:16,_ZN13FeatureScoresD2Ev
FNF:1
FNH:1
DA:11,16
LF:1
LH:1
end_of_record
SF:/home/joanna/cmbi/kman/src/msa.cpp
FN:10,_ZN3msa7run_msaERKN8seq_data12SequenceDataERKSt3mapISsN8f_config15FeatureSettingsESt4lessISsESaISt4pairIKSsS6_EEEdddiiiib
FN:67,_ZN3msa14set_identitiesERKN8seq_data12SequenceDataERKSt3mapIcSt6vectorIdSaIdEESt4lessIcESaISt4pairIKcS7_EEER13FeatureScoresdddi
FN:99,_ZN3msa13calc_identityERKN5fasta8SequenceES3_
FN:113,_ZN3msa11remove_gapsERKSt6vectorIN5fasta8SequenceESaIS2_EE
FN:150,_ZN3msa14align_pairwiseERKN5fasta8SequenceERKSt3mapIcSt6vectorIdSaIdEESt4lessIcESaISt4pairIKcS7_EEERK13FeatureScoresdddi
FN:169,_ZN3msa17perform_msa_roundERKN8seq_data12SequenceDataERKSt3mapIcSt6vectorIdSaIdEESt4lessIcESaISt4pairIKcS7_EEERK13FeatureScoresddddiRKS7_RiRKS4_ISsN8f_config15FeatureSettingsES8_ISsESaISA_IKSsSO_EEE
FN:204,_ZN3msa16count_alignmentsEdRKSt6vectorIdSaIdEE
FN:213,_Z41__static_initialization_and_destruction_0ii
FN:213,_GLOBAL__sub_I__ZN3msa7run_msaERKN8seq_data12SequenceDataERKSt3mapISsN8f_config15FeatureSettingsESt4lessISsESaISt4pairIKSsS6_EEEdddiiiib
FNDA:4,_ZN3msa7run_msaERKN8seq_data12SequenceDataERKSt3mapISsN8f_config15FeatureSettingsESt4lessISsESaISt4pairIKSsS6_EEEdddiiiib
FNDA:8,_ZN3msa14set_identitiesERKN8seq_data12SequenceDataERKSt3mapIcSt6vectorIdSaIdEESt4lessIcESaISt4pairIKcS7_EEER13FeatureScoresdddi
FNDA:12,_ZN3msa13calc_identityERKN5fasta8SequenceES3_
FNDA:20,_ZN3msa11remove_gapsERKSt6vectorIN5fasta8SequenceESaIS2_EE
FNDA:16,_ZN3msa14align_pairwiseERKN5fasta8SequenceERKSt3mapIcSt6vectorIdSaIdEESt4lessIcESaISt4pairIKcS7_EEERK13FeatureScoresdddi
FNDA:40,_ZN3msa17perform_msa_roundERKN8seq_data12SequenceDataERKSt3mapIcSt6vectorIdSaIdEESt4lessIcESaISt4pairIKcS7_EEERK13FeatureScoresddddiRKS7_RiRKS4_ISsN8f_config15FeatureSettingsES8_ISsESaISA_IKSsSO_EEE
FNDA:44,_ZN3msa16count_alignmentsEdRKSt6vectorIdSaIdEE
FNDA:4,_GLOBAL__sub_I__ZN3msa7run_msaERKN8seq_data12SequenceDataERKSt3mapISsN8f_config15FeatureSettingsESt4lessISsESaISt4pairIKSsS6_EEEdddiiiib
FNDA:4,_Z41__static_initialization_and_destruction_0ii
FNF:9
FNH:9
DA:10,4
DA:20,4
DA:23,4
DA:25,4
DA:26,4
DA:29,4
DA:32,4
DA:35,4
DA:36,4
DA:37,4
DA:38,4
DA:39,40
DA:40,36
DA:41,36
DA:46,36
DA:47,36
DA:48,8
DA:49,8
DA:56,4
DA:57,4
DA:62,4
DA:63,4
DA:67,8
DA:75,8
DA:78,8
DA:80,8
DA:82,16
DA:87,8
DA:89,8
DA:91,8
DA:92,16
DA:93,8
DA:94,8
DA:95,8
DA:99,12
DA:101,12
DA:102,12
DA:103,116
DA:104,208
DA:105,104
DA:106,72
DA:109,12
DA:113,20
DA:114,20
DA:115,20
DA:116,20
DA:117,20
DA:118,212
DA:119,192
DA:120,24
DA:122,24
DA:123,24
DA:124,24
DA:127,24
DA:129,168
DA:131,4
DA:132,4
DA:133,4
DA:135,4
DA:136,4
DA:141,164
DA:142,164
DA:146,20
DA:150,16
DA:156,16
DA:157,16
DA:158,16
DA:159,16
DA:160,16
DA:163,16
DA:164,16
DA:165,16
DA:169,40
DA:182,40
DA:183,80
DA:184,40
DA:185,40
DA:186,12
DA:187,24
DA:188,12
DA:190,8
DA:192,8
DA:193,8
DA:194,8
DA:198,12
DA:200,40
DA:204,44
DA:206,44
DA:207,156
DA:208,112
DA:209,92
DA:212,44
DA:213,12
LF:93
LH:93
end_of_record
SF:/home/joanna/cmbi/kman/src/scoring_matrix.h
FN:12,_ZN13ScoringMatrixD2Ev
FNDA:20,_ZN13ScoringMatrixD2Ev
FNF:1
FNH:1
DA:12,20
LF:1
LH:1
end_of_record
TN:
SF:/usr/include/c++/4.7.2/bits/alloc_traits.h
FN:252,_ZNSt16allocator_traitsISaIN8f_config16FeaturePositionsEEE12_S_constructIS1_IRKS1_EEENSt9enable_ifIXsrNS3_18__construct_helperIT_IDpT0_EEE5valueEvE4typeERS2_PS9_DpOSA_
FN:252,_ZNSt16allocator_traitsISaIiEE12_S_constructIiIiEEENSt9enable_ifIXsrNS1_18__construct_helperIT_IDpT0_EEE5valueEvE4typeERS0_PS5_DpOS6_
FN:252,_ZNSt16allocator_traitsISaISsEE12_S_constructISsISsEEENSt9enable_ifIXsrNS1_18__construct_helperIT_IDpT0_EEE5valueEvE4typeERS0_PS5_DpOS6_
FN:278,_ZNSt16allocator_traitsISaIN8f_config16FeaturePositionsEEE10_S_destroyIS1_EENSt9enable_ifIXsrNS3_16__destroy_helperIT_EE5valueEvE4typeERS2_PS7_
FN:278,_ZNSt16allocator_traitsISaISsEE10_S_destroyISsEENSt9enable_ifIXsrNS1_16__destroy_helperIT_EE5valueEvE4typeERS0_PS5_
FN:278,_ZNSt16allocator_traitsISaIiEE10_S_destroyIiEENSt9enable_ifIXsrNS1_16__destroy_helperIT_EE5valueEvE4typeERS0_PS5_
FN:303,_ZNSt16allocator_traitsISaIiEE11_S_max_sizeIKS0_EENSt9enable_ifIXsrNS1_16__maxsize_helperIT_EE5valueEmE4typeERS6_
FN:303,_ZNSt16allocator_traitsISaIN8f_config16FeaturePositionsEEE11_S_max_sizeIKS2_EENSt9enable_ifIXsrNS3_16__maxsize_helperIT_EE5valueEmE4typeERS8_
FN:303,_ZNSt16allocator_traitsISaISsEE11_S_max_sizeIKS0_EENSt9enable_ifIXsrNS1_16__maxsize_helperIT_EE5valueEmE4typeERS6_
FN:335,_ZNSt16allocator_traitsISaIiEE9_S_selectIKS0_EENSt9enable_ifIXntsrNS1_15__select_helperIT_EE5valueES6_E4typeERS6_
FN:335,_ZNSt16allocator_traitsISaIN8f_config16FeaturePositionsEEE9_S_selectIKS2_EENSt9enable_ifIXntsrNS3_15__select_helperIT_EE5valueES8_E4typeERS8_
FN:335,_ZNSt16allocator_traitsISaISsEE9_S_selectIKS0_EENSt9enable_ifIXntsrNS1_15__select_helperIT_EE5valueES6_E4typeERS6_
FN:389,_ZNSt16allocator_traitsISaISsEE9constructISsISsEEEvRS0_PT_DpOT0_
FN:389,_ZNSt16allocator_traitsISaIiEE9constructIiIiEEEvRS0_PT_DpOT0_
FN:389,_ZNSt16allocator_traitsISaIN8f_config16FeaturePositionsEEE9constructIS1_IRKS1_EEEvRS2_PT_DpOT0_
FN:401,_ZNSt16allocator_traitsISaISsEE7destroyISsEEvRS0_PT_
FN:401,_ZNSt16allocator_traitsISaIN8f_config16FeaturePositionsEEE7destroyIS1_EEvRS2_PT_
FN:401,_ZNSt16allocator_traitsISaIiEE7destroyIiEEvRS0_PT_
FN:412,_ZNSt16allocator_traitsISaIiEE8max_sizeERKS0_
FN:412,_ZNSt16allocator_traitsISaIN8f_config16FeaturePositionsEEE8max_sizeERKS2_
FN:412,_ZNSt16allocator_traitsISaISsEE8max_sizeERKS0_
FN:424,_ZNSt16allocator_traitsISaIiEE37select_on_container_copy_constructionERKS0_
FN:424,_ZNSt16allocator_traitsISaIN8f_config16FeaturePositionsEEE37select_on_container_copy_constructionERKS2_
FN:424,_ZNSt16allocator_traitsISaISsEE37select_on_container_copy_constructionERKS0_
FN:456,_ZSt18__do_alloc_on_copyISaIN8f_config16FeaturePositionsEEEvRT_RKS3_St17integral_constantIbLb0EE
FN:456,_ZSt18__do_alloc_on_copyISaISsEEvRT_RKS1_St17integral_constantIbLb0EE
FN:456,_ZSt18__do_alloc_on_copyISaIiEEvRT_RKS1_St17integral_constantIbLb0EE
FN:460,_ZSt15__alloc_on_copyISaIN8f_config16FeaturePositionsEEEvRT_RKS3_
FN:460,_ZSt15__alloc_on_copyISaISsEEvRT_RKS1_
FN:460,_ZSt15__alloc_on_copyISaIiEEvRT_RKS1_
FNDA:72,_ZNSt16allocator_traitsISaIiEE12_S_constructIiIiEEENSt9enable_ifIXsrNS1_18__construct_helperIT_IDpT0_EEE5valueEvE4typeERS0_PS5_DpOS6_
FNDA:0,_ZNSt16allocator_traitsISaISsEE12_S_constructISsISsEEENSt9enable_ifIXsrNS1_18__construct_helperIT_IDpT0_EEE5valueEvE4typeERS0_PS5_DpOS6_
FNDA:48,_ZNSt16allocator_traitsISaIN8f_config16FeaturePositionsEEE12_S_constructIS1_IRKS1_EEENSt9enable_ifIXsrNS3_18__construct_helperIT_IDpT0_EEE5valueEvE4typeERS2_PS9_DpOSA_
FNDA:0,_ZNSt16allocator_traitsISaIiEE10_S_destroyIiEENSt9enable_ifIXsrNS1_16__destroy_helperIT_EE5valueEvE4typeERS0_PS5_
FNDA:0,_ZNSt16allocator_traitsISaISsEE10_S_destroyISsEENSt9enable_ifIXsrNS1_16__destroy_helperIT_EE5valueEvE4typeERS0_PS5_
FNDA:0,_ZNSt16allocator_traitsISaIN8f_config16FeaturePositionsEEE10_S_destroyIS1_EENSt9enable_ifIXsrNS3_16__destroy_helperIT_EE5valueEvE4typeERS2_PS7_
FNDA:224,_ZNSt16allocator_traitsISaIiEE11_S_max_sizeIKS0_EENSt9enable_ifIXsrNS1_16__maxsize_helperIT_EE5valueEmE4typeERS6_
FNDA:0,_ZNSt16allocator_traitsISaISsEE11_S_max_sizeIKS0_EENSt9enable_ifIXsrNS1_16__maxsize_helperIT_EE5valueEmE4typeERS6_
FNDA:96,_ZNSt16allocator_traitsISaIN8f_config16FeaturePositionsEEE11_S_max_sizeIKS2_EENSt9enable_ifIXsrNS3_16__maxsize_helperIT_EE5valueEmE4typeERS8_
FNDA:0,_ZNSt16allocator_traitsISaIN8f_config16FeaturePositionsEEE9_S_selectIKS2_EENSt9enable_ifIXntsrNS3_15__select_helperIT_EE5valueES8_E4typeERS8_
FNDA:0,_ZNSt16allocator_traitsISaISsEE9_S_selectIKS0_EENSt9enable_ifIXntsrNS1_15__select_helperIT_EE5valueES6_E4typeERS6_
FNDA:0,_ZNSt16allocator_traitsISaIiEE9_S_selectIKS0_EENSt9enable_ifIXntsrNS1_15__select_helperIT_EE5valueES6_E4typeERS6_
FNDA:72,_ZNSt16allocator_traitsISaIiEE9constructIiIiEEEvRS0_PT_DpOT0_
FNDA:0,_ZNSt16allocator_traitsISaISsEE9constructISsISsEEEvRS0_PT_DpOT0_
FNDA:48,_ZNSt16allocator_traitsISaIN8f_config16FeaturePositionsEEE9constructIS1_IRKS1_EEEvRS2_PT_DpOT0_
FNDA:0,_ZNSt16allocator_traitsISaIiEE7destroyIiEEvRS0_PT_
FNDA:0,_ZNSt16allocator_traitsISaISsEE7destroyISsEEvRS0_PT_
FNDA:0,_ZNSt16allocator_traitsISaIN8f_config16FeaturePositionsEEE7destroyIS1_EEvRS2_PT_
FNDA:224,_ZNSt16allocator_traitsISaIiEE8max_sizeERKS0_
FNDA:0,_ZNSt16allocator_traitsISaISsEE8max_sizeERKS0_
FNDA:96,_ZNSt16allocator_traitsISaIN8f_config16FeaturePositionsEEE8max_sizeERKS2_
FNDA:0,_ZNSt16allocator_traitsISaIN8f_config16FeaturePositionsEEE37select_on_container_copy_constructionERKS2_
FNDA:0,_ZNSt16allocator_traitsISaISsEE37select_on_container_copy_constructionERKS0_
FNDA:0,_ZNSt16allocator_traitsISaIiEE37select_on_container_copy_constructionERKS0_
FNDA:0,_ZSt18__do_alloc_on_copyISaIiEEvRT_RKS1_St17integral_constantIbLb0EE
FNDA:0,_ZSt18__do_alloc_on_copyISaIN8f_config16FeaturePositionsEEEvRT_RKS3_St17integral_constantIbLb0EE
FNDA:0,_ZSt18__do_alloc_on_copyISaISsEEvRT_RKS1_St17integral_constantIbLb0EE
FNDA:0,_ZSt15__alloc_on_copyISaIiEEvRT_RKS1_
FNDA:0,_ZSt15__alloc_on_copyISaIN8f_config16FeaturePositionsEEEvRT_RKS3_
FNDA:0,_ZSt15__alloc_on_copyISaISsEEvRT_RKS1_
FNF:30
FNH:8
DA:252,120
DA:253,120
DA:278,0
DA:279,0
DA:303,320
DA:304,320
DA:335,0
DA:336,0
DA:389,120
DA:390,120
DA:401,0
DA:402,0
DA:412,320
DA:413,320
DA:424,0
DA:425,0
DA:456,0
DA:457,0
DA:460,0
DA:464,0
DA:465,0
LF:21
LH:8
end_of_record
SF:/usr/include/c++/4.7.2/bits/allocator.h
FN:104,_ZNSaISt13_Rb_tree_nodeISt4pairIKSsN8f_config18RawFeatureSettingsEEEEC2Ev
FN:104,_ZNSaIN8f_config16FeaturePositionsEEC2Ev
FN:104,_ZNSaIiEC2Ev
FN:104,_ZNSaISt13_Rb_tree_nodeISt4pairIKSsN8f_config15FeatureSettingsEEEEC2Ev
FN:104,_ZNSaISsEC2Ev
FN:106,_ZNSaISt13_Rb_tree_nodeISt4pairIKSsN8f_config18RawFeatureSettingsEEEEC2ERKS6_
FN:106,_ZNSaISsEC2ERKS_
FN:106,_ZNSaIN8f_config16FeaturePositionsEEC2ERKS1_
FN:106,_ZNSaIiEC2ERKS_
FN:112,_ZNSaISt13_Rb_tree_nodeISt4pairIKSsN8f_config18RawFeatureSettingsEEEED2Ev
FN:112,_ZNSaISsED2Ev
FN:112,_ZNSaIiED2Ev
FN:112,_ZNSaISt13_Rb_tree_nodeISt4pairIKSsN8f_config15FeatureSettingsEEEED2Ev
FN:112,_ZNSaIN8f_config16FeaturePositionsEED2Ev
FN:134,_ZStneIiEbRKSaIT_ES3_
FN:134,_ZStneISsEbRKSaIT_ES3_
FN:134,_ZStneIN8f_config16FeaturePositionsEEbRKSaIT_ES5_
FNDA:28,_ZNSaISt13_Rb_tree_nodeISt4pairIKSsN8f_config15FeatureSettingsEEEEC2Ev
FNDA:84,_ZNSaIiEC2Ev
FNDA:104,_ZNSaIN8f_config16FeaturePositionsEEC2Ev
FNDA:0,_ZNSaISsEC2Ev
FNDA:4,_ZNSaISt13_Rb_tree_nodeISt4pairIKSsN8f_config18RawFeatureSettingsEEEEC2Ev
FNDA:0,_ZNSaIiEC2ERKS_
FNDA:0,_ZNSaIN8f_config16FeaturePositionsEEC2ERKS1_
FNDA:0,_ZNSaISsEC2ERKS_
FNDA:4,_ZNSaISt13_Rb_tree_nodeISt4pairIKSsN8f_config18RawFeatureSettingsEEEEC2ERKS6_
FNDA:0,_ZNSaIiED2Ev
FNDA:0,_ZNSaIN8f_config16FeaturePositionsEED2Ev
FNDA:0,_ZNSaISsED2Ev
FNDA:28,_ZNSaISt13_Rb_tree_nodeISt4pairIKSsN8f_config15FeatureSettingsEEEED2Ev
FNDA:8,_ZNSaISt13_Rb_tree_nodeISt4pairIKSsN8f_config18RawFeatureSettingsEEEED2Ev
FNDA:0,_ZStneIiEbRKSaIT_ES3_
FNDA:0,_ZStneIN8f_config16FeaturePositionsEEbRKSaIT_ES5_
FNDA:0,_ZStneISsEbRKSaIT_ES3_
FNF:17
FNH:7
DA:104,220
DA:106,4
DA:107,4
DA:112,36
DA:134,0
DA:135,0
LF:6
LH:4
end_of_record
SF:/usr/include/c++/4.7.2/bits/basic_ios.h
FN:48,_ZSt13__check_facetISt5ctypeIcEERKT_PS3_
FNDA:0,_ZSt13__check_facetISt5ctypeIcEERKT_PS3_
FNF:1
FNH:0
DA:48,0
DA:50,0
DA:51,0
DA:52,0
LF:4
LH:0
end_of_record
SF:/usr/include/c++/4.7.2/bits/basic_string.h
FN:269,_ZNSs12_Alloc_hiderC2ERKS_
FN:269,_ZNSs12_Alloc_hiderD2Ev
FN:2490,_ZSteqIcEN9__gnu_cxx11__enable_ifIXsrSt9__is_charIT_E7__valueEbE6__typeERKSbIS3_St11char_traitsIS3_ESaIS3_EESC_
FN:2566,_ZStltIcSt11char_traitsIcESaIcEEbRKSbIT_T0_T1_ES8_
FNDA:0,_ZNSs12_Alloc_hiderC2ERKS_
FNDA:0,_ZNSs12_Alloc_hiderD2Ev
FNDA:0,_ZSteqIcEN9__gnu_cxx11__enable_ifIXsrSt9__is_charIT_E7__valueEbE6__typeERKSbIS3_St11char_traitsIS3_ESaIS3_EESC_
FNDA:0,_ZStltIcSt11char_traitsIcESaIcEEbRKSbIT_T0_T1_ES8_
FNF:4
FNH:0
DA:269,0
DA:2490,0
DA:2494,0
DA:2566,0
DA:2568,0
LF:5
LH:0
end_of_record
SF:/usr/include/c++/4.7.2/bits/basic_string.tcc
FN:694,_ZStplIcSt11char_traitsIcESaIcEESbIT_T0_T1_EPKS3_RKS6_
FNDA:0,_ZStplIcSt11char_traitsIcESaIcEESbIT_T0_T1_EPKS3_RKS6_
FNF:1
FNH:0
DA:694,0
DA:700,0
DA:701,0
DA:702,0
DA:703,0
DA:704,0
DA:705,0
LF:7
LH:0
end_of_record
SF:/usr/include/c++/4.7.2/bits/char_traits.h
FN:256,_ZNSt11char_traitsIcE7compareEPKcS2_m
FN:260,_ZNSt11char_traitsIcE6lengthEPKc
FNDA:0,_ZNSt11char_traitsIcE7compareEPKcS2_m
FNDA:0,_ZNSt11char_traitsIcE6lengthEPKc
FNF:2
FNH:0
DA:256,0
DA:257,0
DA:260,0
DA:261,0
LF:4
LH:0
end_of_record
SF:/usr/include/c++/4.7.2/bits/ios_base.h
FN:159,_ZStorSt12_Ios_IostateS_
FNDA:0,_ZStorSt12_Ios_IostateS_
FNF:1
FNH:0
DA:159,0
DA:160,0
LF:2
LH:0
end_of_record
SF:/usr/include/c++/4.7.2/bits/locale_facets.h
FN:867,_ZNKSt5ctypeIcE5widenEc
FNDA:0,_ZNKSt5ctypeIcE5widenEc
FNF:1
FNH:0
DA:867,0
DA:869,0
DA:870,0
DA:871,0
DA:872,0
LF:5
LH:0
end_of_record
SF:/usr/include/c++/4.7.2/bits/move.h
FN:47,_ZSt11__addressofISsEPT_RS0_
FN:47,_ZSt11__addressofIN8f_config16FeaturePositionsEEPT_RS2_
FN:47,_ZSt11__addressofIKSt4pairIKSsN8f_config18RawFeatureSettingsEEEPT_RS6_
FN:77,_ZSt7forwardISt4pairIKSsN8f_config18RawFeatureSettingsEEEOT_RNSt16remove_referenceIS5_E4typeE
FN:77,_ZSt7forwardIRKSsEOT_RNSt16remove_referenceIS2_E4typeE
FN:77,_ZSt7forwardIbEOT_RNSt16remove_referenceIS0_E4typeE
FN:77,_ZSt7forwardIRN8f_config16FeaturePositionsEEOT_RNSt16remove_referenceIS3_E4typeE
FN:77,_ZSt7forwardISt17_Rb_tree_iteratorISt4pairIKSsN8f_config18RawFeatureSettingsEEEEOT_RNSt16remove_referenceIS7_E4typeE
FN:77,_ZSt7forwardIRKSt4pairIKSsN8f_config18RawFeatureSettingsEEEOT_RNSt16remove_referenceIS7_E4typeE
FN:77,_ZSt7forwardIN8f_config15FeatureSettingsEEOT_RNSt16remove_referenceIS2_E4typeE
FN:77,_ZSt7forwardISsEOT_RNSt16remove_referenceIS0_E4typeE
FN:77,_ZSt7forwardIiEOT_RNSt16remove_referenceIS0_E4typeE
FN:77,_ZSt7forwardIRSt17_Rb_tree_iteratorISt4pairIKSsN8f_config18RawFeatureSettingsEEEEOT_RNSt16remove_referenceIS8_E4typeE
FN:77,_ZSt7forwardIRKN8f_config16FeaturePositionsEEOT_RNSt16remove_referenceIS4_E4typeE
FN:77,_ZSt7forwardISt4pairISsN8f_config15FeatureSettingsEEEOT_RNSt16remove_referenceIS4_E4typeE
FN:77,_ZSt7forwardIRSt17_Rb_tree_iteratorISt4pairIKSsN8f_config15FeatureSettingsEEEEOT_RNSt16remove_referenceIS8_E4typeE
FN:77,_ZSt7forwardIN8f_config18RawFeatureSettingsEEOT_RNSt16remove_referenceIS2_E4typeE
FN:77,_ZSt7forwardIRSsEOT_RNSt16remove_referenceIS1_E4typeE
FN:77,_ZSt7forwardIN8f_config16FeaturePositionsEEOT_RNSt16remove_referenceIS2_E4typeE
FN:77,_ZSt7forwardISt17_Rb_tree_iteratorISt4pairIKSsN8f_config15FeatureSettingsEEEEOT_RNSt16remove_referenceIS7_E4typeE
FN:102,_ZSt4moveIRPiEONSt16remove_referenceIT_E4typeEOS3_
FN:102,_ZSt4moveIRPSsEONSt16remove_referenceIT_E4typeEOS3_
FN:102,_ZSt4moveIRSt6vectorIN8f_config16FeaturePositionsESaIS2_EEEONSt16remove_referenceIT_E4typeEOS7_
FN:102,_ZSt4moveIRSsEONSt16remove_referenceIT_E4typeEOS2_
FN:102,_ZSt4moveIRPN8f_config16FeaturePositionsEEONSt16remove_referenceIT_E4typeEOS5_
FN:102,_ZSt4moveIRiEONSt16remove_referenceIT_E4typeEOS2_
FN:102,_ZSt4moveIRSt6vectorISsSaISsEEEONSt16remove_referenceIT_E4typeEOS5_
FN:102,_ZSt4moveIRSaISsEEONSt16remove_referenceIT_E4typeEOS3_
FN:102,_ZSt4moveIRSaIiEEONSt16remove_referenceIT_E4typeEOS3_
FN:102,_ZSt4moveIRN8f_config16FeaturePositionsEEONSt16remove_referenceIT_E4typeEOS4_
FN:102,_ZSt4moveIRSaIN8f_config16FeaturePositionsEEEONSt16remove_referenceIT_E4typeEOS5_
FN:102,_ZSt4moveIRSt6vectorIiSaIiEEEONSt16remove_referenceIT_E4typeEOS5_
FN:167,_ZSt4swapIPN8f_config16FeaturePositionsEEvRT_S4_
FN:167,_ZSt4swapIPSsEvRT_S2_
FN:167,_ZSt4swapIPiEvRT_S2_
FNDA:0,_ZSt11__addressofIN8f_config16FeaturePositionsEEPT_RS2_
FNDA:0,_ZSt11__addressofISsEPT_RS0_
FNDA:1240,_ZSt11__addressofIKSt4pairIKSsN8f_config18RawFeatureSettingsEEEPT_RS6_
FNDA:24,_ZSt7forwardIN8f_config16FeaturePositionsEEOT_RNSt16remove_referenceIS2_E4typeE
FNDA:0,_ZSt7forwardIRKSsEOT_RNSt16remove_referenceIS2_E4typeE
FNDA:0,_ZSt7forwardIRN8f_config16FeaturePositionsEEOT_RNSt16remove_referenceIS3_E4typeE
FNDA:0,_ZSt7forwardIRSsEOT_RNSt16remove_referenceIS1_E4typeE
FNDA:72,_ZSt7forwardIRKSt4pairIKSsN8f_config18RawFeatureSettingsEEEOT_RNSt16remove_referenceIS7_E4typeE
FNDA:0,_ZSt7forwardIRSt17_Rb_tree_iteratorISt4pairIKSsN8f_config15FeatureSettingsEEEEOT_RNSt16remove_referenceIS8_E4typeE
FNDA:8,_ZSt7forwardISt17_Rb_tree_iteratorISt4pairIKSsN8f_config15FeatureSettingsEEEEOT_RNSt16remove_referenceIS7_E4typeE
FNDA:0,_ZSt7forwardIRSt17_Rb_tree_iteratorISt4pairIKSsN8f_config18RawFeatureSettingsEEEEOT_RNSt16remove_referenceIS8_E4typeE
FNDA:0,_ZSt7forwardIbEOT_RNSt16remove_referenceIS0_E4typeE
FNDA:4,_ZSt7forwardISt17_Rb_tree_iteratorISt4pairIKSsN8f_config18RawFeatureSettingsEEEEOT_RNSt16remove_referenceIS7_E4typeE
FNDA:176,_ZSt7forwardISt4pairISsN8f_config15FeatureSettingsEEEOT_RNSt16remove_referenceIS4_E4typeE
FNDA:148,_ZSt7forwardISt4pairIKSsN8f_config18RawFeatureSettingsEEEOT_RNSt16remove_referenceIS5_E4typeE
FNDA:0,_ZSt7forwardIRKN8f_config16FeaturePositionsEEOT_RNSt16remove_referenceIS4_E4typeE
FNDA:360,_ZSt7forwardIiEOT_RNSt16remove_referenceIS0_E4typeE
FNDA:84,_ZSt7forwardIN8f_config15FeatureSettingsEEOT_RNSt16remove_referenceIS2_E4typeE
FNDA:0,_ZSt7forwardISsEOT_RNSt16remove_referenceIS0_E4typeE
FNDA:24,_ZSt7forwardIN8f_config18RawFeatureSettingsEEOT_RNSt16remove_referenceIS2_E4typeE
FNDA:216,_ZSt4moveIRPiEONSt16remove_referenceIT_E4typeEOS3_
FNDA:48,_ZSt4moveIRSaIiEEONSt16remove_referenceIT_E4typeEOS3_
FNDA:24,_ZSt4moveIRSt6vectorIiSaIiEEEONSt16remove_referenceIT_E4typeEOS5_
FNDA:24,_ZSt4moveIRN8f_config16FeaturePositionsEEONSt16remove_referenceIT_E4typeEOS4_
FNDA:936,_ZSt4moveIRPN8f_config16FeaturePositionsEEONSt16remove_referenceIT_E4typeEOS5_
FNDA:0,_ZSt4moveIRPSsEONSt16remove_referenceIT_E4typeEOS3_
FNDA:208,_ZSt4moveIRSaIN8f_config16FeaturePositionsEEEONSt16remove_referenceIT_E4typeEOS5_
FNDA:0,_ZSt4moveIRSaISsEEONSt16remove_referenceIT_E4typeEOS3_
FNDA:104,_ZSt4moveIRSt6vectorIN8f_config16FeaturePositionsESaIS2_EEEONSt16remove_referenceIT_E4typeEOS7_
FNDA:0,_ZSt4moveIRSt6vectorISsSaISsEEEONSt16remove_referenceIT_E4typeEOS5_
FNDA:72,_ZSt4moveIRiEONSt16remove_referenceIT_E4typeEOS2_
FNDA:0,_ZSt4moveIRSsEONSt16remove_referenceIT_E4typeEOS2_
FNDA:72,_ZSt4swapIPiEvRT_S2_
FNDA:312,_ZSt4swapIPN8f_config16FeaturePositionsEEvRT_S4_
FNDA:0,_ZSt4swapIPSsEvRT_S2_
FNF:35
FNH:20
DA:47,1240
DA:50,1240
DA:77,900
DA:78,900
DA:102,1632
DA:103,1632
DA:167,384
DA:176,384
DA:177,384
DA:178,384
DA:179,384
LF:11
LH:11
end_of_record
SF:/usr/include/c++/4.7.2/bits/stl_algo.h
FN:154,_ZSt6__findIN9__gnu_cxx17__normal_iteratorIPSsSt6vectorISsSaISsEEEESsET_S7_S7_RKT0_St26random_access_iterator_tag
FN:154,_ZSt6__findIN9__gnu_cxx17__normal_iteratorIPKSsSt6vectorISsSaISsEEEESsET_S8_S8_RKT0_St26random_access_iterator_tag
FN:4457,_ZSt4findIN9__gnu_cxx17__normal_iteratorIPKSsSt6vectorISsSaISsEEEESsET_S8_S8_RKT0_
FN:4457,_ZSt4findIN9__gnu_cxx17__normal_iteratorIPSsSt6vectorISsSaISsEEEESsET_S7_S7_RKT0_
FNDA:164,_ZSt6__findIN9__gnu_cxx17__normal_iteratorIPSsSt6vectorISsSaISsEEEESsET_S7_S7_RKT0_St26random_access_iterator_tag
FNDA:144,_ZSt6__findIN9__gnu_cxx17__normal_iteratorIPKSsSt6vectorISsSaISsEEEESsET_S8_S8_RKT0_St26random_access_iterator_tag
FNDA:164,_ZSt4findIN9__gnu_cxx17__normal_iteratorIPSsSt6vectorISsSaISsEEEESsET_S7_S7_RKT0_
FNDA:144,_ZSt4findIN9__gnu_cxx17__normal_iteratorIPKSsSt6vectorISsSaISsEEEESsET_S8_S8_RKT0_
FNF:4
FNH:4
DA:154,308
DA:158,308
DA:160,512
DA:162,240
DA:163,20
DA:164,220
DA:166,220
DA:167,4
DA:168,216
DA:170,216
DA:171,8
DA:172,208
DA:174,208
DA:175,4
DA:176,204
DA:179,272
DA:182,4
DA:183,0
DA:184,4
DA:186,100
DA:187,24
DA:188,76
DA:190,248
DA:191,52
DA:192,196
DA:195,196
DA:4457,308
DA:4466,308
LF:28
LH:27
end_of_record
SF:/usr/include/c++/4.7.2/bits/stl_algobase.h
FN:187,_ZSt3minImERKT_S2_S2_
FN:210,_ZSt3maxImERKT_S2_S2_
FN:271,_ZSt12__niter_baseIPN8f_config16FeaturePositionsEENSt11_Niter_baseIT_E13iterator_typeES4_
FN:271,_ZSt12__niter_baseIN9__gnu_cxx17__normal_iteratorIPiSt6vectorIiSaIiEEEEENSt11_Niter_baseIT_E13iterator_typeES8_
FN:271,_ZSt12__niter_baseIPiENSt11_Niter_baseIT_E13iterator_typeES2_
FN:271,_ZSt12__niter_baseIN9__gnu_cxx17__normal_iteratorIPKN8f_config16FeaturePositionsESt6vectorIS3_SaIS3_EEEEENSt11_Niter_baseIT_E13iterator_typeESB_
FN:271,_ZSt12__niter_baseIN9__gnu_cxx17__normal_iteratorIPKiSt6vectorIiSaIiEEEEENSt11_Niter_baseIT_E13iterator_typeES9_
FN:271,_ZSt12__niter_baseIN9__gnu_cxx17__normal_iteratorIPN8f_config16FeaturePositionsESt6vectorIS3_SaIS3_EEEEENSt11_Niter_baseIT_E13iterator_typeESA_
FN:271,_ZSt12__niter_baseIN9__gnu_cxx17__normal_iteratorIPSsSt6vectorISsSaISsEEEEENSt11_Niter_baseIT_E13iterator_typeES8_
FN:271,_ZSt12__niter_baseIPSsENSt11_Niter_baseIT_E13iterator_typeES2_
FN:271,_ZSt12__niter_baseIN9__gnu_cxx17__normal_iteratorIPKSsSt6vectorISsSaISsEEEEENSt11_Niter_baseIT_E13iterator_typeES9_
FN:282,_ZSt12__miter_baseIN9__gnu_cxx17__normal_iteratorIPKN8f_config16FeaturePositionsESt6vectorIS3_SaIS3_EEEEENSt11_Miter_baseIT_E13iterator_typeESB_
FN:282,_ZSt12__miter_baseIN9__gnu_cxx17__normal_iteratorIPKSsSt6vectorISsSaISsEEEEENSt11_Miter_baseIT_E13iterator_typeES9_
FN:282,_ZSt12__miter_baseIPN8f_config16FeaturePositionsEENSt11_Miter_baseIT_E13iterator_typeES4_
FN:282,_ZSt12__miter_baseIPiENSt11_Miter_baseIT_E13iterator_typeES2_
FN:282,_ZSt12__miter_baseIPSsENSt11_Miter_baseIT_E13iterator_typeES2_
FN:282,_ZSt12__miter_baseIN9__gnu_cxx17__normal_iteratorIPKiSt6vectorIiSaIiEEEEENSt11_Miter_baseIT_E13iterator_typeES9_
FN:282,_ZSt12__miter_baseISt13move_iteratorIPiEENSt11_Miter_baseIT_E13iterator_typeES4_
FN:324,_ZNSt11__copy_moveILb0ELb0ESt26random_access_iterator_tagE8__copy_mIPKSsPSsEET0_T_S7_S6_
FN:324,_ZNSt11__copy_moveILb0ELb0ESt26random_access_iterator_tagE8__copy_mIPSsS3_EET0_T_S5_S4_
FN:324,_ZNSt11__copy_moveILb0ELb0ESt26random_access_iterator_tagE8__copy_mIPN8f_config16FeaturePositionsES5_EET0_T_S7_S6_
FN:324,_ZNSt11__copy_moveILb0ELb0ESt26random_access_iterator_tagE8__copy_mIPKN8f_config16FeaturePositionsEPS4_EET0_T_S9_S8_
FN:362,_ZNSt11__copy_moveILb1ELb1ESt26random_access_iterator_tagE8__copy_mIiEEPT_PKS3_S6_S4_
FN:362,_ZNSt11__copy_moveILb0ELb1ESt26random_access_iterator_tagE8__copy_mIiEEPT_PKS3_S6_S4_
FN:373,_ZSt13__copy_move_aILb0EPiS0_ET1_T0_S2_S1_
FN:373,_ZSt13__copy_move_aILb0EPKN8f_config16FeaturePositionsEPS1_ET1_T0_S6_S5_
FN:373,_ZSt13__copy_move_aILb0EPN8f_config16FeaturePositionsES2_ET1_T0_S4_S3_
FN:373,_ZSt13__copy_move_aILb0EPKSsPSsET1_T0_S4_S3_
FN:373,_ZSt13__copy_move_aILb0EPSsS0_ET1_T0_S2_S1_
FN:373,_ZSt13__copy_move_aILb1EPiS0_ET1_T0_S2_S1_
FN:373,_ZSt13__copy_move_aILb0EPKiPiET1_T0_S4_S3_
FN:418,_ZSt14__copy_move_a2ILb0EN9__gnu_cxx17__normal_iteratorIPKiSt6vectorIiSaIiEEEEPiET1_T0_SA_S9_
FN:418,_ZSt14__copy_move_a2ILb0EPSsS0_ET1_T0_S2_S1_
FN:418,_ZSt14__copy_move_a2ILb1EPiS0_ET1_T0_S2_S1_
FN:418,_ZSt14__copy_move_a2ILb0EPiS0_ET1_T0_S2_S1_
FN:418,_ZSt14__copy_move_a2ILb0EN9__gnu_cxx17__normal_iteratorIPKiSt6vectorIiSaIiEEEENS1_IPiS6_EEET1_T0_SB_SA_
FN:418,_ZSt14__copy_move_a2ILb0EPN8f_config16FeaturePositionsES2_ET1_T0_S4_S3_
FN:418,_ZSt14__copy_move_a2ILb0EN9__gnu_cxx17__normal_iteratorIPKSsSt6vectorISsSaISsEEEENS1_IPSsS6_EEET1_T0_SB_SA_
FN:418,_ZSt14__copy_move_a2ILb0EN9__gnu_cxx17__normal_iteratorIPKN8f_config16FeaturePositionsESt6vectorIS3_SaIS3_EEEENS1_IPS3_S8_EEET1_T0_SD_SC_
FN:444,_ZSt4copyIPSsS0_ET0_T_S2_S1_
FN:444,_ZSt4copyIN9__gnu_cxx17__normal_iteratorIPKSsSt6vectorISsSaISsEEEENS1_IPSsS6_EEET0_T_SB_SA_
FN:444,_ZSt4copyIPN8f_config16FeaturePositionsES2_ET0_T_S4_S3_
FN:444,_ZSt4copyISt13move_iteratorIPiES1_ET0_T_S4_S3_
FN:444,_ZSt4copyIPiS0_ET0_T_S2_S1_
FN:444,_ZSt4copyIN9__gnu_cxx17__normal_iteratorIPKiSt6vectorIiSaIiEEEENS1_IPiS6_EEET0_T_SB_SA_
FN:444,_ZSt4copyIN9__gnu_cxx17__normal_iteratorIPKiSt6vectorIiSaIiEEEEPiET0_T_SA_S9_
FN:444,_ZSt4copyIN9__gnu_cxx17__normal_iteratorIPKN8f_config16FeaturePositionsESt6vectorIS3_SaIS3_EEEENS1_IPS3_S8_EEET0_T_SD_SC_
FNDA:0,_ZSt3minImERKT_S2_S2_
FNDA:0,_ZSt3maxImERKT_S2_S2_
FNDA:0,_ZSt12__niter_baseIPiENSt11_Niter_baseIT_E13iterator_typeES2_
FNDA:0,_ZSt12__niter_baseIN9__gnu_cxx17__normal_iteratorIPiSt6vectorIiSaIiEEEEENSt11_Niter_baseIT_E13iterator_typeES8_
FNDA:0,_ZSt12__niter_baseIN9__gnu_cxx17__normal_iteratorIPKiSt6vectorIiSaIiEEEEENSt11_Niter_baseIT_E13iterator_typeES9_
FNDA:0,_ZSt12__niter_baseIPN8f_config16FeaturePositionsEENSt11_Niter_baseIT_E13iterator_typeES4_
FNDA:0,_ZSt12__niter_baseIN9__gnu_cxx17__normal_iteratorIPN8f_config16FeaturePositionsESt6vectorIS3_SaIS3_EEEEENSt11_Niter_baseIT_E13iterator_typeESA_
FNDA:0,_ZSt12__niter_baseIN9__gnu_cxx17__normal_iteratorIPKN8f_config16FeaturePositionsESt6vectorIS3_SaIS3_EEEEENSt11_Niter_baseIT_E13iterator_typeESB_
FNDA:0,_ZSt12__niter_baseIPSsENSt11_Niter_baseIT_E13iterator_typeES2_
FNDA:0,_ZSt12__niter_baseIN9__gnu_cxx17__normal_iteratorIPSsSt6vectorISsSaISsEEEEENSt11_Niter_baseIT_E13iterator_typeES8_
FNDA:0,_ZSt12__niter_baseIN9__gnu_cxx17__normal_iteratorIPKSsSt6vectorISsSaISsEEEEENSt11_Niter_baseIT_E13iterator_typeES9_
FNDA:224,_ZSt12__miter_baseISt13move_iteratorIPiEENSt11_Miter_baseIT_E13iterator_typeES4_
FNDA:0,_ZSt12__miter_baseIPiENSt11_Miter_baseIT_E13iterator_typeES2_
FNDA:0,_ZSt12__miter_baseIN9__gnu_cxx17__normal_iteratorIPKiSt6vectorIiSaIiEEEEENSt11_Miter_baseIT_E13iterator_typeES9_
FNDA:0,_ZSt12__miter_baseIPN8f_config16FeaturePositionsEENSt11_Miter_baseIT_E13iterator_typeES4_
FNDA:0,_ZSt12__miter_baseIN9__gnu_cxx17__normal_iteratorIPKN8f_config16FeaturePositionsESt6vectorIS3_SaIS3_EEEEENSt11_Miter_baseIT_E13iterator_typeESB_
FNDA:0,_ZSt12__miter_baseIPSsENSt11_Miter_baseIT_E13iterator_typeES2_
FNDA:0,_ZSt12__miter_baseIN9__gnu_cxx17__normal_iteratorIPKSsSt6vectorISsSaISsEEEEENSt11_Miter_baseIT_E13iterator_typeES9_
FNDA:0,_ZNSt11__copy_moveILb0ELb0ESt26random_access_iterator_tagE8__copy_mIPN8f_config16FeaturePositionsES5_EET0_T_S7_S6_
FNDA:0,_ZNSt11__copy_moveILb0ELb0ESt26random_access_iterator_tagE8__copy_mIPKN8f_config16FeaturePositionsEPS4_EET0_T_S9_S8_
FNDA:0,_ZNSt11__copy_moveILb0ELb0ESt26random_access_iterator_tagE8__copy_mIPSsS3_EET0_T_S5_S4_
FNDA:0,_ZNSt11__copy_moveILb0ELb0ESt26random_access_iterator_tagE8__copy_mIPKSsPSsEET0_T_S7_S6_
FNDA:112,_ZNSt11__copy_moveILb1ELb1ESt26random_access_iterator_tagE8__copy_mIiEEPT_PKS3_S6_S4_
FNDA:0,_ZNSt11__copy_moveILb0ELb1ESt26random_access_iterator_tagE8__copy_mIiEEPT_PKS3_S6_S4_
FNDA:112,_ZSt13__copy_move_aILb1EPiS0_ET1_T0_S2_S1_
FNDA:0,_ZSt13__copy_move_aILb0EPiS0_ET1_T0_S2_S1_
FNDA:0,_ZSt13__copy_move_aILb0EPKiPiET1_T0_S4_S3_
FNDA:0,_ZSt13__copy_move_aILb0EPN8f_config16FeaturePositionsES2_ET1_T0_S4_S3_
FNDA:0,_ZSt13__copy_move_aILb0EPKN8f_config16FeaturePositionsEPS1_ET1_T0_S6_S5_
FNDA:0,_ZSt13__copy_move_aILb0EPSsS0_ET1_T0_S2_S1_
FNDA:0,_ZSt13__copy_move_aILb0EPKSsPSsET1_T0_S4_S3_
FNDA:0,_ZSt14__copy_move_a2ILb0EN9__gnu_cxx17__normal_iteratorIPKiSt6vectorIiSaIiEEEEPiET1_T0_SA_S9_
FNDA:112,_ZSt14__copy_move_a2ILb1EPiS0_ET1_T0_S2_S1_
FNDA:0,_ZSt14__copy_move_a2ILb0EPiS0_ET1_T0_S2_S1_
FNDA:0,_ZSt14__copy_move_a2ILb0EN9__gnu_cxx17__normal_iteratorIPKiSt6vectorIiSaIiEEEENS1_IPiS6_EEET1_T0_SB_SA_
FNDA:0,_ZSt14__copy_move_a2ILb0EPN8f_config16FeaturePositionsES2_ET1_T0_S4_S3_
FNDA:0,_ZSt14__copy_move_a2ILb0EN9__gnu_cxx17__normal_iteratorIPKN8f_config16FeaturePositionsESt6vectorIS3_SaIS3_EEEENS1_IPS3_S8_EEET1_T0_SD_SC_
FNDA:0,_ZSt14__copy_move_a2ILb0EPSsS0_ET1_T0_S2_S1_
FNDA:0,_ZSt14__copy_move_a2ILb0EN9__gnu_cxx17__normal_iteratorIPKSsSt6vectorISsSaISsEEEENS1_IPSsS6_EEET1_T0_SB_SA_
FNDA:0,_ZSt4copyIN9__gnu_cxx17__normal_iteratorIPKiSt6vectorIiSaIiEEEEPiET0_T_SA_S9_
FNDA:112,_ZSt4copyISt13move_iteratorIPiES1_ET0_T_S4_S3_
FNDA:0,_ZSt4copyIPiS0_ET0_T_S2_S1_
FNDA:0,_ZSt4copyIN9__gnu_cxx17__normal_iteratorIPKiSt6vectorIiSaIiEEEENS1_IPiS6_EEET0_T_SB_SA_
FNDA:0,_ZSt4copyIPN8f_config16FeaturePositionsES2_ET0_T_S4_S3_
FNDA:0,_ZSt4copyIN9__gnu_cxx17__normal_iteratorIPKN8f_config16FeaturePositionsESt6vectorIS3_SaIS3_EEEENS1_IPS3_S8_EEET0_T_SD_SC_
FNDA:0,_ZSt4copyIPSsS0_ET0_T_S2_S1_
FNDA:0,_ZSt4copyIN9__gnu_cxx17__normal_iteratorIPKSsSt6vectorISsSaISsEEEENS1_IPSsS6_EEET0_T_SB_SA_
FNF:47
FNH:5
DA:187,0
DA:192,0
DA:193,0
DA:194,0
DA:210,0
DA:215,0
DA:216,0
DA:217,0
DA:271,0
DA:272,0
DA:282,224
DA:283,224
DA:324,0
DA:327,0
DA:329,0
DA:330,0
DA:331,0
DA:333,0
DA:362,112
DA:364,112
DA:365,112
DA:366,44
DA:367,112
DA:373,112
DA:381,112
DA:384,112
DA:418,112
DA:422,112
DA:444,112
DA:454,112
LF:30
LH:14
end_of_record
SF:/usr/include/c++/4.7.2/bits/stl_construct.h
FN:76,_ZSt10_ConstructIN8f_config16FeaturePositionsEIRS1_EEvPT_DpOT0_
FN:76,_ZSt10_ConstructISsIRKSsEEvPT_DpOT0_
FN:76,_ZSt10_ConstructIN8f_config16FeaturePositionsEIS1_EEvPT_DpOT0_
FN:76,_ZSt10_ConstructIN8f_config16FeaturePositionsEIRKS1_EEvPT_DpOT0_
FN:76,_ZSt10_ConstructISsIRSsEEvPT_DpOT0_
FN:76,_ZSt10_ConstructISsISsEEvPT_DpOT0_
FN:94,_ZSt8_DestroyISsEvPT_
FN:94,_ZSt8_DestroyIN8f_config16FeaturePositionsEEvPT_
FN:102,_ZNSt12_Destroy_auxILb0EE9__destroyIN9__gnu_cxx17__normal_iteratorIPSsSt6vectorISsSaISsEEEEEEvT_S9_
FN:102,_ZNSt12_Destroy_auxILb0EE9__destroyIPN8f_config16FeaturePositionsEEEvT_S5_
FN:102,_ZNSt12_Destroy_auxILb0EE9__destroyIN9__gnu_cxx17__normal_iteratorIPN8f_config16FeaturePositionsESt6vectorIS5_SaIS5_EEEEEEvT_SB_
FN:102,_ZNSt12_Destroy_auxILb0EE9__destroyIPSsEEvT_S3_
FN:114,_ZNSt12_Destroy_auxILb1EE9__destroyIPiEEvT_S3_
FN:114,_ZNSt12_Destroy_auxILb1EE9__destroyIN9__gnu_cxx17__normal_iteratorIPiSt6vectorIiSaIiEEEEEEvT_S9_
FN:124,_ZSt8_DestroyIPiEvT_S1_
FN:124,_ZSt8_DestroyIN9__gnu_cxx17__normal_iteratorIPN8f_config16FeaturePositionsESt6vectorIS3_SaIS3_EEEEEvT_S9_
FN:124,_ZSt8_DestroyIPN8f_config16FeaturePositionsEEvT_S3_
FN:124,_ZSt8_DestroyIN9__gnu_cxx17__normal_iteratorIPSsSt6vectorISsSaISsEEEEEvT_S7_
FN:124,_ZSt8_DestroyIPSsEvT_S1_
FN:124,_ZSt8_DestroyIN9__gnu_cxx17__normal_iteratorIPiSt6vectorIiSaIiEEEEEvT_S7_
FN:152,_ZSt8_DestroyIN9__gnu_cxx17__normal_iteratorIPSsSt6vectorISsSaISsEEEESsEvT_S7_RSaIT0_E
FN:152,_ZSt8_DestroyIPN8f_config16FeaturePositionsES1_EvT_S3_RSaIT0_E
FN:152,_ZSt8_DestroyIN9__gnu_cxx17__normal_iteratorIPN8f_config16FeaturePositionsESt6vectorIS3_SaIS3_EEEES3_EvT_S9_RSaIT0_E
FN:152,_ZSt8_DestroyIPiiEvT_S1_RSaIT0_E
FN:152,_ZSt8_DestroyIN9__gnu_cxx17__normal_iteratorIPiSt6vectorIiSaIiEEEEiEvT_S7_RSaIT0_E
FN:152,_ZSt8_DestroyIPSsSsEvT_S1_RSaIT0_E
FNDA:0,_ZSt10_ConstructISsISsEEvPT_DpOT0_
FNDA:24,_ZSt10_ConstructIN8f_config16FeaturePositionsEIS1_EEvPT_DpOT0_
FNDA:0,_ZSt10_ConstructIN8f_config16FeaturePositionsEIRKS1_EEvPT_DpOT0_
FNDA:0,_ZSt10_ConstructISsIRKSsEEvPT_DpOT0_
FNDA:0,_ZSt10_ConstructIN8f_config16FeaturePositionsEIRS1_EEvPT_DpOT0_
FNDA:0,_ZSt10_ConstructISsIRSsEEvPT_DpOT0_
FNDA:0,_ZSt8_DestroyIN8f_config16FeaturePositionsEEvPT_
FNDA:0,_ZSt8_DestroyISsEvPT_
FNDA:0,_ZNSt12_Destroy_auxILb0EE9__destroyIN9__gnu_cxx17__normal_iteratorIPN8f_config16FeaturePositionsESt6vectorIS5_SaIS5_EEEEEEvT_SB_
FNDA:0,_ZNSt12_Destroy_auxILb0EE9__destroyIN9__gnu_cxx17__normal_iteratorIPSsSt6vectorISsSaISsEEEEEEvT_S9_
FNDA:0,_ZNSt12_Destroy_auxILb0EE9__destroyIPN8f_config16FeaturePositionsEEEvT_S5_
FNDA:0,_ZNSt12_Destroy_auxILb0EE9__destroyIPSsEEvT_S3_
FNDA:0,_ZNSt12_Destroy_auxILb1EE9__destroyIN9__gnu_cxx17__normal_iteratorIPiSt6vectorIiSaIiEEEEEEvT_S9_
FNDA:0,_ZNSt12_Destroy_auxILb1EE9__destroyIPiEEvT_S3_
FNDA:0,_ZSt8_DestroyIN9__gnu_cxx17__normal_iteratorIPiSt6vectorIiSaIiEEEEEvT_S7_
FNDA:0,_ZSt8_DestroyIN9__gnu_cxx17__normal_iteratorIPN8f_config16FeaturePositionsESt6vectorIS3_SaIS3_EEEEEvT_S9_
FNDA:0,_ZSt8_DestroyIN9__gnu_cxx17__normal_iteratorIPSsSt6vectorISsSaISsEEEEEvT_S7_
FNDA:0,_ZSt8_DestroyIPiEvT_S1_
FNDA:0,_ZSt8_DestroyIPN8f_config16FeaturePositionsEEvT_S3_
FNDA:0,_ZSt8_DestroyIPSsEvT_S1_
FNDA:0,_ZSt8_DestroyIN9__gnu_cxx17__normal_iteratorIPiSt6vectorIiSaIiEEEEiEvT_S7_RSaIT0_E
FNDA:0,_ZSt8_DestroyIN9__gnu_cxx17__normal_iteratorIPN8f_config16FeaturePositionsESt6vectorIS3_SaIS3_EEEES3_EvT_S9_RSaIT0_E
FNDA:0,_ZSt8_DestroyIN9__gnu_cxx17__normal_iteratorIPSsSt6vectorISsSaISsEEEESsEvT_S7_RSaIT0_E
FNDA:0,_ZSt8_DestroyIPiiEvT_S1_RSaIT0_E
FNDA:0,_ZSt8_DestroyIPN8f_config16FeaturePositionsES1_EvT_S3_RSaIT0_E
FNDA:0,_ZSt8_DestroyIPSsSsEvT_S1_RSaIT0_E
FNF:26
FNH:1
DA:76,24
DA:77,24
DA:94,0
DA:95,0
DA:102,0
DA:104,0
DA:105,0
DA:106,0
DA:114,0
DA:124,0
DA:128,0
DA:130,0
DA:152,0
DA:155,0
DA:156,0
LF:15
LH:2
end_of_record
SF:/usr/include/c++/4.7.2/bits/stl_function.h
FN:236,_ZNKSt4lessISsEclERKSsS2_
FN:498,_ZNKSt10_Select1stISt4pairIKSsN8f_config18RawFeatureSettingsEEEclERS4_
FN:502,_ZNKSt10_Select1stISt4pairIKSsN8f_config18RawFeatureSettingsEEEclERKS4_
FN:502,_ZNKSt10_Select1stISt4pairIKSsN8f_config15FeatureSettingsEEEclERKS4_
FN:508,_ZNKSt10_Select1stISt4pairIKSsN8f_config15FeatureSettingsEEEclIS0_ISsS3_EEERNT_10first_typeERS8_
FNDA:0,_ZNKSt4lessISsEclERKSsS2_
FNDA:40,_ZNKSt10_Select1stISt4pairIKSsN8f_config18RawFeatureSettingsEEEclERS4_
FNDA:0,_ZNKSt10_Select1stISt4pairIKSsN8f_config15FeatureSettingsEEEclERKS4_
FNDA:324,_ZNKSt10_Select1stISt4pairIKSsN8f_config18RawFeatureSettingsEEEclERKS4_
FNDA:40,_ZNKSt10_Select1stISt4pairIKSsN8f_config15FeatureSettingsEEEclIS0_ISsS3_EEERNT_10first_typeERS8_
FNF:5
FNH:3
DA:236,0
DA:237,0
DA:498,40
DA:499,40
DA:502,324
DA:503,324
DA:508,40
DA:509,40
LF:8
LH:6
end_of_record
SF:/usr/include/c++/4.7.2/bits/stl_iterator.h
FN:728,_ZN9__gnu_cxx17__normal_iteratorIPSsSt6vectorISsSaISsEEEC2ERKS1_
FN:728,_ZN9__gnu_cxx17__normal_iteratorIPKSsSt6vectorISsSaISsEEEC2ERKS2_
FN:728,_ZN9__gnu_cxx17__normal_iteratorIPKiSt6vectorIiSaIiEEEC2ERKS2_
FN:728,_ZN9__gnu_cxx17__normal_iteratorIPKN8f_config16FeaturePositionsESt6vectorIS2_SaIS2_EEEC2ERKS4_
FN:728,_ZN9__gnu_cxx17__normal_iteratorIPiSt6vectorIiSaIiEEEC2ERKS1_
FN:728,_ZN9__gnu_cxx17__normal_iteratorIPN8f_config16FeaturePositionsESt6vectorIS2_SaIS2_EEEC2ERKS3_
FN:740,_ZNK9__gnu_cxx17__normal_iteratorIPSsSt6vectorISsSaISsEEEdeEv
FN:740,_ZNK9__gnu_cxx17__normal_iteratorIPKSsSt6vectorISsSaISsEEEdeEv
FN:740,_ZNK9__gnu_cxx17__normal_iteratorIPKN8f_config16FeaturePositionsESt6vectorIS2_SaIS2_EEEdeEv
FN:740,_ZNK9__gnu_cxx17__normal_iteratorIPN8f_config16FeaturePositionsESt6vectorIS2_SaIS2_EEEdeEv
FN:748,_ZN9__gnu_cxx17__normal_iteratorIPN8f_config16FeaturePositionsESt6vectorIS2_SaIS2_EEEppEv
FN:748,_ZN9__gnu_cxx17__normal_iteratorIPKN8f_config16FeaturePositionsESt6vectorIS2_SaIS2_EEEppEv
FN:748,_ZN9__gnu_cxx17__normal_iteratorIPSsSt6vectorISsSaISsEEEppEv
FN:748,_ZN9__gnu_cxx17__normal_iteratorIPKSsSt6vectorISsSaISsEEEppEv
FN:792,_ZNK9__gnu_cxx17__normal_iteratorIPKiSt6vectorIiSaIiEEE4baseEv
FN:792,_ZNK9__gnu_cxx17__normal_iteratorIPKSsSt6vectorISsSaISsEEE4baseEv
FN:792,_ZNK9__gnu_cxx17__normal_iteratorIPSsSt6vectorISsSaISsEEE4baseEv
FN:792,_ZNK9__gnu_cxx17__normal_iteratorIPKN8f_config16FeaturePositionsESt6vectorIS2_SaIS2_EEE4baseEv
FN:792,_ZNK9__gnu_cxx17__normal_iteratorIPN8f_config16FeaturePositionsESt6vectorIS2_SaIS2_EEE4baseEv
FN:792,_ZNK9__gnu_cxx17__normal_iteratorIPiSt6vectorIiSaIiEEE4baseEv
FN:813,_ZN9__gnu_cxxeqIPSsSt6vectorISsSaISsEEEEbRKNS_17__normal_iteratorIT_T0_EESA_
FN:813,_ZN9__gnu_cxxeqIPKSsSt6vectorISsSaISsEEEEbRKNS_17__normal_iteratorIT_T0_EESB_
FN:825,_ZN9__gnu_cxxneIPN8f_config16FeaturePositionsESt6vectorIS2_SaIS2_EEEEbRKNS_17__normal_iteratorIT_T0_EESC_
FN:825,_ZN9__gnu_cxxneIPSsSt6vectorISsSaISsEEEEbRKNS_17__normal_iteratorIT_T0_EESA_
FN:825,_ZN9__gnu_cxxneIPKN8f_config16FeaturePositionsESt6vectorIS2_SaIS2_EEEEbRKNS_17__normal_iteratorIT_T0_EESD_
FN:825,_ZN9__gnu_cxxneIPKSsSt6vectorISsSaISsEEEEbRKNS_17__normal_iteratorIT_T0_EESB_
FN:898,_ZN9__gnu_cxxmiIPSsSt6vectorISsSaISsEEEENS_17__normal_iteratorIT_T0_E15difference_typeERKS8_SB_
FN:898,_ZN9__gnu_cxxmiIPKSsSt6vectorISsSaISsEEEENS_17__normal_iteratorIT_T0_E15difference_typeERKS9_SC_
FN:952,_ZNSt13move_iteratorIPiEC2ES0_
FN:952,_ZNSt13move_iteratorIPSsEC2ES0_
FN:952,_ZNSt13move_iteratorIPN8f_config16FeaturePositionsEEC2ES2_
FN:960,_ZNKSt13move_iteratorIPN8f_config16FeaturePositionsEE4baseEv
FN:960,_ZNKSt13move_iteratorIPiE4baseEv
FN:960,_ZNKSt13move_iteratorIPSsE4baseEv
FN:964,_ZNKSt13move_iteratorIPSsEdeEv
FN:964,_ZNKSt13move_iteratorIPN8f_config16FeaturePositionsEEdeEv
FN:972,_ZNSt13move_iteratorIPSsEppEv
FN:972,_ZNSt13move_iteratorIPN8f_config16FeaturePositionsEEppEv
FN:1039,_ZSteqIPN8f_config16FeaturePositionsEEbRKSt13move_iteratorIT_ES7_
FN:1039,_ZSteqIPSsEbRKSt13move_iteratorIT_ES5_
FN:1051,_ZStneIPSsEbRKSt13move_iteratorIT_ES5_
FN:1051,_ZStneIPN8f_config16FeaturePositionsEEbRKSt13move_iteratorIT_ES7_
FN:1134,_ZSt32__make_move_if_noexcept_iteratorIPSsSt13move_iteratorIS0_EET0_T_
FN:1134,_ZSt32__make_move_if_noexcept_iteratorIPiSt13move_iteratorIS0_EET0_T_
FN:1134,_ZSt32__make_move_if_noexcept_iteratorIPN8f_config16FeaturePositionsESt13move_iteratorIS2_EET0_T_
FNDA:16,_ZN9__gnu_cxx17__normal_iteratorIPiSt6vectorIiSaIiEEEC2ERKS1_
FNDA:0,_ZN9__gnu_cxx17__normal_iteratorIPKiSt6vectorIiSaIiEEEC2ERKS2_
FNDA:0,_ZN9__gnu_cxx17__normal_iteratorIPN8f_config16FeaturePositionsESt6vectorIS2_SaIS2_EEEC2ERKS3_
FNDA:0,_ZN9__gnu_cxx17__normal_iteratorIPKN8f_config16FeaturePositionsESt6vectorIS2_SaIS2_EEEC2ERKS4_
FNDA:0,_ZN9__gnu_cxx17__normal_iteratorIPSsSt6vectorISsSaISsEEEC2ERKS1_
FNDA:0,_ZN9__gnu_cxx17__normal_iteratorIPKSsSt6vectorISsSaISsEEEC2ERKS2_
FNDA:0,_ZNK9__gnu_cxx17__normal_iteratorIPKN8f_config16FeaturePositionsESt6vectorIS2_SaIS2_EEEdeEv
FNDA:0,_ZNK9__gnu_cxx17__normal_iteratorIPN8f_config16FeaturePositionsESt6vectorIS2_SaIS2_EEEdeEv
FNDA:0,_ZNK9__gnu_cxx17__normal_iteratorIPSsSt6vectorISsSaISsEEEdeEv
FNDA:0,_ZNK9__gnu_cxx17__normal_iteratorIPKSsSt6vectorISsSaISsEEEdeEv
FNDA:0,_ZN9__gnu_cxx17__normal_iteratorIPKN8f_config16FeaturePositionsESt6vectorIS2_SaIS2_EEEppEv
FNDA:0,_ZN9__gnu_cxx17__normal_iteratorIPN8f_config16FeaturePositionsESt6vectorIS2_SaIS2_EEEppEv
FNDA:0,_ZN9__gnu_cxx17__normal_iteratorIPSsSt6vectorISsSaISsEEEppEv
FNDA:0,_ZN9__gnu_cxx17__normal_iteratorIPKSsSt6vectorISsSaISsEEEppEv
FNDA:56,_ZNK9__gnu_cxx17__normal_iteratorIPiSt6vectorIiSaIiEEE4baseEv
FNDA:0,_ZNK9__gnu_cxx17__normal_iteratorIPKiSt6vectorIiSaIiEEE4baseEv
FNDA:0,_ZNK9__gnu_cxx17__normal_iteratorIPN8f_config16FeaturePositionsESt6vectorIS2_SaIS2_EEE4baseEv
FNDA:0,_ZNK9__gnu_cxx17__normal_iteratorIPKN8f_config16FeaturePositionsESt6vectorIS2_SaIS2_EEE4baseEv
FNDA:0,_ZNK9__gnu_cxx17__normal_iteratorIPSsSt6vectorISsSaISsEEE4baseEv
FNDA:0,_ZNK9__gnu_cxx17__normal_iteratorIPKSsSt6vectorISsSaISsEEE4baseEv
FNDA:164,_ZN9__gnu_cxxeqIPSsSt6vectorISsSaISsEEEEbRKNS_17__normal_iteratorIT_T0_EESA_
FNDA:144,_ZN9__gnu_cxxeqIPKSsSt6vectorISsSaISsEEEEbRKNS_17__normal_iteratorIT_T0_EESB_
FNDA:0,_ZN9__gnu_cxxneIPKN8f_config16FeaturePositionsESt6vectorIS2_SaIS2_EEEEbRKNS_17__normal_iteratorIT_T0_EESD_
FNDA:0,_ZN9__gnu_cxxneIPN8f_config16FeaturePositionsESt6vectorIS2_SaIS2_EEEEbRKNS_17__normal_iteratorIT_T0_EESC_
FNDA:0,_ZN9__gnu_cxxneIPSsSt6vectorISsSaISsEEEEbRKNS_17__normal_iteratorIT_T0_EESA_
FNDA:0,_ZN9__gnu_cxxneIPKSsSt6vectorISsSaISsEEEEbRKNS_17__normal_iteratorIT_T0_EESB_
FNDA:292,_ZN9__gnu_cxxmiIPSsSt6vectorISsSaISsEEEENS_17__normal_iteratorIT_T0_E15difference_typeERKS8_SB_
FNDA:288,_ZN9__gnu_cxxmiIPKSsSt6vectorISsSaISsEEEENS_17__normal_iteratorIT_T0_E15difference_typeERKS9_SC_
FNDA:224,_ZNSt13move_iteratorIPiEC2ES0_
FNDA:0,_ZNSt13move_iteratorIPSsEC2ES0_
FNDA:96,_ZNSt13move_iteratorIPN8f_config16FeaturePositionsEEC2ES2_
FNDA:224,_ZNKSt13move_iteratorIPiE4baseEv
FNDA:0,_ZNKSt13move_iteratorIPSsE4baseEv
FNDA:144,_ZNKSt13move_iteratorIPN8f_config16FeaturePositionsEE4baseEv
FNDA:0,_ZNKSt13move_iteratorIPSsEdeEv
FNDA:24,_ZNKSt13move_iteratorIPN8f_config16FeaturePositionsEEdeEv
FNDA:0,_ZNSt13move_iteratorIPSsEppEv
FNDA:24,_ZNSt13move_iteratorIPN8f_config16FeaturePositionsEEppEv
FNDA:0,_ZSteqIPSsEbRKSt13move_iteratorIT_ES5_
FNDA:72,_ZSteqIPN8f_config16FeaturePositionsEEbRKSt13move_iteratorIT_ES7_
FNDA:0,_ZStneIPSsEbRKSt13move_iteratorIT_ES5_
FNDA:72,_ZStneIPN8f_config16FeaturePositionsEEbRKSt13move_iteratorIT_ES7_
FNDA:224,_ZSt32__make_move_if_noexcept_iteratorIPiSt13move_iteratorIS0_EET0_T_
FNDA:0,_ZSt32__make_move_if_noexcept_iteratorIPSsSt13move_iteratorIS0_EET0_T_
FNDA:96,_ZSt32__make_move_if_noexcept_iteratorIPN8f_config16FeaturePositionsESt13move_iteratorIS2_EET0_T_
FNF:45
FNH:16
DA:728,16
DA:740,0
DA:741,0
DA:748,0
DA:750,0
DA:751,0
DA:792,56
DA:793,56
DA:813,308
DA:815,308
DA:825,0
DA:827,0
DA:898,580
DA:900,580
DA:952,320
DA:953,320
DA:960,368
DA:961,368
DA:964,24
DA:965,24
DA:972,24
DA:974,24
DA:975,24
DA:1039,72
DA:1041,72
DA:1051,72
DA:1053,72
DA:1134,320
DA:1135,320
LF:29
LH:22
end_of_record
SF:/usr/include/c++/4.7.2/bits/stl_iterator_base_types.h
FN:202,_ZSt19__iterator_categoryIN9__gnu_cxx17__normal_iteratorIPKSsSt6vectorISsSaISsEEEEENSt15iterator_traitsIT_E17iterator_categoryERKS9_
FN:202,_ZSt19__iterator_categoryIN9__gnu_cxx17__normal_iteratorIPSsSt6vectorISsSaISsEEEEENSt15iterator_traitsIT_E17iterator_categoryERKS8_
FN:213,_ZNSt10_Iter_baseIN9__gnu_cxx17__normal_iteratorIPKiSt6vectorIiSaIiEEEELb0EE7_S_baseES7_
FN:213,_ZNSt10_Iter_baseIPiLb0EE7_S_baseES0_
FN:213,_ZNSt10_Iter_baseIPSsLb0EE7_S_baseES0_
FN:213,_ZNSt10_Iter_baseIN9__gnu_cxx17__normal_iteratorIPKSsSt6vectorISsSaISsEEEELb0EE7_S_baseES7_
FN:213,_ZNSt10_Iter_baseIN9__gnu_cxx17__normal_iteratorIPKN8f_config16FeaturePositionsESt6vectorIS3_SaIS3_EEEELb0EE7_S_baseES9_
FN:213,_ZNSt10_Iter_baseIPN8f_config16FeaturePositionsELb0EE7_S_baseES2_
FN:221,_ZNSt10_Iter_baseIN9__gnu_cxx17__normal_iteratorIPKiSt6vectorIiSaIiEEEELb1EE7_S_baseES7_
FN:221,_ZNSt10_Iter_baseIN9__gnu_cxx17__normal_iteratorIPiSt6vectorIiSaIiEEEELb1EE7_S_baseES6_
FN:221,_ZNSt10_Iter_baseIN9__gnu_cxx17__normal_iteratorIPSsSt6vectorISsSaISsEEEELb1EE7_S_baseES6_
FN:221,_ZNSt10_Iter_baseISt13move_iteratorIPiELb1EE7_S_baseES2_
FN:221,_ZNSt10_Iter_baseIN9__gnu_cxx17__normal_iteratorIPN8f_config16FeaturePositionsESt6vectorIS3_SaIS3_EEEELb1EE7_S_baseES8_
FN:221,_ZNSt10_Iter_baseIN9__gnu_cxx17__normal_iteratorIPKN8f_config16FeaturePositionsESt6vectorIS3_SaIS3_EEEELb1EE7_S_baseES9_
FN:221,_ZNSt10_Iter_baseIN9__gnu_cxx17__normal_iteratorIPKSsSt6vectorISsSaISsEEEELb1EE7_S_baseES7_
FNDA:164,_ZSt19__iterator_categoryIN9__gnu_cxx17__normal_iteratorIPSsSt6vectorISsSaISsEEEEENSt15iterator_traitsIT_E17iterator_categoryERKS8_
FNDA:144,_ZSt19__iterator_categoryIN9__gnu_cxx17__normal_iteratorIPKSsSt6vectorISsSaISsEEEEENSt15iterator_traitsIT_E17iterator_categoryERKS9_
FNDA:0,_ZNSt10_Iter_baseIPiLb0EE7_S_baseES0_
FNDA:0,_ZNSt10_Iter_baseIN9__gnu_cxx17__normal_iteratorIPKiSt6vectorIiSaIiEEEELb0EE7_S_baseES7_
FNDA:0,_ZNSt10_Iter_baseIPN8f_config16FeaturePositionsELb0EE7_S_baseES2_
FNDA:0,_ZNSt10_Iter_baseIN9__gnu_cxx17__normal_iteratorIPKN8f_config16FeaturePositionsESt6vectorIS3_SaIS3_EEEELb0EE7_S_baseES9_
FNDA:0,_ZNSt10_Iter_baseIPSsLb0EE7_S_baseES0_
FNDA:0,_ZNSt10_Iter_baseIN9__gnu_cxx17__normal_iteratorIPKSsSt6vectorISsSaISsEEEELb0EE7_S_baseES7_
FNDA:0,_ZNSt10_Iter_baseIN9__gnu_cxx17__normal_iteratorIPiSt6vectorIiSaIiEEEELb1EE7_S_baseES6_
FNDA:0,_ZNSt10_Iter_baseIN9__gnu_cxx17__normal_iteratorIPKiSt6vectorIiSaIiEEEELb1EE7_S_baseES7_
FNDA:224,_ZNSt10_Iter_baseISt13move_iteratorIPiELb1EE7_S_baseES2_
FNDA:0,_ZNSt10_Iter_baseIN9__gnu_cxx17__normal_iteratorIPN8f_config16FeaturePositionsESt6vectorIS3_SaIS3_EEEELb1EE7_S_baseES8_
FNDA:0,_ZNSt10_Iter_baseIN9__gnu_cxx17__normal_iteratorIPKN8f_config16FeaturePositionsESt6vectorIS3_SaIS3_EEEELb1EE7_S_baseES9_
FNDA:0,_ZNSt10_Iter_baseIN9__gnu_cxx17__normal_iteratorIPSsSt6vectorISsSaISsEEEELb1EE7_S_baseES6_
FNDA:0,_ZNSt10_Iter_baseIN9__gnu_cxx17__normal_iteratorIPKSsSt6vectorISsSaISsEEEELb1EE7_S_baseES7_
FNF:15
FNH:3
DA:202,308
DA:203,308
DA:213,0
DA:214,0
DA:221,224
DA:222,224
LF:6
LH:4
end_of_record
SF:/usr/include/c++/4.7.2/bits/stl_map.h
FN:90,_ZNSt3mapISsN8f_config18RawFeatureSettingsESt4lessISsESaISt4pairIKSsS1_EEED2Ev
FN:90,_ZNSt3mapISsN8f_config15FeatureSettingsESt4lessISsESaISt4pairIKSsS1_EEED2Ev
FN:154,_ZNSt3mapISsN8f_config15FeatureSettingsESt4lessISsESaISt4pairIKSsS1_EEEC2Ev
FN:154,_ZNSt3mapISsN8f_config18RawFeatureSettingsESt4lessISsESaISt4pairIKSsS1_EEEC2Ev
FN:174,_ZNSt3mapISsN8f_config18RawFeatureSettingsESt4lessISsESaISt4pairIKSsS1_EEEC2ERKS8_
FN:323,_ZNKSt3mapISsN8f_config18RawFeatureSettingsESt4lessISsESaISt4pairIKSsS1_EEE5beginEv
FN:332,_ZNSt3mapISsN8f_config15FeatureSettingsESt4lessISsESaISt4pairIKSsS1_EEE3endEv
FN:332,_ZNSt3mapISsN8f_config18RawFeatureSettingsESt4lessISsESaISt4pairIKSsS1_EEE3endEv
FN:341,_ZNKSt3mapISsN8f_config18RawFeatureSettingsESt4lessISsESaISt4pairIKSsS1_EEE3endEv
FN:450,_ZNSt3mapISsN8f_config18RawFeatureSettingsESt4lessISsESaISt4pairIKSsS1_EEEixERS5_
FN:464,_ZNSt3mapISsN8f_config15FeatureSettingsESt4lessISsESaISt4pairIKSsS1_EEEixEOSs
FN:583,_ZNSt3mapISsN8f_config18RawFeatureSettingsESt4lessISsESaISt4pairIKSsS1_EEE6insertIS6_vEESt17_Rb_tree_iteratorIS6_ESt23_Rb_tree_const_iteratorIS6_EOT_
FN:583,_ZNSt3mapISsN8f_config15FeatureSettingsESt4lessISsESaISt4pairIKSsS1_EEE6insertIS4_ISsS1_EvEESt17_Rb_tree_iteratorIS6_ESt23_Rb_tree_const_iteratorIS6_EOT_
FN:724,_ZNKSt3mapISsN8f_config18RawFeatureSettingsESt4lessISsESaISt4pairIKSsS1_EEE8key_compEv
FN:724,_ZNKSt3mapISsN8f_config15FeatureSettingsESt4lessISsESaISt4pairIKSsS1_EEE8key_compEv
FN:763,_ZNKSt3mapISsN8f_config18RawFeatureSettingsESt4lessISsESaISt4pairIKSsS1_EEE4findERS5_
FN:790,_ZNSt3mapISsN8f_config15FeatureSettingsESt4lessISsESaISt4pairIKSsS1_EEE11lower_boundERS5_
FN:790,_ZNSt3mapISsN8f_config18RawFeatureSettingsESt4lessISsESaISt4pairIKSsS1_EEE11lower_boundERS5_
FNDA:28,_ZNSt3mapISsN8f_config15FeatureSettingsESt4lessISsESaISt4pairIKSsS1_EEED2Ev
FNDA:8,_ZNSt3mapISsN8f_config18RawFeatureSettingsESt4lessISsESaISt4pairIKSsS1_EEED2Ev
FNDA:28,_ZNSt3mapISsN8f_config15FeatureSettingsESt4lessISsESaISt4pairIKSsS1_EEEC2Ev
FNDA:4,_ZNSt3mapISsN8f_config18RawFeatureSettingsESt4lessISsESaISt4pairIKSsS1_EEEC2Ev
FNDA:4,_ZNSt3mapISsN8f_config18RawFeatureSettingsESt4lessISsESaISt4pairIKSsS1_EEEC2ERKS8_
FNDA:52,_ZNKSt3mapISsN8f_config18RawFeatureSettingsESt4lessISsESaISt4pairIKSsS1_EEE5beginEv
FNDA:52,_ZNSt3mapISsN8f_config15FeatureSettingsESt4lessISsESaISt4pairIKSsS1_EEE3endEv
FNDA:24,_ZNSt3mapISsN8f_config18RawFeatureSettingsESt4lessISsESaISt4pairIKSsS1_EEE3endEv
FNDA:436,_ZNKSt3mapISsN8f_config18RawFeatureSettingsESt4lessISsESaISt4pairIKSsS1_EEE3endEv
FNDA:24,_ZNSt3mapISsN8f_config18RawFeatureSettingsESt4lessISsESaISt4pairIKSsS1_EEEixERS5_
FNDA:28,_ZNSt3mapISsN8f_config15FeatureSettingsESt4lessISsESaISt4pairIKSsS1_EEEixEOSs
FNDA:28,_ZNSt3mapISsN8f_config15FeatureSettingsESt4lessISsESaISt4pairIKSsS1_EEE6insertIS4_ISsS1_EvEESt17_Rb_tree_iteratorIS6_ESt23_Rb_tree_const_iteratorIS6_EOT_
FNDA:24,_ZNSt3mapISsN8f_config18RawFeatureSettingsESt4lessISsESaISt4pairIKSsS1_EEE6insertIS6_vEESt17_Rb_tree_iteratorIS6_ESt23_Rb_tree_const_iteratorIS6_EOT_
FNDA:0,_ZNKSt3mapISsN8f_config15FeatureSettingsESt4lessISsESaISt4pairIKSsS1_EEE8key_compEv
FNDA:0,_ZNKSt3mapISsN8f_config18RawFeatureSettingsESt4lessISsESaISt4pairIKSsS1_EEE8key_compEv
FNDA:72,_ZNKSt3mapISsN8f_config18RawFeatureSettingsESt4lessISsESaISt4pairIKSsS1_EEE4findERS5_
FNDA:48,_ZNSt3mapISsN8f_config15FeatureSettingsESt4lessISsESaISt4pairIKSsS1_EEE11lower_boundERS5_
FNDA:24,_ZNSt3mapISsN8f_config18RawFeatureSettingsESt4lessISsESaISt4pairIKSsS1_EEE11lower_boundERS5_
FNF:18
FNH:16
DA:90,36
DA:154,32
DA:155,32
DA:174,4
DA:175,4
DA:323,52
DA:324,52
DA:332,76
DA:333,76
DA:341,436
DA:342,436
DA:450,24
DA:455,24
DA:457,24
DA:458,24
DA:459,24
DA:464,28
DA:469,28
DA:471,28
DA:472,28
DA:473,28
DA:583,52
DA:585,52
DA:724,0
DA:725,0
DA:763,72
DA:764,72
DA:790,72
DA:791,72
LF:29
LH:27
end_of_record
SF:/usr/include/c++/4.7.2/bits/stl_pair.h
FN:88,_ZNSt4pairIKSsN8f_config15FeatureSettingsEED2Ev
FN:88,_ZNSt4pairIKSsN8f_config18RawFeatureSettingsEED2Ev
FN:88,_ZNSt4pairISsN8f_config15FeatureSettingsEED2Ev
FN:119,_ZNSt4pairIKSsN8f_config18RawFeatureSettingsEEC2ERKS3_
FN:120,_ZNSt4pairIKSsN8f_config18RawFeatureSettingsEEC2EOS3_
FN:130,_ZNSt4pairIKSsN8f_config18RawFeatureSettingsEEC2IS2_vEERS0_OT_
FN:136,_ZNSt4pairISt17_Rb_tree_iteratorIS_IKSsN8f_config15FeatureSettingsEEEbEC2IS5_bvEEOT_OT0_
FN:136,_ZNSt4pairISt17_Rb_tree_iteratorIS_IKSsN8f_config18RawFeatureSettingsEEEbEC2IS5_bvEEOT_OT0_
FN:136,_ZNSt4pairISsN8f_config15FeatureSettingsEEC2ISsS1_vEEOT_OT0_
FN:136,_ZNSt4pairISt17_Rb_tree_iteratorIS_IKSsN8f_config15FeatureSettingsEEEbEC2IRS5_bvEEOT_OT0_
FN:136,_ZNSt4pairISt17_Rb_tree_iteratorIS_IKSsN8f_config18RawFeatureSettingsEEEbEC2IRS5_bvEEOT_OT0_
FN:142,_ZNSt4pairIKSsN8f_config15FeatureSettingsEEC2ISsS2_vEEOS_IT_T0_E
FN:268,_ZSt9make_pairISsN8f_config15FeatureSettingsEESt4pairINSt17__decay_and_stripIT_E6__typeENS3_IT0_E6__typeEEOS4_OS7_
FNDA:28,_ZNSt4pairIKSsN8f_config15FeatureSettingsEED2Ev
FNDA:28,_ZNSt4pairISsN8f_config15FeatureSettingsEED2Ev
FNDA:72,_ZNSt4pairIKSsN8f_config18RawFeatureSettingsEED2Ev
FNDA:24,_ZNSt4pairIKSsN8f_config18RawFeatureSettingsEEC2ERKS3_
FNDA:24,_ZNSt4pairIKSsN8f_config18RawFeatureSettingsEEC2EOS3_
FNDA:24,_ZNSt4pairIKSsN8f_config18RawFeatureSettingsEEC2IS2_vEERS0_OT_
FNDA:0,_ZNSt4pairISt17_Rb_tree_iteratorIS_IKSsN8f_config15FeatureSettingsEEEbEC2IRS5_bvEEOT_OT0_
FNDA:8,_ZNSt4pairISt17_Rb_tree_iteratorIS_IKSsN8f_config15FeatureSettingsEEEbEC2IS5_bvEEOT_OT0_
FNDA:0,_ZNSt4pairISt17_Rb_tree_iteratorIS_IKSsN8f_config18RawFeatureSettingsEEEbEC2IRS5_bvEEOT_OT0_
FNDA:4,_ZNSt4pairISt17_Rb_tree_iteratorIS_IKSsN8f_config18RawFeatureSettingsEEEbEC2IS5_bvEEOT_OT0_
FNDA:28,_ZNSt4pairISsN8f_config15FeatureSettingsEEC2ISsS1_vEEOT_OT0_
FNDA:28,_ZNSt4pairIKSsN8f_config15FeatureSettingsEEC2ISsS2_vEEOS_IT_T0_E
FNDA:28,_ZSt9make_pairISsN8f_config15FeatureSettingsEESt4pairINSt17__decay_and_stripIT_E6__typeENS3_IT0_E6__typeEEOS4_OS7_
FNF:13
FNH:11
DA:88,128
DA:119,24
DA:120,24
DA:130,24
DA:131,24
DA:136,40
DA:137,40
DA:142,28
DA:144,28
DA:268,28
DA:273,28
LF:11
LH:11
end_of_record
SF:/usr/include/c++/4.7.2/bits/stl_tree.h
FN:101,_ZNSt18_Rb_tree_node_base10_S_minimumEPS_
FN:115,_ZNSt18_Rb_tree_node_base10_S_maximumEPS_
FN:130,_ZNSt13_Rb_tree_nodeISt4pairIKSsN8f_config18RawFeatureSettingsEEED2Ev
FN:130,_ZNSt13_Rb_tree_nodeISt4pairIKSsN8f_config15FeatureSettingsEEED2Ev
FN:137,_ZNSt13_Rb_tree_nodeISt4pairIKSsN8f_config18RawFeatureSettingsEEEC2IIRKS4_EEEDpOT_
FN:137,_ZNSt13_Rb_tree_nodeISt4pairIKSsN8f_config15FeatureSettingsEEEC2IIS0_ISsS3_EEEEDpOT_
FN:137,_ZNSt13_Rb_tree_nodeISt4pairIKSsN8f_config18RawFeatureSettingsEEEC2IIS4_EEEDpOT_
FN:173,_ZNSt17_Rb_tree_iteratorISt4pairIKSsN8f_config15FeatureSettingsEEEC2EPSt13_Rb_tree_nodeIS4_E
FN:173,_ZNSt17_Rb_tree_iteratorISt4pairIKSsN8f_config18RawFeatureSettingsEEEC2EPSt13_Rb_tree_nodeIS4_E
FN:177,_ZNKSt17_Rb_tree_iteratorISt4pairIKSsN8f_config15FeatureSettingsEEEdeEv
FN:177,_ZNKSt17_Rb_tree_iteratorISt4pairIKSsN8f_config18RawFeatureSettingsEEEdeEv
FN:201,_ZNSt17_Rb_tree_iteratorISt4pairIKSsN8f_config15FeatureSettingsEEEmmEv
FN:201,_ZNSt17_Rb_tree_iteratorISt4pairIKSsN8f_config18RawFeatureSettingsEEEmmEv
FN:216,_ZNKSt17_Rb_tree_iteratorISt4pairIKSsN8f_config18RawFeatureSettingsEEEeqERKS5_
FN:216,_ZNKSt17_Rb_tree_iteratorISt4pairIKSsN8f_config15FeatureSettingsEEEeqERKS5_
FN:246,_ZNSt23_Rb_tree_const_iteratorISt4pairIKSsN8f_config18RawFeatureSettingsEEEC2EPKSt13_Rb_tree_nodeIS4_E
FN:249,_ZNSt23_Rb_tree_const_iteratorISt4pairIKSsN8f_config18RawFeatureSettingsEEEC2ERKSt17_Rb_tree_iteratorIS4_E
FN:249,_ZNSt23_Rb_tree_const_iteratorISt4pairIKSsN8f_config15FeatureSettingsEEEC2ERKSt17_Rb_tree_iteratorIS4_E
FN:253,_ZNKSt23_Rb_tree_const_iteratorISt4pairIKSsN8f_config15FeatureSettingsEEE13_M_const_castEv
FN:253,_ZNKSt23_Rb_tree_const_iteratorISt4pairIKSsN8f_config18RawFeatureSettingsEEE13_M_const_castEv
FN:262,_ZNKSt23_Rb_tree_const_iteratorISt4pairIKSsN8f_config18RawFeatureSettingsEEEptEv
FN:267,_ZNSt23_Rb_tree_const_iteratorISt4pairIKSsN8f_config18RawFeatureSettingsEEEppEv
FN:267,_ZNSt23_Rb_tree_const_iteratorISt4pairIKSsN8f_config15FeatureSettingsEEEppEv
FN:282,_ZNSt23_Rb_tree_const_iteratorISt4pairIKSsN8f_config18RawFeatureSettingsEEEmmEv
FN:282,_ZNSt23_Rb_tree_const_iteratorISt4pairIKSsN8f_config15FeatureSettingsEEEmmEv
FN:297,_ZNKSt23_Rb_tree_const_iteratorISt4pairIKSsN8f_config18RawFeatureSettingsEEEeqERKS5_
FN:301,_ZNKSt23_Rb_tree_const_iteratorISt4pairIKSsN8f_config18RawFeatureSettingsEEEneERKS5_
FN:355,_ZNSt8_Rb_treeISsSt4pairIKSsN8f_config15FeatureSettingsEESt10_Select1stIS4_ESt4lessISsESaIS4_EE21_M_get_Node_allocatorEv
FN:355,_ZNSt8_Rb_treeISsSt4pairIKSsN8f_config18RawFeatureSettingsEESt10_Select1stIS4_ESt4lessISsESaIS4_EE21_M_get_Node_allocatorEv
FN:359,_ZNKSt8_Rb_treeISsSt4pairIKSsN8f_config18RawFeatureSettingsEESt10_Select1stIS4_ESt4lessISsESaIS4_EE21_M_get_Node_allocatorEv
FN:368,_ZNSt8_Rb_treeISsSt4pairIKSsN8f_config18RawFeatureSettingsEESt10_Select1stIS4_ESt4lessISsESaIS4_EE11_M_get_nodeEv
FN:368,_ZNSt8_Rb_treeISsSt4pairIKSsN8f_config15FeatureSettingsEESt10_Select1stIS4_ESt4lessISsESaIS4_EE11_M_get_nodeEv
FN:372,_ZNSt8_Rb_treeISsSt4pairIKSsN8f_config15FeatureSettingsEESt10_Select1stIS4_ESt4lessISsESaIS4_EE11_M_put_nodeEPSt13_Rb_tree_nodeIS4_E
FN:372,_ZNSt8_Rb_treeISsSt4pairIKSsN8f_config18RawFeatureSettingsEESt10_Select1stIS4_ESt4lessISsESaIS4_EE11_M_put_nodeEPSt13_Rb_tree_nodeIS4_E
FN:400,_ZNSt8_Rb_treeISsSt4pairIKSsN8f_config18RawFeatureSettingsEESt10_Select1stIS4_ESt4lessISsESaIS4_EE14_M_create_nodeIIRKS4_EEEPSt13_Rb_tree_nodeIS4_EDpOT_
FN:400,_ZNSt8_Rb_treeISsSt4pairIKSsN8f_config15FeatureSettingsEESt10_Select1stIS4_ESt4lessISsESaIS4_EE14_M_create_nodeIIS0_ISsS3_EEEEPSt13_Rb_tree_nodeIS4_EDpOT_
FN:400,_ZNSt8_Rb_treeISsSt4pairIKSsN8f_config18RawFeatureSettingsEESt10_Select1stIS4_ESt4lessISsESaIS4_EE14_M_create_nodeIIS4_EEEPSt13_Rb_tree_nodeIS4_EDpOT_
FN:417,_ZNSt8_Rb_treeISsSt4pairIKSsN8f_config15FeatureSettingsEESt10_Select1stIS4_ESt4lessISsESaIS4_EE15_M_destroy_nodeEPSt13_Rb_tree_nodeIS4_E
FN:417,_ZNSt8_Rb_treeISsSt4pairIKSsN8f_config18RawFeatureSettingsEESt10_Select1stIS4_ESt4lessISsESaIS4_EE15_M_destroy_nodeEPSt13_Rb_tree_nodeIS4_E
FN:425,_ZNSt8_Rb_treeISsSt4pairIKSsN8f_config18RawFeatureSettingsEESt10_Select1stIS4_ESt4lessISsESaIS4_EE13_M_clone_nodeEPKSt13_Rb_tree_nodeIS4_E
FN:437,_ZNSt8_Rb_treeISsSt4pairIKSsN8f_config15FeatureSettingsEESt10_Select1stIS4_ESt4lessISsESaIS4_EE13_Rb_tree_implIS8_Lb1EED2Ev
FN:437,_ZNSt8_Rb_treeISsSt4pairIKSsN8f_config18RawFeatureSettingsEESt10_Select1stIS4_ESt4lessISsESaIS4_EE13_Rb_tree_implIS8_Lb1EED2Ev
FN:443,_ZNSt8_Rb_treeISsSt4pairIKSsN8f_config18RawFeatureSettingsEESt10_Select1stIS4_ESt4lessISsESaIS4_EE13_Rb_tree_implIS8_Lb1EEC2Ev
FN:443,_ZNSt8_Rb_treeISsSt4pairIKSsN8f_config15FeatureSettingsEESt10_Select1stIS4_ESt4lessISsESaIS4_EE13_Rb_tree_implIS8_Lb1EEC2Ev
FN:448,_ZNSt8_Rb_treeISsSt4pairIKSsN8f_config18RawFeatureSettingsEESt10_Select1stIS4_ESt4lessISsESaIS4_EE13_Rb_tree_implIS8_Lb1EEC2ERKS8_RKSaISt13_Rb_tree_nodeIS4_EE
FN:462,_ZNSt8_Rb_treeISsSt4pairIKSsN8f_config18RawFeatureSettingsEESt10_Select1stIS4_ESt4lessISsESaIS4_EE13_Rb_tree_implIS8_Lb1EE13_M_initializeEv
FN:462,_ZNSt8_Rb_treeISsSt4pairIKSsN8f_config15FeatureSettingsEESt10_Select1stIS4_ESt4lessISsESaIS4_EE13_Rb_tree_implIS8_Lb1EE13_M_initializeEv
FN:475,_ZNSt8_Rb_treeISsSt4pairIKSsN8f_config18RawFeatureSettingsEESt10_Select1stIS4_ESt4lessISsESaIS4_EE7_M_rootEv
FN:479,_ZNKSt8_Rb_treeISsSt4pairIKSsN8f_config18RawFeatureSettingsEESt10_Select1stIS4_ESt4lessISsESaIS4_EE7_M_rootEv
FN:483,_ZNSt8_Rb_treeISsSt4pairIKSsN8f_config18RawFeatureSettingsEESt10_Select1stIS4_ESt4lessISsESaIS4_EE11_M_leftmostEv
FN:483,_ZNSt8_Rb_treeISsSt4pairIKSsN8f_config15FeatureSettingsEESt10_Select1stIS4_ESt4lessISsESaIS4_EE11_M_leftmostEv
FN:491,_ZNSt8_Rb_treeISsSt4pairIKSsN8f_config15FeatureSettingsEESt10_Select1stIS4_ESt4lessISsESaIS4_EE12_M_rightmostEv
FN:491,_ZNSt8_Rb_treeISsSt4pairIKSsN8f_config18RawFeatureSettingsEESt10_Select1stIS4_ESt4lessISsESaIS4_EE12_M_rightmostEv
FN:499,_ZNSt8_Rb_treeISsSt4pairIKSsN8f_config15FeatureSettingsEESt10_Select1stIS4_ESt4lessISsESaIS4_EE8_M_beginEv
FN:499,_ZNSt8_Rb_treeISsSt4pairIKSsN8f_config18RawFeatureSettingsEESt10_Select1stIS4_ESt4lessISsESaIS4_EE8_M_beginEv
FN:503,_ZNKSt8_Rb_treeISsSt4pairIKSsN8f_config18RawFeatureSettingsEESt10_Select1stIS4_ESt4lessISsESaIS4_EE8_M_beginEv
FN:510,_ZNSt8_Rb_treeISsSt4pairIKSsN8f_config15FeatureSettingsEESt10_Select1stIS4_ESt4lessISsESaIS4_EE6_M_endEv
FN:510,_ZNSt8_Rb_treeISsSt4pairIKSsN8f_config18RawFeatureSettingsEESt10_Select1stIS4_ESt4lessISsESaIS4_EE6_M_endEv
FN:514,_ZNKSt8_Rb_treeISsSt4pairIKSsN8f_config18RawFeatureSettingsEESt10_Select1stIS4_ESt4lessISsESaIS4_EE6_M_endEv
FN:518,_ZNSt8_Rb_treeISsSt4pairIKSsN8f_config15FeatureSettingsEESt10_Select1stIS4_ESt4lessISsESaIS4_EE8_S_valueEPKSt13_Rb_tree_nodeIS4_E
FN:518,_ZNSt8_Rb_treeISsSt4pairIKSsN8f_config18RawFeatureSettingsEESt10_Select1stIS4_ESt4lessISsESaIS4_EE8_S_valueEPKSt13_Rb_tree_nodeIS4_E
FN:522,_ZNSt8_Rb_treeISsSt4pairIKSsN8f_config15FeatureSettingsEESt10_Select1stIS4_ESt4lessISsESaIS4_EE6_S_keyEPKSt13_Rb_tree_nodeIS4_E
FN:522,_ZNSt8_Rb_treeISsSt4pairIKSsN8f_config18RawFeatureSettingsEESt10_Select1stIS4_ESt4lessISsESaIS4_EE6_S_keyEPKSt13_Rb_tree_nodeIS4_E
FN:526,_ZNSt8_Rb_treeISsSt4pairIKSsN8f_config15FeatureSettingsEESt10_Select1stIS4_ESt4lessISsESaIS4_EE7_S_leftEPSt18_Rb_tree_node_base
FN:526,_ZNSt8_Rb_treeISsSt4pairIKSsN8f_config18RawFeatureSettingsEESt10_Select1stIS4_ESt4lessISsESaIS4_EE7_S_leftEPSt18_Rb_tree_node_base
FN:530,_ZNSt8_Rb_treeISsSt4pairIKSsN8f_config18RawFeatureSettingsEESt10_Select1stIS4_ESt4lessISsESaIS4_EE7_S_leftEPKSt18_Rb_tree_node_base
FN:534,_ZNSt8_Rb_treeISsSt4pairIKSsN8f_config15FeatureSettingsEESt10_Select1stIS4_ESt4lessISsESaIS4_EE8_S_rightEPSt18_Rb_tree_node_base
FN:534,_ZNSt8_Rb_treeISsSt4pairIKSsN8f_config18RawFeatureSettingsEESt10_Select1stIS4_ESt4lessISsESaIS4_EE8_S_rightEPSt18_Rb_tree_node_base
FN:538,_ZNSt8_Rb_treeISsSt4pairIKSsN8f_config15FeatureSettingsEESt10_Select1stIS4_ESt4lessISsESaIS4_EE8_S_rightEPKSt18_Rb_tree_node_base
FN:538,_ZNSt8_Rb_treeISsSt4pairIKSsN8f_config18RawFeatureSettingsEESt10_Select1stIS4_ESt4lessISsESaIS4_EE8_S_rightEPKSt18_Rb_tree_node_base
FN:542,_ZNSt8_Rb_treeISsSt4pairIKSsN8f_config18RawFeatureSettingsEESt10_Select1stIS4_ESt4lessISsESaIS4_EE8_S_valueEPKSt18_Rb_tree_node_base
FN:542,_ZNSt8_Rb_treeISsSt4pairIKSsN8f_config15FeatureSettingsEESt10_Select1stIS4_ESt4lessISsESaIS4_EE8_S_valueEPKSt18_Rb_tree_node_base
FN:546,_ZNSt8_Rb_treeISsSt4pairIKSsN8f_config15FeatureSettingsEESt10_Select1stIS4_ESt4lessISsESaIS4_EE6_S_keyEPKSt18_Rb_tree_node_base
FN:546,_ZNSt8_Rb_treeISsSt4pairIKSsN8f_config18RawFeatureSettingsEESt10_Select1stIS4_ESt4lessISsESaIS4_EE6_S_keyEPKSt18_Rb_tree_node_base
FN:550,_ZNSt8_Rb_treeISsSt4pairIKSsN8f_config18RawFeatureSettingsEESt10_Select1stIS4_ESt4lessISsESaIS4_EE10_S_minimumEPSt18_Rb_tree_node_base
FN:558,_ZNSt8_Rb_treeISsSt4pairIKSsN8f_config18RawFeatureSettingsEESt10_Select1stIS4_ESt4lessISsESaIS4_EE10_S_maximumEPSt18_Rb_tree_node_base
FN:623,_ZNSt8_Rb_treeISsSt4pairIKSsN8f_config18RawFeatureSettingsEESt10_Select1stIS4_ESt4lessISsESaIS4_EEC2Ev
FN:623,_ZNSt8_Rb_treeISsSt4pairIKSsN8f_config15FeatureSettingsEESt10_Select1stIS4_ESt4lessISsESaIS4_EEC2Ev
FN:629,_ZNSt8_Rb_treeISsSt4pairIKSsN8f_config18RawFeatureSettingsEESt10_Select1stIS4_ESt4lessISsESaIS4_EEC2ERKSA_
FN:645,_ZNSt8_Rb_treeISsSt4pairIKSsN8f_config18RawFeatureSettingsEESt10_Select1stIS4_ESt4lessISsESaIS4_EED2Ev
FN:645,_ZNSt8_Rb_treeISsSt4pairIKSsN8f_config15FeatureSettingsEESt10_Select1stIS4_ESt4lessISsESaIS4_EED2Ev
FN:653,_ZNKSt8_Rb_treeISsSt4pairIKSsN8f_config15FeatureSettingsEESt10_Select1stIS4_ESt4lessISsESaIS4_EE8key_compEv
FN:653,_ZNKSt8_Rb_treeISsSt4pairIKSsN8f_config18RawFeatureSettingsEESt10_Select1stIS4_ESt4lessISsESaIS4_EE8key_compEv
FN:657,_ZNSt8_Rb_treeISsSt4pairIKSsN8f_config15FeatureSettingsEESt10_Select1stIS4_ESt4lessISsESaIS4_EE5beginEv
FN:657,_ZNSt8_Rb_treeISsSt4pairIKSsN8f_config18RawFeatureSettingsEESt10_Select1stIS4_ESt4lessISsESaIS4_EE5beginEv
FN:664,_ZNKSt8_Rb_treeISsSt4pairIKSsN8f_config18RawFeatureSettingsEESt10_Select1stIS4_ESt4lessISsESaIS4_EE5beginEv
FN:671,_ZNSt8_Rb_treeISsSt4pairIKSsN8f_config18RawFeatureSettingsEESt10_Select1stIS4_ESt4lessISsESaIS4_EE3endEv
FN:671,_ZNSt8_Rb_treeISsSt4pairIKSsN8f_config15FeatureSettingsEESt10_Select1stIS4_ESt4lessISsESaIS4_EE3endEv
FN:675,_ZNKSt8_Rb_treeISsSt4pairIKSsN8f_config18RawFeatureSettingsEESt10_Select1stIS4_ESt4lessISsESaIS4_EE3endEv
FN:702,_ZNKSt8_Rb_treeISsSt4pairIKSsN8f_config15FeatureSettingsEESt10_Select1stIS4_ESt4lessISsESaIS4_EE4sizeEv
FN:702,_ZNKSt8_Rb_treeISsSt4pairIKSsN8f_config18RawFeatureSettingsEESt10_Select1stIS4_ESt4lessISsESaIS4_EE4sizeEv
FN:834,_ZNSt8_Rb_treeISsSt4pairIKSsN8f_config18RawFeatureSettingsEESt10_Select1stIS4_ESt4lessISsESaIS4_EE11lower_boundERS1_
FN:834,_ZNSt8_Rb_treeISsSt4pairIKSsN8f_config15FeatureSettingsEESt10_Select1stIS4_ESt4lessISsESaIS4_EE11lower_boundERS1_
FN:968,_ZNSt8_Rb_treeISsSt4pairIKSsN8f_config18RawFeatureSettingsEESt10_Select1stIS4_ESt4lessISsESaIS4_EE10_M_insert_IS4_EESt17_Rb_tree_iteratorIS4_EPKSt18_Rb_tree_node_baseSG_OT_
FN:968,_ZNSt8_Rb_treeISsSt4pairIKSsN8f_config15FeatureSettingsEESt10_Select1stIS4_ESt4lessISsESaIS4_EE10_M_insert_IS0_ISsS3_EEESt17_Rb_tree_iteratorIS4_EPKSt18_Rb_tree_node_baseSH_OT_
FN:1040,_ZNSt8_Rb_treeISsSt4pairIKSsN8f_config18RawFeatureSettingsEESt10_Select1stIS4_ESt4lessISsESaIS4_EE7_M_copyEPKSt13_Rb_tree_nodeIS4_EPSC_
FN:1076,_ZNSt8_Rb_treeISsSt4pairIKSsN8f_config15FeatureSettingsEESt10_Select1stIS4_ESt4lessISsESaIS4_EE8_M_eraseEPSt13_Rb_tree_nodeIS4_E
FN:1076,_ZNSt8_Rb_treeISsSt4pairIKSsN8f_config18RawFeatureSettingsEESt10_Select1stIS4_ESt4lessISsESaIS4_EE8_M_eraseEPSt13_Rb_tree_nodeIS4_E
FN:1093,_ZNSt8_Rb_treeISsSt4pairIKSsN8f_config18RawFeatureSettingsEESt10_Select1stIS4_ESt4lessISsESaIS4_EE14_M_lower_boundEPSt13_Rb_tree_nodeIS4_ESD_RS1_
FN:1093,_ZNSt8_Rb_treeISsSt4pairIKSsN8f_config15FeatureSettingsEESt10_Select1stIS4_ESt4lessISsESaIS4_EE14_M_lower_boundEPSt13_Rb_tree_nodeIS4_ESD_RS1_
FN:1109,_ZNKSt8_Rb_treeISsSt4pairIKSsN8f_config18RawFeatureSettingsEESt10_Select1stIS4_ESt4lessISsESaIS4_EE14_M_lower_boundEPKSt13_Rb_tree_nodeIS4_ESE_RS1_
FN:1272,_ZNSt8_Rb_treeISsSt4pairIKSsN8f_config15FeatureSettingsEESt10_Select1stIS4_ESt4lessISsESaIS4_EE16_M_insert_uniqueIS0_ISsS3_EEES0_ISt17_Rb_tree_iteratorIS4_EbEOT_
FN:1272,_ZNSt8_Rb_treeISsSt4pairIKSsN8f_config18RawFeatureSettingsEESt10_Select1stIS4_ESt4lessISsESaIS4_EE16_M_insert_uniqueIS4_EES0_ISt17_Rb_tree_iteratorIS4_EbEOT_
FN:1333,_ZNSt8_Rb_treeISsSt4pairIKSsN8f_config15FeatureSettingsEESt10_Select1stIS4_ESt4lessISsESaIS4_EE17_M_insert_unique_IS0_ISsS3_EEESt17_Rb_tree_iteratorIS4_ESt23_Rb_tree_const_iteratorIS4_EOT_
FN:1333,_ZNSt8_Rb_treeISsSt4pairIKSsN8f_config18RawFeatureSettingsEESt10_Select1stIS4_ESt4lessISsESaIS4_EE17_M_insert_unique_IS4_EESt17_Rb_tree_iteratorIS4_ESt23_Rb_tree_const_iteratorIS4_EOT_
FN:1554,_ZNKSt8_Rb_treeISsSt4pairIKSsN8f_config18RawFeatureSettingsEESt10_Select1stIS4_ESt4lessISsESaIS4_EE4findERS1_
FNDA:0,_ZNSt18_Rb_tree_node_base10_S_minimumEPS_
FNDA:0,_ZNSt18_Rb_tree_node_base10_S_maximumEPS_
FNDA:28,_ZNSt13_Rb_tree_nodeISt4pairIKSsN8f_config15FeatureSettingsEEED2Ev
FNDA:48,_ZNSt13_Rb_tree_nodeISt4pairIKSsN8f_config18RawFeatureSettingsEEED2Ev
FNDA:28,_ZNSt13_Rb_tree_nodeISt4pairIKSsN8f_config15FeatureSettingsEEEC2IIS0_ISsS3_EEEEDpOT_
FNDA:24,_ZNSt13_Rb_tree_nodeISt4pairIKSsN8f_config18RawFeatureSettingsEEEC2IIS4_EEEDpOT_
FNDA:24,_ZNSt13_Rb_tree_nodeISt4pairIKSsN8f_config18RawFeatureSettingsEEEC2IIRKS4_EEEDpOT_
FNDA:152,_ZNSt17_Rb_tree_iteratorISt4pairIKSsN8f_config15FeatureSettingsEEEC2EPSt13_Rb_tree_nodeIS4_E
FNDA:80,_ZNSt17_Rb_tree_iteratorISt4pairIKSsN8f_config18RawFeatureSettingsEEEC2EPSt13_Rb_tree_nodeIS4_E
FNDA:68,_ZNKSt17_Rb_tree_iteratorISt4pairIKSsN8f_config15FeatureSettingsEEEdeEv
FNDA:24,_ZNKSt17_Rb_tree_iteratorISt4pairIKSsN8f_config18RawFeatureSettingsEEEdeEv
FNDA:0,_ZNSt17_Rb_tree_iteratorISt4pairIKSsN8f_config15FeatureSettingsEEEmmEv
FNDA:0,_ZNSt17_Rb_tree_iteratorISt4pairIKSsN8f_config18RawFeatureSettingsEEEmmEv
FNDA:60,_ZNKSt17_Rb_tree_iteratorISt4pairIKSsN8f_config15FeatureSettingsEEEeqERKS5_
FNDA:28,_ZNKSt17_Rb_tree_iteratorISt4pairIKSsN8f_config18RawFeatureSettingsEEEeqERKS5_
FNDA:632,_ZNSt23_Rb_tree_const_iteratorISt4pairIKSsN8f_config18RawFeatureSettingsEEEC2EPKSt13_Rb_tree_nodeIS4_E
FNDA:28,_ZNSt23_Rb_tree_const_iteratorISt4pairIKSsN8f_config15FeatureSettingsEEEC2ERKSt17_Rb_tree_iteratorIS4_E
FNDA:24,_ZNSt23_Rb_tree_const_iteratorISt4pairIKSsN8f_config18RawFeatureSettingsEEEC2ERKSt17_Rb_tree_iteratorIS4_E
FNDA:0,_ZNKSt23_Rb_tree_const_iteratorISt4pairIKSsN8f_config15FeatureSettingsEEE13_M_const_castEv
FNDA:0,_ZNKSt23_Rb_tree_const_iteratorISt4pairIKSsN8f_config18RawFeatureSettingsEEE13_M_const_castEv
FNDA:1240,_ZNKSt23_Rb_tree_const_iteratorISt4pairIKSsN8f_config18RawFeatureSettingsEEEptEv
FNDA:4,_ZNSt23_Rb_tree_const_iteratorISt4pairIKSsN8f_config15FeatureSettingsEEEppEv
FNDA:312,_ZNSt23_Rb_tree_const_iteratorISt4pairIKSsN8f_config18RawFeatureSettingsEEEppEv
FNDA:0,_ZNSt23_Rb_tree_const_iteratorISt4pairIKSsN8f_config15FeatureSettingsEEEmmEv
FNDA:0,_ZNSt23_Rb_tree_const_iteratorISt4pairIKSsN8f_config18RawFeatureSettingsEEEmmEv
FNDA:72,_ZNKSt23_Rb_tree_const_iteratorISt4pairIKSsN8f_config18RawFeatureSettingsEEEeqERKS5_
FNDA:436,_ZNKSt23_Rb_tree_const_iteratorISt4pairIKSsN8f_config18RawFeatureSettingsEEEneERKS5_
FNDA:64,_ZNSt8_Rb_treeISsSt4pairIKSsN8f_config15FeatureSettingsEESt10_Select1stIS4_ESt4lessISsESaIS4_EE21_M_get_Node_allocatorEv
FNDA:96,_ZNSt8_Rb_treeISsSt4pairIKSsN8f_config18RawFeatureSettingsEESt10_Select1stIS4_ESt4lessISsESaIS4_EE21_M_get_Node_allocatorEv
FNDA:4,_ZNKSt8_Rb_treeISsSt4pairIKSsN8f_config18RawFeatureSettingsEESt10_Select1stIS4_ESt4lessISsESaIS4_EE21_M_get_Node_allocatorEv
FNDA:28,_ZNSt8_Rb_treeISsSt4pairIKSsN8f_config15FeatureSettingsEESt10_Select1stIS4_ESt4lessISsESaIS4_EE11_M_get_nodeEv
FNDA:48,_ZNSt8_Rb_treeISsSt4pairIKSsN8f_config18RawFeatureSettingsEESt10_Select1stIS4_ESt4lessISsESaIS4_EE11_M_get_nodeEv
FNDA:28,_ZNSt8_Rb_treeISsSt4pairIKSsN8f_config15FeatureSettingsEESt10_Select1stIS4_ESt4lessISsESaIS4_EE11_M_put_nodeEPSt13_Rb_tree_nodeIS4_E
FNDA:48,_ZNSt8_Rb_treeISsSt4pairIKSsN8f_config18RawFeatureSettingsEESt10_Select1stIS4_ESt4lessISsESaIS4_EE11_M_put_nodeEPSt13_Rb_tree_nodeIS4_E
FNDA:28,_ZNSt8_Rb_treeISsSt4pairIKSsN8f_config15FeatureSettingsEESt10_Select1stIS4_ESt4lessISsESaIS4_EE14_M_create_nodeIIS0_ISsS3_EEEEPSt13_Rb_tree_nodeIS4_EDpOT_
FNDA:24,_ZNSt8_Rb_treeISsSt4pairIKSsN8f_config18RawFeatureSettingsEESt10_Select1stIS4_ESt4lessISsESaIS4_EE14_M_create_nodeIIS4_EEEPSt13_Rb_tree_nodeIS4_EDpOT_
FNDA:24,_ZNSt8_Rb_treeISsSt4pairIKSsN8f_config18RawFeatureSettingsEESt10_Select1stIS4_ESt4lessISsESaIS4_EE14_M_create_nodeIIRKS4_EEEPSt13_Rb_tree_nodeIS4_EDpOT_
FNDA:28,_ZNSt8_Rb_treeISsSt4pairIKSsN8f_config15FeatureSettingsEESt10_Select1stIS4_ESt4lessISsESaIS4_EE15_M_destroy_nodeEPSt13_Rb_tree_nodeIS4_E
FNDA:48,_ZNSt8_Rb_treeISsSt4pairIKSsN8f_config18RawFeatureSettingsEESt10_Select1stIS4_ESt4lessISsESaIS4_EE15_M_destroy_nodeEPSt13_Rb_tree_nodeIS4_E
FNDA:24,_ZNSt8_Rb_treeISsSt4pairIKSsN8f_config18RawFeatureSettingsEESt10_Select1stIS4_ESt4lessISsESaIS4_EE13_M_clone_nodeEPKSt13_Rb_tree_nodeIS4_E
FNDA:28,_ZNSt8_Rb_treeISsSt4pairIKSsN8f_config15FeatureSettingsEESt10_Select1stIS4_ESt4lessISsESaIS4_EE13_Rb_tree_implIS8_Lb1EED2Ev
FNDA:8,_ZNSt8_Rb_treeISsSt4pairIKSsN8f_config18RawFeatureSettingsEESt10_Select1stIS4_ESt4lessISsESaIS4_EE13_Rb_tree_implIS8_Lb1EED2Ev
FNDA:28,_ZNSt8_Rb_treeISsSt4pairIKSsN8f_config15FeatureSettingsEESt10_Select1stIS4_ESt4lessISsESaIS4_EE13_Rb_tree_implIS8_Lb1EEC2Ev
FNDA:4,_ZNSt8_Rb_treeISsSt4pairIKSsN8f_config18RawFeatureSettingsEESt10_Select1stIS4_ESt4lessISsESaIS4_EE13_Rb_tree_implIS8_Lb1EEC2Ev
FNDA:4,_ZNSt8_Rb_treeISsSt4pairIKSsN8f_config18RawFeatureSettingsEESt10_Select1stIS4_ESt4lessISsESaIS4_EE13_Rb_tree_implIS8_Lb1EEC2ERKS8_RKSaISt13_Rb_tree_nodeIS4_EE
FNDA:28,_ZNSt8_Rb_treeISsSt4pairIKSsN8f_config15FeatureSettingsEESt10_Select1stIS4_ESt4lessISsESaIS4_EE13_Rb_tree_implIS8_Lb1EE13_M_initializeEv
FNDA:8,_ZNSt8_Rb_treeISsSt4pairIKSsN8f_config18RawFeatureSettingsEESt10_Select1stIS4_ESt4lessISsESaIS4_EE13_Rb_tree_implIS8_Lb1EE13_M_initializeEv
FNDA:12,_ZNSt8_Rb_treeISsSt4pairIKSsN8f_config18RawFeatureSettingsEESt10_Select1stIS4_ESt4lessISsESaIS4_EE7_M_rootEv
FNDA:4,_ZNKSt8_Rb_treeISsSt4pairIKSsN8f_config18RawFeatureSettingsEESt10_Select1stIS4_ESt4lessISsESaIS4_EE7_M_rootEv
FNDA:16,_ZNSt8_Rb_treeISsSt4pairIKSsN8f_config15FeatureSettingsEESt10_Select1stIS4_ESt4lessISsESaIS4_EE11_M_leftmostEv
FNDA:4,_ZNSt8_Rb_treeISsSt4pairIKSsN8f_config18RawFeatureSettingsEESt10_Select1stIS4_ESt4lessISsESaIS4_EE11_M_leftmostEv
FNDA:56,_ZNSt8_Rb_treeISsSt4pairIKSsN8f_config15FeatureSettingsEESt10_Select1stIS4_ESt4lessISsESaIS4_EE12_M_rightmostEv
FNDA:44,_ZNSt8_Rb_treeISsSt4pairIKSsN8f_config18RawFeatureSettingsEESt10_Select1stIS4_ESt4lessISsESaIS4_EE12_M_rightmostEv
FNDA:92,_ZNSt8_Rb_treeISsSt4pairIKSsN8f_config15FeatureSettingsEESt10_Select1stIS4_ESt4lessISsESaIS4_EE8_M_beginEv
FNDA:36,_ZNSt8_Rb_treeISsSt4pairIKSsN8f_config18RawFeatureSettingsEESt10_Select1stIS4_ESt4lessISsESaIS4_EE8_M_beginEv
FNDA:76,_ZNKSt8_Rb_treeISsSt4pairIKSsN8f_config18RawFeatureSettingsEESt10_Select1stIS4_ESt4lessISsESaIS4_EE8_M_beginEv
FNDA:136,_ZNSt8_Rb_treeISsSt4pairIKSsN8f_config15FeatureSettingsEESt10_Select1stIS4_ESt4lessISsESaIS4_EE6_M_endEv
FNDA:80,_ZNSt8_Rb_treeISsSt4pairIKSsN8f_config18RawFeatureSettingsEESt10_Select1stIS4_ESt4lessISsESaIS4_EE6_M_endEv
FNDA:72,_ZNKSt8_Rb_treeISsSt4pairIKSsN8f_config18RawFeatureSettingsEESt10_Select1stIS4_ESt4lessISsESaIS4_EE6_M_endEv
FNDA:0,_ZNSt8_Rb_treeISsSt4pairIKSsN8f_config15FeatureSettingsEESt10_Select1stIS4_ESt4lessISsESaIS4_EE8_S_valueEPKSt13_Rb_tree_nodeIS4_E
FNDA:212,_ZNSt8_Rb_treeISsSt4pairIKSsN8f_config18RawFeatureSettingsEESt10_Select1stIS4_ESt4lessISsESaIS4_EE8_S_valueEPKSt13_Rb_tree_nodeIS4_E
FNDA:0,_ZNSt8_Rb_treeISsSt4pairIKSsN8f_config15FeatureSettingsEESt10_Select1stIS4_ESt4lessISsESaIS4_EE6_S_keyEPKSt13_Rb_tree_nodeIS4_E
FNDA:212,_ZNSt8_Rb_treeISsSt4pairIKSsN8f_config18RawFeatureSettingsEESt10_Select1stIS4_ESt4lessISsESaIS4_EE6_S_keyEPKSt13_Rb_tree_nodeIS4_E
FNDA:76,_ZNSt8_Rb_treeISsSt4pairIKSsN8f_config15FeatureSettingsEESt10_Select1stIS4_ESt4lessISsESaIS4_EE7_S_leftEPSt18_Rb_tree_node_base
FNDA:48,_ZNSt8_Rb_treeISsSt4pairIKSsN8f_config18RawFeatureSettingsEESt10_Select1stIS4_ESt4lessISsESaIS4_EE7_S_leftEPSt18_Rb_tree_node_base
FNDA:144,_ZNSt8_Rb_treeISsSt4pairIKSsN8f_config18RawFeatureSettingsEESt10_Select1stIS4_ESt4lessISsESaIS4_EE7_S_leftEPKSt18_Rb_tree_node_base
FNDA:72,_ZNSt8_Rb_treeISsSt4pairIKSsN8f_config15FeatureSettingsEESt10_Select1stIS4_ESt4lessISsESaIS4_EE8_S_rightEPSt18_Rb_tree_node_base
FNDA:92,_ZNSt8_Rb_treeISsSt4pairIKSsN8f_config18RawFeatureSettingsEESt10_Select1stIS4_ESt4lessISsESaIS4_EE8_S_rightEPSt18_Rb_tree_node_base
FNDA:0,_ZNSt8_Rb_treeISsSt4pairIKSsN8f_config15FeatureSettingsEESt10_Select1stIS4_ESt4lessISsESaIS4_EE8_S_rightEPKSt18_Rb_tree_node_base
FNDA:60,_ZNSt8_Rb_treeISsSt4pairIKSsN8f_config18RawFeatureSettingsEESt10_Select1stIS4_ESt4lessISsESaIS4_EE8_S_rightEPKSt18_Rb_tree_node_base
FNDA:44,_ZNSt8_Rb_treeISsSt4pairIKSsN8f_config15FeatureSettingsEESt10_Select1stIS4_ESt4lessISsESaIS4_EE8_S_valueEPKSt18_Rb_tree_node_base
FNDA:112,_ZNSt8_Rb_treeISsSt4pairIKSsN8f_config18RawFeatureSettingsEESt10_Select1stIS4_ESt4lessISsESaIS4_EE8_S_valueEPKSt18_Rb_tree_node_base
FNDA:44,_ZNSt8_Rb_treeISsSt4pairIKSsN8f_config15FeatureSettingsEESt10_Select1stIS4_ESt4lessISsESaIS4_EE6_S_keyEPKSt18_Rb_tree_node_base
FNDA:112,_ZNSt8_Rb_treeISsSt4pairIKSsN8f_config18RawFeatureSettingsEESt10_Select1stIS4_ESt4lessISsESaIS4_EE6_S_keyEPKSt18_Rb_tree_node_base
FNDA:4,_ZNSt8_Rb_treeISsSt4pairIKSsN8f_config18RawFeatureSettingsEESt10_Select1stIS4_ESt4lessISsESaIS4_EE10_S_minimumEPSt18_Rb_tree_node_base
FNDA:4,_ZNSt8_Rb_treeISsSt4pairIKSsN8f_config18RawFeatureSettingsEESt10_Select1stIS4_ESt4lessISsESaIS4_EE10_S_maximumEPSt18_Rb_tree_node_base
FNDA:28,_ZNSt8_Rb_treeISsSt4pairIKSsN8f_config15FeatureSettingsEESt10_Select1stIS4_ESt4lessISsESaIS4_EEC2Ev
FNDA:4,_ZNSt8_Rb_treeISsSt4pairIKSsN8f_config18RawFeatureSettingsEESt10_Select1stIS4_ESt4lessISsESaIS4_EEC2Ev
FNDA:4,_ZNSt8_Rb_treeISsSt4pairIKSsN8f_config18RawFeatureSettingsEESt10_Select1stIS4_ESt4lessISsESaIS4_EEC2ERKSA_
FNDA:28,_ZNSt8_Rb_treeISsSt4pairIKSsN8f_config15FeatureSettingsEESt10_Select1stIS4_ESt4lessISsESaIS4_EED2Ev
FNDA:8,_ZNSt8_Rb_treeISsSt4pairIKSsN8f_config18RawFeatureSettingsEESt10_Select1stIS4_ESt4lessISsESaIS4_EED2Ev
FNDA:0,_ZNKSt8_Rb_treeISsSt4pairIKSsN8f_config15FeatureSettingsEESt10_Select1stIS4_ESt4lessISsESaIS4_EE8key_compEv
FNDA:0,_ZNKSt8_Rb_treeISsSt4pairIKSsN8f_config18RawFeatureSettingsEESt10_Select1stIS4_ESt4lessISsESaIS4_EE8key_compEv
FNDA:8,_ZNSt8_Rb_treeISsSt4pairIKSsN8f_config15FeatureSettingsEESt10_Select1stIS4_ESt4lessISsESaIS4_EE5beginEv
FNDA:4,_ZNSt8_Rb_treeISsSt4pairIKSsN8f_config18RawFeatureSettingsEESt10_Select1stIS4_ESt4lessISsESaIS4_EE5beginEv
FNDA:52,_ZNKSt8_Rb_treeISsSt4pairIKSsN8f_config18RawFeatureSettingsEESt10_Select1stIS4_ESt4lessISsESaIS4_EE5beginEv
FNDA:56,_ZNSt8_Rb_treeISsSt4pairIKSsN8f_config15FeatureSettingsEESt10_Select1stIS4_ESt4lessISsESaIS4_EE3endEv
FNDA:24,_ZNSt8_Rb_treeISsSt4pairIKSsN8f_config18RawFeatureSettingsEESt10_Select1stIS4_ESt4lessISsESaIS4_EE3endEv
FNDA:508,_ZNKSt8_Rb_treeISsSt4pairIKSsN8f_config18RawFeatureSettingsEESt10_Select1stIS4_ESt4lessISsESaIS4_EE3endEv
FNDA:28,_ZNKSt8_Rb_treeISsSt4pairIKSsN8f_config15FeatureSettingsEESt10_Select1stIS4_ESt4lessISsESaIS4_EE4sizeEv
FNDA:24,_ZNKSt8_Rb_treeISsSt4pairIKSsN8f_config18RawFeatureSettingsEESt10_Select1stIS4_ESt4lessISsESaIS4_EE4sizeEv
FNDA:48,_ZNSt8_Rb_treeISsSt4pairIKSsN8f_config15FeatureSettingsEESt10_Select1stIS4_ESt4lessISsESaIS4_EE11lower_boundERS1_
FNDA:24,_ZNSt8_Rb_treeISsSt4pairIKSsN8f_config18RawFeatureSettingsEESt10_Select1stIS4_ESt4lessISsESaIS4_EE11lower_boundERS1_
FNDA:28,_ZNSt8_Rb_treeISsSt4pairIKSsN8f_config15FeatureSettingsEESt10_Select1stIS4_ESt4lessISsESaIS4_EE10_M_insert_IS0_ISsS3_EEESt17_Rb_tree_iteratorIS4_EPKSt18_Rb_tree_node_baseSH_OT_
FNDA:24,_ZNSt8_Rb_treeISsSt4pairIKSsN8f_config18RawFeatureSettingsEESt10_Select1stIS4_ESt4lessISsESaIS4_EE10_M_insert_IS4_EESt17_Rb_tree_iteratorIS4_EPKSt18_Rb_tree_node_baseSG_OT_
FNDA:16,_ZNSt8_Rb_treeISsSt4pairIKSsN8f_config18RawFeatureSettingsEESt10_Select1stIS4_ESt4lessISsESaIS4_EE7_M_copyEPKSt13_Rb_tree_nodeIS4_EPSC_
FNDA:60,_ZNSt8_Rb_treeISsSt4pairIKSsN8f_config15FeatureSettingsEESt10_Select1stIS4_ESt4lessISsESaIS4_EE8_M_eraseEPSt13_Rb_tree_nodeIS4_E
FNDA:56,_ZNSt8_Rb_treeISsSt4pairIKSsN8f_config18RawFeatureSettingsEESt10_Select1stIS4_ESt4lessISsESaIS4_EE8_M_eraseEPSt13_Rb_tree_nodeIS4_E
FNDA:52,_ZNSt8_Rb_treeISsSt4pairIKSsN8f_config15FeatureSettingsEESt10_Select1stIS4_ESt4lessISsESaIS4_EE14_M_lower_boundEPSt13_Rb_tree_nodeIS4_ESD_RS1_
FNDA:24,_ZNSt8_Rb_treeISsSt4pairIKSsN8f_config18RawFeatureSettingsEESt10_Select1stIS4_ESt4lessISsESaIS4_EE14_M_lower_boundEPSt13_Rb_tree_nodeIS4_ESD_RS1_
FNDA:72,_ZNKSt8_Rb_treeISsSt4pairIKSsN8f_config18RawFeatureSettingsEESt10_Select1stIS4_ESt4lessISsESaIS4_EE14_M_lower_boundEPKSt13_Rb_tree_nodeIS4_ESE_RS1_
FNDA:8,_ZNSt8_Rb_treeISsSt4pairIKSsN8f_config15FeatureSettingsEESt10_Select1stIS4_ESt4lessISsESaIS4_EE16_M_insert_uniqueIS0_ISsS3_EEES0_ISt17_Rb_tree_iteratorIS4_EbEOT_
FNDA:4,_ZNSt8_Rb_treeISsSt4pairIKSsN8f_config18RawFeatureSettingsEESt10_Select1stIS4_ESt4lessISsESaIS4_EE16_M_insert_uniqueIS4_EES0_ISt17_Rb_tree_iteratorIS4_EbEOT_
FNDA:28,_ZNSt8_Rb_treeISsSt4pairIKSsN8f_config15FeatureSettingsEESt10_Select1stIS4_ESt4lessISsESaIS4_EE17_M_insert_unique_IS0_ISsS3_EEESt17_Rb_tree_iteratorIS4_ESt23_Rb_tree_const_iteratorIS4_EOT_
FNDA:24,_ZNSt8_Rb_treeISsSt4pairIKSsN8f_config18RawFeatureSettingsEESt10_Select1stIS4_ESt4lessISsESaIS4_EE17_M_insert_unique_IS4_EESt17_Rb_tree_iteratorIS4_ESt23_Rb_tree_const_iteratorIS4_EOT_
FNDA:72,_ZNKSt8_Rb_treeISsSt4pairIKSsN8f_config18RawFeatureSettingsEESt10_Select1stIS4_ESt4lessISsESaIS4_EE4findERS1_
FNF:106
FNH:93
DA:101,0
DA:103,0
DA:104,0
DA:115,0
DA:117,0
DA:118,0
DA:130,76
DA:137,76
DA:139,76
DA:173,232
DA:174,232
DA:177,92
DA:178,92
DA:201,0
DA:203,0
DA:204,0
DA:216,88
DA:217,88
DA:246,632
DA:247,632
DA:249,52
DA:250,52
DA:253,0
DA:255,0
DA:262,1240
DA:264,1240
DA:267,316
DA:269,316
DA:270,316
DA:282,0
DA:284,0
DA:285,0
DA:297,72
DA:298,72
DA:301,436
DA:302,436
DA:355,160
DA:356,160
DA:359,4
DA:360,4
DA:368,76
DA:369,76
DA:372,76
DA:373,76
DA:400,76
DA:402,76
DA:405,76
DA:408,0
DA:410,0
DA:411,0
DA:413,76
DA:417,76
DA:419,76
DA:420,76
DA:421,76
DA:425,24
DA:427,24
DA:428,24
DA:429,24
DA:430,24
DA:431,24
DA:437,36
DA:443,32
DA:445,32
DA:446,32
DA:448,4
DA:450,4
DA:451,4
DA:462,36
DA:464,36
DA:465,36
DA:466,36
DA:467,36
DA:468,36
DA:475,12
DA:476,12
DA:479,4
DA:480,4
DA:483,20
DA:484,20
DA:491,100
DA:492,100
DA:499,128
DA:500,128
DA:503,76
DA:506,76
DA:510,216
DA:511,216
DA:514,72
DA:515,72
DA:518,212
DA:519,212
DA:522,212
DA:523,212
DA:526,124
DA:527,124
DA:530,144
DA:531,144
DA:534,164
DA:535,164
DA:538,60
DA:539,60
DA:542,156
DA:543,156
DA:546,156
DA:547,156
DA:550,4
DA:551,4
DA:558,4
DA:559,4
DA:623,32
DA:629,4
DA:630,4
DA:632,4
DA:634,4
DA:635,4
DA:636,4
DA:637,4
DA:639,4
DA:645,36
DA:646,36
DA:653,0
DA:654,0
DA:657,12
DA:660,12
DA:664,52
DA:667,52
DA:671,80
DA:672,80
DA:675,508
DA:678,508
DA:702,52
DA:703,52
DA:834,72
DA:835,72
DA:968,52
DA:977,52
DA:979,52
DA:981,52
DA:984,52
DA:985,52
DA:1040,16
DA:1044,16
DA:1045,16
DA:1049,16
DA:1050,12
DA:1051,16
DA:1052,16
DA:1054,40
DA:1056,8
DA:1057,8
DA:1058,8
DA:1059,8
DA:1060,0
DA:1061,8
DA:1062,8
DA:1065,0
DA:1067,0
DA:1068,0
DA:1070,16
DA:1076,116
DA:1080,308
DA:1082,76
DA:1083,76
DA:1084,76
DA:1085,76
DA:1087,116
DA:1093,76
DA:1097,288
DA:1098,136
DA:1099,48
DA:1101,88
DA:1102,76
DA:1109,72
DA:1113,312
DA:1114,168
DA:1115,120
DA:1117,48
DA:1118,72
DA:1272,12
DA:1279,12
DA:1280,12
DA:1281,12
DA:1282,24
DA:1284,0
DA:1285,0
DA:1286,0
DA:1288,12
DA:1289,12
DA:1291,12
DA:1293,12
DA:1295,0
DA:1297,0
DA:1299,0
DA:1300,0
DA:1333,52
DA:1341,52
DA:1343,52
DA:1346,40
DA:1348,12
DA:1350,0
DA:1354,0
DA:1355,0
DA:1357,0
DA:1358,0
DA:1361,0
DA:1363,0
DA:1367,0
DA:1370,0
DA:1372,0
DA:1376,0
DA:1377,0
DA:1379,0
DA:1380,0
DA:1383,0
DA:1385,0
DA:1388,0
DA:1391,0
DA:1395,0
DA:1554,72
DA:1557,72
DA:1560,72
LF:222
LH:173
end_of_record
SF:/usr/include/c++/4.7.2/bits/stl_uninitialized.h
FN:70,_ZNSt20__uninitialized_copyILb0EE13__uninit_copyIN9__gnu_cxx17__normal_iteratorIPKSsSt6vectorISsSaISsEEEEPSsEET0_T_SC_SB_
FN:70,_ZNSt20__uninitialized_copyILb0EE13__uninit_copyISt13move_iteratorIPN8f_config16FeaturePositionsEES5_EET0_T_S8_S7_
FN:70,_ZNSt20__uninitialized_copyILb0EE13__uninit_copyIPN8f_config16FeaturePositionsES4_EET0_T_S6_S5_
FN:70,_ZNSt20__uninitialized_copyILb0EE13__uninit_copyIPSsS2_EET0_T_S4_S3_
FN:70,_ZNSt20__uninitialized_copyILb0EE13__uninit_copyISt13move_iteratorIPSsES3_EET0_T_S6_S5_
FN:70,_ZNSt20__uninitialized_copyILb0EE13__uninit_copyIN9__gnu_cxx17__normal_iteratorIPKN8f_config16FeaturePositionsESt6vectorIS5_SaIS5_EEEEPS5_EET0_T_SE_SD_
FN:93,_ZNSt20__uninitialized_copyILb1EE13__uninit_copyIN9__gnu_cxx17__normal_iteratorIPKiSt6vectorIiSaIiEEEEPiEET0_T_SC_SB_
FN:93,_ZNSt20__uninitialized_copyILb1EE13__uninit_copyISt13move_iteratorIPiES3_EET0_T_S6_S5_
FN:93,_ZNSt20__uninitialized_copyILb1EE13__uninit_copyIPiS2_EET0_T_S4_S3_
FN:109,_ZSt18uninitialized_copyIN9__gnu_cxx17__normal_iteratorIPKSsSt6vectorISsSaISsEEEEPSsET0_T_SA_S9_
FN:109,_ZSt18uninitialized_copyIPN8f_config16FeaturePositionsES2_ET0_T_S4_S3_
FN:109,_ZSt18uninitialized_copyISt13move_iteratorIPiES1_ET0_T_S4_S3_
FN:109,_ZSt18uninitialized_copyIPiS0_ET0_T_S2_S1_
FN:109,_ZSt18uninitialized_copyISt13move_iteratorIPN8f_config16FeaturePositionsEES3_ET0_T_S6_S5_
FN:109,_ZSt18uninitialized_copyIN9__gnu_cxx17__normal_iteratorIPKN8f_config16FeaturePositionsESt6vectorIS3_SaIS3_EEEEPS3_ET0_T_SC_SB_
FN:109,_ZSt18uninitialized_copyISt13move_iteratorIPSsES1_ET0_T_S4_S3_
FN:109,_ZSt18uninitialized_copyIPSsS0_ET0_T_S2_S1_
FN:109,_ZSt18uninitialized_copyIN9__gnu_cxx17__normal_iteratorIPKiSt6vectorIiSaIiEEEEPiET0_T_SA_S9_
FN:258,_ZSt22__uninitialized_copy_aISt13move_iteratorIPN8f_config16FeaturePositionsEES3_S2_ET0_T_S6_S5_RSaIT1_E
FN:258,_ZSt22__uninitialized_copy_aIN9__gnu_cxx17__normal_iteratorIPKN8f_config16FeaturePositionsESt6vectorIS3_SaIS3_EEEEPS3_S3_ET0_T_SC_SB_RSaIT1_E
FN:258,_ZSt22__uninitialized_copy_aIPiS0_iET0_T_S2_S1_RSaIT1_E
FN:258,_ZSt22__uninitialized_copy_aISt13move_iteratorIPiES1_iET0_T_S4_S3_RSaIT1_E
FN:258,_ZSt22__uninitialized_copy_aIPN8f_config16FeaturePositionsES2_S1_ET0_T_S4_S3_RSaIT1_E
FN:258,_ZSt22__uninitialized_copy_aIPSsS0_SsET0_T_S2_S1_RSaIT1_E
FN:258,_ZSt22__uninitialized_copy_aIN9__gnu_cxx17__normal_iteratorIPKiSt6vectorIiSaIiEEEEPiiET0_T_SA_S9_RSaIT1_E
FN:258,_ZSt22__uninitialized_copy_aIN9__gnu_cxx17__normal_iteratorIPKSsSt6vectorISsSaISsEEEEPSsSsET0_T_SA_S9_RSaIT1_E
FN:258,_ZSt22__uninitialized_copy_aISt13move_iteratorIPSsES1_SsET0_T_S4_S3_RSaIT1_E
FN:276,_ZSt34__uninitialized_move_if_noexcept_aIPN8f_config16FeaturePositionsES2_SaIS1_EET0_T_S5_S4_RT1_
FN:276,_ZSt34__uninitialized_move_if_noexcept_aIPSsS0_SaISsEET0_T_S3_S2_RT1_
FN:276,_ZSt34__uninitialized_move_if_noexcept_aIPiS0_SaIiEET0_T_S3_S2_RT1_
FNDA:0,_ZNSt20__uninitialized_copyILb0EE13__uninit_copyISt13move_iteratorIPSsES3_EET0_T_S6_S5_
FNDA:48,_ZNSt20__uninitialized_copyILb0EE13__uninit_copyISt13move_iteratorIPN8f_config16FeaturePositionsEES5_EET0_T_S8_S7_
FNDA:0,_ZNSt20__uninitialized_copyILb0EE13__uninit_copyIN9__gnu_cxx17__normal_iteratorIPKN8f_config16FeaturePositionsESt6vectorIS5_SaIS5_EEEEPS5_EET0_T_SE_SD_
FNDA:0,_ZNSt20__uninitialized_copyILb0EE13__uninit_copyIN9__gnu_cxx17__normal_iteratorIPKSsSt6vectorISsSaISsEEEEPSsEET0_T_SC_SB_
FNDA:0,_ZNSt20__uninitialized_copyILb0EE13__uninit_copyIPN8f_config16FeaturePositionsES4_EET0_T_S6_S5_
FNDA:0,_ZNSt20__uninitialized_copyILb0EE13__uninit_copyIPSsS2_EET0_T_S4_S3_
FNDA:0,_ZNSt20__uninitialized_copyILb1EE13__uninit_copyIPiS2_EET0_T_S4_S3_
FNDA:0,_ZNSt20__uninitialized_copyILb1EE13__uninit_copyIN9__gnu_cxx17__normal_iteratorIPKiSt6vectorIiSaIiEEEEPiEET0_T_SC_SB_
FNDA:112,_ZNSt20__uninitialized_copyILb1EE13__uninit_copyISt13move_iteratorIPiES3_EET0_T_S6_S5_
FNDA:0,_ZSt18uninitialized_copyIPiS0_ET0_T_S2_S1_
FNDA:0,_ZSt18uninitialized_copyIN9__gnu_cxx17__normal_iteratorIPKiSt6vectorIiSaIiEEEEPiET0_T_SA_S9_
FNDA:112,_ZSt18uninitialized_copyISt13move_iteratorIPiES1_ET0_T_S4_S3_
FNDA:0,_ZSt18uninitialized_copyISt13move_iteratorIPSsES1_ET0_T_S4_S3_
FNDA:48,_ZSt18uninitialized_copyISt13move_iteratorIPN8f_config16FeaturePositionsEES3_ET0_T_S6_S5_
FNDA:0,_ZSt18uninitialized_copyIN9__gnu_cxx17__normal_iteratorIPKN8f_config16FeaturePositionsESt6vectorIS3_SaIS3_EEEEPS3_ET0_T_SC_SB_
FNDA:0,_ZSt18uninitialized_copyIN9__gnu_cxx17__normal_iteratorIPKSsSt6vectorISsSaISsEEEEPSsET0_T_SA_S9_
FNDA:0,_ZSt18uninitialized_copyIPN8f_config16FeaturePositionsES2_ET0_T_S4_S3_
FNDA:0,_ZSt18uninitialized_copyIPSsS0_ET0_T_S2_S1_
FNDA:0,_ZSt22__uninitialized_copy_aIPiS0_iET0_T_S2_S1_RSaIT1_E
FNDA:0,_ZSt22__uninitialized_copy_aIN9__gnu_cxx17__normal_iteratorIPKiSt6vectorIiSaIiEEEEPiiET0_T_SA_S9_RSaIT1_E
FNDA:112,_ZSt22__uninitialized_copy_aISt13move_iteratorIPiES1_iET0_T_S4_S3_RSaIT1_E
FNDA:0,_ZSt22__uninitialized_copy_aISt13move_iteratorIPSsES1_SsET0_T_S4_S3_RSaIT1_E
FNDA:48,_ZSt22__uninitialized_copy_aISt13move_iteratorIPN8f_config16FeaturePositionsEES3_S2_ET0_T_S6_S5_RSaIT1_E
FNDA:0,_ZSt22__uninitialized_copy_aIN9__gnu_cxx17__normal_iteratorIPKN8f_config16FeaturePositionsESt6vectorIS3_SaIS3_EEEEPS3_S3_ET0_T_SC_SB_RSaIT1_E
FNDA:0,_ZSt22__uninitialized_copy_aIN9__gnu_cxx17__normal_iteratorIPKSsSt6vectorISsSaISsEEEEPSsSsET0_T_SA_S9_RSaIT1_E
FNDA:0,_ZSt22__uninitialized_copy_aIPN8f_config16FeaturePositionsES2_S1_ET0_T_S4_S3_RSaIT1_E
FNDA:0,_ZSt22__uninitialized_copy_aIPSsS0_SsET0_T_S2_S1_RSaIT1_E
FNDA:112,_ZSt34__uninitialized_move_if_noexcept_aIPiS0_SaIiEET0_T_S3_S2_RT1_
FNDA:0,_ZSt34__uninitialized_move_if_noexcept_aIPSsS0_SaISsEET0_T_S3_S2_RT1_
FNDA:48,_ZSt34__uninitialized_move_if_noexcept_aIPN8f_config16FeaturePositionsES2_SaIS1_EET0_T_S5_S4_RT1_
FNF:30
FNH:8
DA:70,48
DA:73,48
DA:76,72
DA:77,24
DA:78,48
DA:80,0
DA:82,0
DA:83,0
DA:93,112
DA:95,112
DA:109,160
DA:119,160
DA:258,160
DA:260,160
DA:276,160
DA:283,160
LF:16
LH:13
end_of_record
SF:/usr/include/c++/4.7.2/bits/stl_vector.h
FN:80,_ZNSt12_Vector_baseIN8f_config16FeaturePositionsESaIS1_EE12_Vector_implD2Ev
FN:80,_ZNSt12_Vector_baseIiSaIiEE12_Vector_implD2Ev
FN:80,_ZNSt12_Vector_baseISsSaISsEE12_Vector_implD2Ev
FN:87,_ZNSt12_Vector_baseIiSaIiEE12_Vector_implC2Ev
FN:87,_ZNSt12_Vector_baseISsSaISsEE12_Vector_implC2Ev
FN:87,_ZNSt12_Vector_baseIN8f_config16FeaturePositionsESaIS1_EE12_Vector_implC2Ev
FN:91,_ZNSt12_Vector_baseIiSaIiEE12_Vector_implC2ERKS0_
FN:91,_ZNSt12_Vector_baseISsSaISsEE12_Vector_implC2ERKS0_
FN:91,_ZNSt12_Vector_baseIN8f_config16FeaturePositionsESaIS1_EE12_Vector_implC2ERKS2_
FN:96,_ZNSt12_Vector_baseISsSaISsEE12_Vector_implC2EOS0_
FN:96,_ZNSt12_Vector_baseIiSaIiEE12_Vector_implC2EOS0_
FN:96,_ZNSt12_Vector_baseIN8f_config16FeaturePositionsESaIS1_EE12_Vector_implC2EOS2_
FN:102,_ZNSt12_Vector_baseIiSaIiEE12_Vector_impl12_M_swap_dataERS2_
FN:102,_ZNSt12_Vector_baseISsSaISsEE12_Vector_impl12_M_swap_dataERS2_
FN:102,_ZNSt12_Vector_baseIN8f_config16FeaturePositionsESaIS1_EE12_Vector_impl12_M_swap_dataERS4_
FN:114,_ZNSt12_Vector_baseIN8f_config16FeaturePositionsESaIS1_EE19_M_get_Tp_allocatorEv
FN:114,_ZNSt12_Vector_baseIiSaIiEE19_M_get_Tp_allocatorEv
FN:114,_ZNSt12_Vector_baseISsSaISsEE19_M_get_Tp_allocatorEv
FN:118,_ZNKSt12_Vector_baseISsSaISsEE19_M_get_Tp_allocatorEv
FN:118,_ZNKSt12_Vector_baseIN8f_config16FeaturePositionsESaIS1_EE19_M_get_Tp_allocatorEv
FN:118,_ZNKSt12_Vector_baseIiSaIiEE19_M_get_Tp_allocatorEv
FN:125,_ZNSt12_Vector_baseIiSaIiEEC2Ev
FN:125,_ZNSt12_Vector_baseIN8f_config16FeaturePositionsESaIS1_EEC2Ev
FN:125,_ZNSt12_Vector_baseISsSaISsEEC2Ev
FN:135,_ZNSt12_Vector_baseIN8f_config16FeaturePositionsESaIS1_EEC2EmRKS2_
FN:135,_ZNSt12_Vector_baseISsSaISsEEC2EmRKS0_
FN:135,_ZNSt12_Vector_baseIiSaIiEEC2EmRKS0_
FN:143,_ZNSt12_Vector_baseIiSaIiEEC2EOS1_
FN:143,_ZNSt12_Vector_baseIN8f_config16FeaturePositionsESaIS1_EEC2EOS3_
FN:143,_ZNSt12_Vector_baseISsSaISsEEC2EOS1_
FN:160,_ZNSt12_Vector_baseISsSaISsEED2Ev
FN:160,_ZNSt12_Vector_baseIN8f_config16FeaturePositionsESaIS1_EED2Ev
FN:160,_ZNSt12_Vector_baseIiSaIiEED2Ev
FN:168,_ZNSt12_Vector_baseIiSaIiEE11_M_allocateEm
FN:168,_ZNSt12_Vector_baseISsSaISsEE11_M_allocateEm
FN:168,_ZNSt12_Vector_baseIN8f_config16FeaturePositionsESaIS1_EE11_M_allocateEm
FN:172,_ZNSt12_Vector_baseISsSaISsEE13_M_deallocateEPSsm
FN:172,_ZNSt12_Vector_baseIN8f_config16FeaturePositionsESaIS1_EE13_M_deallocateEPS1_m
FN:172,_ZNSt12_Vector_baseIiSaIiEE13_M_deallocateEPim
FN:180,_ZNSt12_Vector_baseIN8f_config16FeaturePositionsESaIS1_EE17_M_create_storageEm
FN:180,_ZNSt12_Vector_baseISsSaISsEE17_M_create_storageEm
FN:180,_ZNSt12_Vector_baseIiSaIiEE17_M_create_storageEm
FN:246,_ZNSt6vectorIN8f_config16FeaturePositionsESaIS1_EEC2Ev
FN:246,_ZNSt6vectorISsSaISsEEC2Ev
FN:246,_ZNSt6vectorIiSaIiEEC2Ev
FN:307,_ZNSt6vectorIiSaIiEEC2ERKS1_
FN:307,_ZNSt6vectorISsSaISsEEC2ERKS1_
FN:307,_ZNSt6vectorIN8f_config16FeaturePositionsESaIS1_EEC2ERKS3_
FN:324,_ZNSt6vectorIiSaIiEEC2EOS1_
FN:324,_ZNSt6vectorISsSaISsEEC2EOS1_
FN:324,_ZNSt6vectorIN8f_config16FeaturePositionsESaIS1_EEC2EOS3_
FN:402,_ZNSt6vectorIiSaIiEED2Ev
FN:402,_ZNSt6vectorISsSaISsEED2Ev
FN:402,_ZNSt6vectorIN8f_config16FeaturePositionsESaIS1_EED2Ev
FN:518,_ZNSt6vectorIiSaIiEE5beginEv
FN:518,_ZNSt6vectorIN8f_config16FeaturePositionsESaIS1_EE5beginEv
FN:518,_ZNSt6vectorISsSaISsEE5beginEv
FN:527,_ZNKSt6vectorIN8f_config16FeaturePositionsESaIS1_EE5beginEv
FN:527,_ZNKSt6vectorISsSaISsEE5beginEv
FN:527,_ZNKSt6vectorIiSaIiEE5beginEv
FN:536,_ZNSt6vectorIiSaIiEE3endEv
FN:536,_ZNSt6vectorISsSaISsEE3endEv
FN:536,_ZNSt6vectorIN8f_config16FeaturePositionsESaIS1_EE3endEv
FN:545,_ZNKSt6vectorIN8f_config16FeaturePositionsESaIS1_EE3endEv
FN:545,_ZNKSt6vectorISsSaISsEE3endEv
FN:545,_ZNKSt6vectorIiSaIiEE3endEv
FN:625,_ZNKSt6vectorISsSaISsEE4sizeEv
FN:625,_ZNKSt6vectorIiSaIiEE4sizeEv
FN:625,_ZNKSt6vectorIN8f_config16FeaturePositionsESaIS1_EE4sizeEv
FN:630,_ZNKSt6vectorISsSaISsEE8max_sizeEv
FN:630,_ZNKSt6vectorIN8f_config16FeaturePositionsESaIS1_EE8max_sizeEv
FN:630,_ZNKSt6vectorIiSaIiEE8max_sizeEv
FN:705,_ZNKSt6vectorIN8f_config16FeaturePositionsESaIS1_EE8capacityEv
FN:705,_ZNKSt6vectorISsSaISsEE8capacityEv
FN:705,_ZNKSt6vectorIiSaIiEE8capacityEv
FN:881,_ZNSt6vectorIN8f_config16FeaturePositionsESaIS1_EE9push_backERKS1_
FN:899,_ZNSt6vectorIiSaIiEE9push_backEOi
FN:899,_ZNSt6vectorISsSaISsEE9push_backEOSs
FN:1096,_ZNSt6vectorISsSaISsEE5clearEv
FN:1096,_ZNSt6vectorIN8f_config16FeaturePositionsESaIS1_EE5clearEv
FN:1096,_ZNSt6vectorIiSaIiEE5clearEv
FN:1106,_ZNSt6vectorIiSaIiEE20_M_allocate_and_copyIN9__gnu_cxx17__normal_iteratorIPKiS1_EEEEPimT_S9_
FN:1106,_ZNSt6vectorISsSaISsEE20_M_allocate_and_copyIN9__gnu_cxx17__normal_iteratorIPKSsS1_EEEEPSsmT_S9_
FN:1106,_ZNSt6vectorIN8f_config16FeaturePositionsESaIS1_EE20_M_allocate_and_copyIN9__gnu_cxx17__normal_iteratorIPKS1_S3_EEEEPS1_mT_SB_
FN:1303,_ZNKSt6vectorIiSaIiEE12_M_check_lenEmPKc
FN:1303,_ZNKSt6vectorISsSaISsEE12_M_check_lenEmPKc
FN:1303,_ZNKSt6vectorIN8f_config16FeaturePositionsESaIS1_EE12_M_check_lenEmPKc
FN:1317,_ZNSt6vectorIiSaIiEE15_M_erase_at_endEPi
FN:1317,_ZNSt6vectorIN8f_config16FeaturePositionsESaIS1_EE15_M_erase_at_endEPS1_
FN:1317,_ZNSt6vectorISsSaISsEE15_M_erase_at_endEPSs
FNDA:0,_ZNSt12_Vector_baseIiSaIiEE12_Vector_implD2Ev
FNDA:0,_ZNSt12_Vector_baseIN8f_config16FeaturePositionsESaIS1_EE12_Vector_implD2Ev
FNDA:0,_ZNSt12_Vector_baseISsSaISsEE12_Vector_implD2Ev
FNDA:80,_ZNSt12_Vector_baseIiSaIiEE12_Vector_implC2Ev
FNDA:104,_ZNSt12_Vector_baseIN8f_config16FeaturePositionsESaIS1_EE12_Vector_implC2Ev
FNDA:0,_ZNSt12_Vector_baseISsSaISsEE12_Vector_implC2Ev
FNDA:0,_ZNSt12_Vector_baseIN8f_config16FeaturePositionsESaIS1_EE12_Vector_implC2ERKS2_
FNDA:0,_ZNSt12_Vector_baseISsSaISsEE12_Vector_implC2ERKS0_
FNDA:0,_ZNSt12_Vector_baseIiSaIiEE12_Vector_implC2ERKS0_
FNDA:24,_ZNSt12_Vector_baseIiSaIiEE12_Vector_implC2EOS0_
FNDA:104,_ZNSt12_Vector_baseIN8f_config16FeaturePositionsESaIS1_EE12_Vector_implC2EOS2_
FNDA:0,_ZNSt12_Vector_baseISsSaISsEE12_Vector_implC2EOS0_
FNDA:24,_ZNSt12_Vector_baseIiSaIiEE12_Vector_impl12_M_swap_dataERS2_
FNDA:104,_ZNSt12_Vector_baseIN8f_config16FeaturePositionsESaIS1_EE12_Vector_impl12_M_swap_dataERS4_
FNDA:0,_ZNSt12_Vector_baseISsSaISsEE12_Vector_impl12_M_swap_dataERS2_
FNDA:0,_ZNSt12_Vector_baseIiSaIiEE19_M_get_Tp_allocatorEv
FNDA:0,_ZNSt12_Vector_baseIN8f_config16FeaturePositionsESaIS1_EE19_M_get_Tp_allocatorEv
FNDA:0,_ZNSt12_Vector_baseISsSaISsEE19_M_get_Tp_allocatorEv
FNDA:0,_ZNKSt12_Vector_baseIiSaIiEE19_M_get_Tp_allocatorEv
FNDA:0,_ZNKSt12_Vector_baseIN8f_config16FeaturePositionsESaIS1_EE19_M_get_Tp_allocatorEv
FNDA:0,_ZNKSt12_Vector_baseISsSaISsEE19_M_get_Tp_allocatorEv
FNDA:80,_ZNSt12_Vector_baseIiSaIiEEC2Ev
FNDA:104,_ZNSt12_Vector_baseIN8f_config16FeaturePositionsESaIS1_EEC2Ev
FNDA:0,_ZNSt12_Vector_baseISsSaISsEEC2Ev
FNDA:0,_ZNSt12_Vector_baseIN8f_config16FeaturePositionsESaIS1_EEC2EmRKS2_
FNDA:0,_ZNSt12_Vector_baseISsSaISsEEC2EmRKS0_
FNDA:0,_ZNSt12_Vector_baseIiSaIiEEC2EmRKS0_
FNDA:24,_ZNSt12_Vector_baseIiSaIiEEC2EOS1_
FNDA:104,_ZNSt12_Vector_baseIN8f_config16FeaturePositionsESaIS1_EEC2EOS3_
FNDA:0,_ZNSt12_Vector_baseISsSaISsEEC2EOS1_
FNDA:0,_ZNSt12_Vector_baseIiSaIiEED2Ev
FNDA:0,_ZNSt12_Vector_baseIN8f_config16FeaturePositionsESaIS1_EED2Ev
FNDA:0,_ZNSt12_Vector_baseISsSaISsEED2Ev
FNDA:0,_ZNSt12_Vector_baseIiSaIiEE11_M_allocateEm
FNDA:0,_ZNSt12_Vector_baseISsSaISsEE11_M_allocateEm
FNDA:0,_ZNSt12_Vector_baseIN8f_config16FeaturePositionsESaIS1_EE11_M_allocateEm
FNDA:0,_ZNSt12_Vector_baseIiSaIiEE13_M_deallocateEPim
FNDA:0,_ZNSt12_Vector_baseIN8f_config16FeaturePositionsESaIS1_EE13_M_deallocateEPS1_m
FNDA:0,_ZNSt12_Vector_baseISsSaISsEE13_M_deallocateEPSsm
FNDA:0,_ZNSt12_Vector_baseIN8f_config16FeaturePositionsESaIS1_EE17_M_create_storageEm
FNDA:0,_ZNSt12_Vector_baseISsSaISsEE17_M_create_storageEm
FNDA:0,_ZNSt12_Vector_baseIiSaIiEE17_M_create_storageEm
FNDA:80,_ZNSt6vectorIiSaIiEEC2Ev
FNDA:104,_ZNSt6vectorIN8f_config16FeaturePositionsESaIS1_EEC2Ev
FNDA:0,_ZNSt6vectorISsSaISsEEC2Ev
FNDA:0,_ZNSt6vectorIN8f_config16FeaturePositionsESaIS1_EEC2ERKS3_
FNDA:0,_ZNSt6vectorISsSaISsEEC2ERKS1_
FNDA:0,_ZNSt6vectorIiSaIiEEC2ERKS1_
FNDA:24,_ZNSt6vectorIiSaIiEEC2EOS1_
FNDA:104,_ZNSt6vectorIN8f_config16FeaturePositionsESaIS1_EEC2EOS3_
FNDA:0,_ZNSt6vectorISsSaISsEEC2EOS1_
FNDA:0,_ZNSt6vectorIiSaIiEED2Ev
FNDA:0,_ZNSt6vectorIN8f_config16FeaturePositionsESaIS1_EED2Ev
FNDA:0,_ZNSt6vectorISsSaISsEED2Ev
FNDA:8,_ZNSt6vectorIiSaIiEE5beginEv
FNDA:0,_ZNSt6vectorIN8f_config16FeaturePositionsESaIS1_EE5beginEv
FNDA:0,_ZNSt6vectorISsSaISsEE5beginEv
FNDA:0,_ZNKSt6vectorIiSaIiEE5beginEv
FNDA:0,_ZNKSt6vectorIN8f_config16FeaturePositionsESaIS1_EE5beginEv
FNDA:0,_ZNKSt6vectorISsSaISsEE5beginEv
FNDA:8,_ZNSt6vectorIiSaIiEE3endEv
FNDA:0,_ZNSt6vectorIN8f_config16FeaturePositionsESaIS1_EE3endEv
FNDA:0,_ZNSt6vectorISsSaISsEE3endEv
FNDA:0,_ZNKSt6vectorIiSaIiEE3endEv
FNDA:0,_ZNKSt6vectorIN8f_config16FeaturePositionsESaIS1_EE3endEv
FNDA:0,_ZNKSt6vectorISsSaISsEE3endEv
FNDA:0,_ZNKSt6vectorIiSaIiEE4sizeEv
FNDA:0,_ZNKSt6vectorIN8f_config16FeaturePositionsESaIS1_EE4sizeEv
FNDA:0,_ZNKSt6vectorISsSaISsEE4sizeEv
FNDA:224,_ZNKSt6vectorIiSaIiEE8max_sizeEv
FNDA:0,_ZNKSt6vectorISsSaISsEE8max_sizeEv
FNDA:96,_ZNKSt6vectorIN8f_config16FeaturePositionsESaIS1_EE8max_sizeEv
FNDA:12,_ZNKSt6vectorIiSaIiEE8capacityEv
FNDA:80,_ZNKSt6vectorIN8f_config16FeaturePositionsESaIS1_EE8capacityEv
FNDA:0,_ZNKSt6vectorISsSaISsEE8capacityEv
FNDA:48,_ZNSt6vectorIN8f_config16FeaturePositionsESaIS1_EE9push_backERKS1_
FNDA:72,_ZNSt6vectorIiSaIiEE9push_backEOi
FNDA:0,_ZNSt6vectorISsSaISsEE9push_backEOSs
FNDA:0,_ZNSt6vectorIiSaIiEE5clearEv
FNDA:0,_ZNSt6vectorIN8f_config16FeaturePositionsESaIS1_EE5clearEv
FNDA:0,_ZNSt6vectorISsSaISsEE5clearEv
FNDA:4,_ZNSt6vectorIiSaIiEE20_M_allocate_and_copyIN9__gnu_cxx17__normal_iteratorIPKiS1_EEEEPimT_S9_
FNDA:76,_ZNSt6vectorIN8f_config16FeaturePositionsESaIS1_EE20_M_allocate_and_copyIN9__gnu_cxx17__normal_iteratorIPKS1_S3_EEEEPS1_mT_SB_
FNDA:0,_ZNSt6vectorISsSaISsEE20_M_allocate_and_copyIN9__gnu_cxx17__normal_iteratorIPKSsS1_EEEEPSsmT_S9_
FNDA:112,_ZNKSt6vectorIiSaIiEE12_M_check_lenEmPKc
FNDA:0,_ZNKSt6vectorISsSaISsEE12_M_check_lenEmPKc
FNDA:48,_ZNKSt6vectorIN8f_config16FeaturePositionsESaIS1_EE12_M_check_lenEmPKc
FNDA:0,_ZNSt6vectorIiSaIiEE15_M_erase_at_endEPi
FNDA:0,_ZNSt6vectorIN8f_config16FeaturePositionsESaIS1_EE15_M_erase_at_endEPS1_
FNDA:0,_ZNSt6vectorISsSaISsEE15_M_erase_at_endEPSs
FNF:90
FNH:26
DA:80,0
DA:87,184
DA:88,184
DA:89,184
DA:91,0
DA:92,0
DA:93,0
DA:96,128
DA:98,128
DA:99,128
DA:102,128
DA:104,128
DA:105,128
DA:106,128
DA:107,128
DA:114,0
DA:115,0
DA:118,0
DA:119,0
DA:125,184
DA:126,184
DA:135,0
DA:136,0
DA:137,0
DA:143,128
DA:144,128
DA:145,128
DA:160,0
DA:161,0
DA:162,0
DA:168,0
DA:169,0
DA:172,0
DA:174,0
DA:175,0
DA:176,0
DA:180,0
DA:182,0
DA:183,0
DA:184,0
DA:185,0
DA:246,184
DA:247,184
DA:307,0
DA:309,0
DA:310,0
DA:314,0
DA:324,128
DA:325,128
DA:402,0
DA:403,0
DA:404,0
DA:518,8
DA:519,8
DA:527,0
DA:528,0
DA:536,8
DA:537,8
DA:545,0
DA:546,0
DA:625,0
DA:626,0
DA:630,320
DA:631,320
DA:705,92
DA:707,92
DA:881,48
DA:883,48
DA:885,0
DA:887,0
DA:891,48
DA:895,48
DA:899,72
DA:900,72
DA:1096,0
DA:1097,0
DA:1106,80
DA:1109,80
DA:1112,80
DA:1114,80
DA:1116,0
DA:1118,0
DA:1119,0
DA:1303,160
DA:1305,160
DA:1306,0
DA:1308,160
DA:1309,160
DA:1317,0
DA:1319,0
DA:1320,0
DA:1321,0
LF:92
LH:42
end_of_record
SF:/usr/include/c++/4.7.2/bits/vector.tcc
FN:92,_ZNSt6vectorISsSaISsEE12emplace_backIISsEEEvDpOT_
FN:92,_ZNSt6vectorIiSaIiEE12emplace_backIIiEEEvDpOT_
FN:161,_ZNSt6vectorIiSaIiEEaSERKS1_
FN:161,_ZNSt6vectorISsSaISsEEaSERKS1_
FN:161,_ZNSt6vectorIN8f_config16FeaturePositionsESaIS1_EEaSERKS3_
FN:397,_ZNSt6vectorIiSaIiEE19_M_emplace_back_auxIIiEEEvDpOT_
FN:397,_ZNSt6vectorISsSaISsEE19_M_emplace_back_auxIISsEEEvDpOT_
FN:397,_ZNSt6vectorIN8f_config16FeaturePositionsESaIS1_EE19_M_emplace_back_auxIIRKS1_EEEvDpOT_
FNDA:72,_ZNSt6vectorIiSaIiEE12emplace_backIIiEEEvDpOT_
FNDA:0,_ZNSt6vectorISsSaISsEE12emplace_backIISsEEEvDpOT_
FNDA:4,_ZNSt6vectorIiSaIiEEaSERKS1_
FNDA:76,_ZNSt6vectorIN8f_config16FeaturePositionsESaIS1_EEaSERKS3_
FNDA:0,_ZNSt6vectorISsSaISsEEaSERKS1_
FNDA:72,_ZNSt6vectorIiSaIiEE19_M_emplace_back_auxIIiEEEvDpOT_
FNDA:0,_ZNSt6vectorISsSaISsEE19_M_emplace_back_auxIISsEEEvDpOT_
FNDA:48,_ZNSt6vectorIN8f_config16FeaturePositionsESaIS1_EE19_M_emplace_back_auxIIRKS1_EEEvDpOT_
FNF:8
FNH:5
DA:92,72
DA:95,72
DA:97,0
DA:99,0
DA:102,72
DA:103,72
DA:161,80
DA:164,80
DA:167,80
DA:169,0
DA:173,0
DA:174,0
DA:178,0
DA:182,80
DA:183,80
DA:186,80
DA:187,80
DA:189,80
DA:192,80
DA:193,80
DA:195,0
DA:197,0
DA:202,0
DA:204,0
DA:209,80
DA:211,80
DA:397,120
DA:401,120
DA:402,120
DA:403,120
DA:406,120
DA:408,120
DA:410,120
DA:415,120
DA:417,0
DA:419,0
DA:420,0
DA:422,0
DA:423,0
DA:424,0
DA:426,120
DA:428,120
DA:431,120
DA:432,120
DA:433,120
DA:434,120
LF:46
LH:30
end_of_record
SF:/usr/include/c++/4.7.2/ext/alloc_traits.h
FN:153,_ZN9__gnu_cxx14__alloc_traitsISaISsEE17_S_select_on_copyERKS1_
FN:153,_ZN9__gnu_cxx14__alloc_traitsISaIN8f_config16FeaturePositionsEEE17_S_select_on_copyERKS3_
FN:153,_ZN9__gnu_cxx14__alloc_traitsISaIiEE17_S_select_on_copyERKS1_
FN:159,_ZN9__gnu_cxx14__alloc_traitsISaIiEE27_S_propagate_on_copy_assignEv
FN:159,_ZN9__gnu_cxx14__alloc_traitsISaIN8f_config16FeaturePositionsEEE27_S_propagate_on_copy_assignEv
FN:159,_ZN9__gnu_cxx14__alloc_traitsISaISsEE27_S_propagate_on_copy_assignEv
FN:168,_ZN9__gnu_cxx14__alloc_traitsISaIiEE15_S_always_equalEv
FN:168,_ZN9__gnu_cxx14__alloc_traitsISaIN8f_config16FeaturePositionsEEE15_S_always_equalEv
FN:168,_ZN9__gnu_cxx14__alloc_traitsISaISsEE15_S_always_equalEv
FNDA:0,_ZN9__gnu_cxx14__alloc_traitsISaIN8f_config16FeaturePositionsEEE17_S_select_on_copyERKS3_
FNDA:0,_ZN9__gnu_cxx14__alloc_traitsISaISsEE17_S_select_on_copyERKS1_
FNDA:0,_ZN9__gnu_cxx14__alloc_traitsISaIiEE17_S_select_on_copyERKS1_
FNDA:4,_ZN9__gnu_cxx14__alloc_traitsISaIiEE27_S_propagate_on_copy_assignEv
FNDA:76,_ZN9__gnu_cxx14__alloc_traitsISaIN8f_config16FeaturePositionsEEE27_S_propagate_on_copy_assignEv
FNDA:0,_ZN9__gnu_cxx14__alloc_traitsISaISsEE27_S_propagate_on_copy_assignEv
FNDA:0,_ZN9__gnu_cxx14__alloc_traitsISaIiEE15_S_always_equalEv
FNDA:0,_ZN9__gnu_cxx14__alloc_traitsISaIN8f_config16FeaturePositionsEEE15_S_always_equalEv
FNDA:0,_ZN9__gnu_cxx14__alloc_traitsISaISsEE15_S_always_equalEv
FNF:9
FNH:2
DA:153,0
DA:154,0
DA:159,80
DA:160,80
DA:168,0
DA:169,0
LF:6
LH:2
end_of_record
SF:/usr/include/c++/4.7.2/ext/atomicity.h
FN:47,_ZN9__gnu_cxxL18__exchange_and_addEPVii
FN:64,_ZN9__gnu_cxxL25__exchange_and_add_singleEPii
FN:77,_ZN9__gnu_cxxL27__exchange_and_add_dispatchEPii
FNDA:0,_ZN9__gnu_cxxL18__exchange_and_addEPVii
FNDA:0,_ZN9__gnu_cxxL25__exchange_and_add_singleEPii
FNDA:0,_ZN9__gnu_cxxL27__exchange_and_add_dispatchEPii
FNF:3
FNH:0
DA:47,0
DA:48,0
DA:64,0
DA:66,0
DA:67,0
DA:68,0
DA:77,0
DA:80,0
DA:81,0
DA:83,0
LF:10
LH:0
end_of_record
SF:/usr/include/c++/4.7.2/ext/new_allocator.h
FN:69,_ZN9__gnu_cxx13new_allocatorISt13_Rb_tree_nodeISt4pairIKSsN8f_config15FeatureSettingsEEEEC2Ev
FN:69,_ZN9__gnu_cxx13new_allocatorIN8f_config16FeaturePositionsEEC2Ev
FN:69,_ZN9__gnu_cxx13new_allocatorISsEC2Ev
FN:69,_ZN9__gnu_cxx13new_allocatorIcEC2Ev
FN:69,_ZN9__gnu_cxx13new_allocatorISt13_Rb_tree_nodeISt4pairIKSsN8f_config18RawFeatureSettingsEEEEC2Ev
FN:69,_ZN9__gnu_cxx13new_allocatorIiEC2Ev
FN:71,_ZN9__gnu_cxx13new_allocatorISsEC2ERKS1_
FN:71,_ZN9__gnu_cxx13new_allocatorIiEC2ERKS1_
FN:71,_ZN9__gnu_cxx13new_allocatorIN8f_config16FeaturePositionsEEC2ERKS3_
FN:71,_ZN9__gnu_cxx13new_allocatorIcEC2ERKS1_
FN:71,_ZN9__gnu_cxx13new_allocatorISt13_Rb_tree_nodeISt4pairIKSsN8f_config18RawFeatureSettingsEEEEC2ERKS8_
FN:76,_ZN9__gnu_cxx13new_allocatorISt13_Rb_tree_nodeISt4pairIKSsN8f_config18RawFeatureSettingsEEEED2Ev
FN:76,_ZN9__gnu_cxx13new_allocatorIiED2Ev
FN:76,_ZN9__gnu_cxx13new_allocatorIN8f_config16FeaturePositionsEED2Ev
FN:76,_ZN9__gnu_cxx13new_allocatorIcED2Ev
FN:76,_ZN9__gnu_cxx13new_allocatorISt13_Rb_tree_nodeISt4pairIKSsN8f_config15FeatureSettingsEEEED2Ev
FN:76,_ZN9__gnu_cxx13new_allocatorISsED2Ev
FN:89,_ZN9__gnu_cxx13new_allocatorISsE8allocateEmPKv
FN:89,_ZN9__gnu_cxx13new_allocatorISt13_Rb_tree_nodeISt4pairIKSsN8f_config15FeatureSettingsEEEE8allocateEmPKv
FN:89,_ZN9__gnu_cxx13new_allocatorISt13_Rb_tree_nodeISt4pairIKSsN8f_config18RawFeatureSettingsEEEE8allocateEmPKv
FN:89,_ZN9__gnu_cxx13new_allocatorIiE8allocateEmPKv
FN:89,_ZN9__gnu_cxx13new_allocatorIN8f_config16FeaturePositionsEE8allocateEmPKv
FN:99,_ZN9__gnu_cxx13new_allocatorISt13_Rb_tree_nodeISt4pairIKSsN8f_config15FeatureSettingsEEEE10deallocateEPS7_m
FN:99,_ZN9__gnu_cxx13new_allocatorISsE10deallocateEPSsm
FN:99,_ZN9__gnu_cxx13new_allocatorIN8f_config16FeaturePositionsEE10deallocateEPS2_m
FN:99,_ZN9__gnu_cxx13new_allocatorISt13_Rb_tree_nodeISt4pairIKSsN8f_config18RawFeatureSettingsEEEE10deallocateEPS7_m
FN:99,_ZN9__gnu_cxx13new_allocatorIiE10deallocateEPim
FN:103,_ZNK9__gnu_cxx13new_allocatorISsE8max_sizeEv
FN:103,_ZNK9__gnu_cxx13new_allocatorIN8f_config16FeaturePositionsEE8max_sizeEv
FN:103,_ZNK9__gnu_cxx13new_allocatorISt13_Rb_tree_nodeISt4pairIKSsN8f_config18RawFeatureSettingsEEEE8max_sizeEv
FN:103,_ZNK9__gnu_cxx13new_allocatorISt13_Rb_tree_nodeISt4pairIKSsN8f_config15FeatureSettingsEEEE8max_sizeEv
FN:103,_ZNK9__gnu_cxx13new_allocatorIiE8max_sizeEv
FN:109,_ZN9__gnu_cxx13new_allocatorIN8f_config16FeaturePositionsEE9constructIS2_IRKS2_EEEvPT_DpOT0_
FN:109,_ZN9__gnu_cxx13new_allocatorISt13_Rb_tree_nodeISt4pairIKSsN8f_config15FeatureSettingsEEEE9constructIS7_IS2_ISsS5_EEEEvPT_DpOT0_
FN:109,_ZN9__gnu_cxx13new_allocatorISt13_Rb_tree_nodeISt4pairIKSsN8f_config18RawFeatureSettingsEEEE9constructIS7_IS6_EEEvPT_DpOT0_
FN:109,_ZN9__gnu_cxx13new_allocatorIiE9constructIiIiEEEvPT_DpOT0_
FN:109,_ZN9__gnu_cxx13new_allocatorISt13_Rb_tree_nodeISt4pairIKSsN8f_config18RawFeatureSettingsEEEE9constructIS7_IRKS6_EEEvPT_DpOT0_
FN:109,_ZN9__gnu_cxx13new_allocatorISsE9constructISsISsEEEvPT_DpOT0_
FN:114,_ZN9__gnu_cxx13new_allocatorISt13_Rb_tree_nodeISt4pairIKSsN8f_config18RawFeatureSettingsEEEE7destroyIS7_EEvPT_
FN:114,_ZN9__gnu_cxx13new_allocatorIN8f_config16FeaturePositionsEE7destroyIS2_EEvPT_
FN:114,_ZN9__gnu_cxx13new_allocatorIiE7destroyIiEEvPT_
FN:114,_ZN9__gnu_cxx13new_allocatorISt13_Rb_tree_nodeISt4pairIKSsN8f_config15FeatureSettingsEEEE7destroyIS7_EEvPT_
FN:114,_ZN9__gnu_cxx13new_allocatorISsE7destroyISsEEvPT_
FNDA:28,_ZN9__gnu_cxx13new_allocatorISt13_Rb_tree_nodeISt4pairIKSsN8f_config15FeatureSettingsEEEEC2Ev
FNDA:84,_ZN9__gnu_cxx13new_allocatorIiEC2Ev
FNDA:104,_ZN9__gnu_cxx13new_allocatorIN8f_config16FeaturePositionsEEC2Ev
FNDA:0,_ZN9__gnu_cxx13new_allocatorISsEC2Ev
FNDA:4,_ZN9__gnu_cxx13new_allocatorISt13_Rb_tree_nodeISt4pairIKSsN8f_config18RawFeatureSettingsEEEEC2Ev
FNDA:0,_ZN9__gnu_cxx13new_allocatorIcEC2Ev
FNDA:0,_ZN9__gnu_cxx13new_allocatorIiEC2ERKS1_
FNDA:0,_ZN9__gnu_cxx13new_allocatorIN8f_config16FeaturePositionsEEC2ERKS3_
FNDA:0,_ZN9__gnu_cxx13new_allocatorISsEC2ERKS1_
FNDA:4,_ZN9__gnu_cxx13new_allocatorISt13_Rb_tree_nodeISt4pairIKSsN8f_config18RawFeatureSettingsEEEEC2ERKS8_
FNDA:0,_ZN9__gnu_cxx13new_allocatorIcEC2ERKS1_
FNDA:0,_ZN9__gnu_cxx13new_allocatorIiED2Ev
FNDA:0,_ZN9__gnu_cxx13new_allocatorIN8f_config16FeaturePositionsEED2Ev
FNDA:0,_ZN9__gnu_cxx13new_allocatorISsED2Ev
FNDA:28,_ZN9__gnu_cxx13new_allocatorISt13_Rb_tree_nodeISt4pairIKSsN8f_config15FeatureSettingsEEEED2Ev
FNDA:8,_ZN9__gnu_cxx13new_allocatorISt13_Rb_tree_nodeISt4pairIKSsN8f_config18RawFeatureSettingsEEEED2Ev
FNDA:0,_ZN9__gnu_cxx13new_allocatorIcED2Ev
FNDA:28,_ZN9__gnu_cxx13new_allocatorISt13_Rb_tree_nodeISt4pairIKSsN8f_config15FeatureSettingsEEEE8allocateEmPKv
FNDA:48,_ZN9__gnu_cxx13new_allocatorISt13_Rb_tree_nodeISt4pairIKSsN8f_config18RawFeatureSettingsEEEE8allocateEmPKv
FNDA:0,_ZN9__gnu_cxx13new_allocatorIiE8allocateEmPKv
FNDA:0,_ZN9__gnu_cxx13new_allocatorISsE8allocateEmPKv
FNDA:0,_ZN9__gnu_cxx13new_allocatorIN8f_config16FeaturePositionsEE8allocateEmPKv
FNDA:28,_ZN9__gnu_cxx13new_allocatorISt13_Rb_tree_nodeISt4pairIKSsN8f_config15FeatureSettingsEEEE10deallocateEPS7_m
FNDA:48,_ZN9__gnu_cxx13new_allocatorISt13_Rb_tree_nodeISt4pairIKSsN8f_config18RawFeatureSettingsEEEE10deallocateEPS7_m
FNDA:0,_ZN9__gnu_cxx13new_allocatorIiE10deallocateEPim
FNDA:0,_ZN9__gnu_cxx13new_allocatorIN8f_config16FeaturePositionsEE10deallocateEPS2_m
FNDA:0,_ZN9__gnu_cxx13new_allocatorISsE10deallocateEPSsm
FNDA:28,_ZNK9__gnu_cxx13new_allocatorISt13_Rb_tree_nodeISt4pairIKSsN8f_config15FeatureSettingsEEEE8max_sizeEv
FNDA:48,_ZNK9__gnu_cxx13new_allocatorISt13_Rb_tree_nodeISt4pairIKSsN8f_config18RawFeatureSettingsEEEE8max_sizeEv
FNDA:0,_ZNK9__gnu_cxx13new_allocatorIiE8max_sizeEv
FNDA:0,_ZNK9__gnu_cxx13new_allocatorISsE8max_sizeEv
FNDA:0,_ZNK9__gnu_cxx13new_allocatorIN8f_config16FeaturePositionsEE8max_sizeEv
FNDA:28,_ZN9__gnu_cxx13new_allocatorISt13_Rb_tree_nodeISt4pairIKSsN8f_config15FeatureSettingsEEEE9constructIS7_IS2_ISsS5_EEEEvPT_DpOT0_
FNDA:24,_ZN9__gnu_cxx13new_allocatorISt13_Rb_tree_nodeISt4pairIKSsN8f_config18RawFeatureSettingsEEEE9constructIS7_IS6_EEEvPT_DpOT0_
FNDA:24,_ZN9__gnu_cxx13new_allocatorISt13_Rb_tree_nodeISt4pairIKSsN8f_config18RawFeatureSettingsEEEE9constructIS7_IRKS6_EEEvPT_DpOT0_
FNDA:72,_ZN9__gnu_cxx13new_allocatorIiE9constructIiIiEEEvPT_DpOT0_
FNDA:0,_ZN9__gnu_cxx13new_allocatorISsE9constructISsISsEEEvPT_DpOT0_
FNDA:48,_ZN9__gnu_cxx13new_allocatorIN8f_config16FeaturePositionsEE9constructIS2_IRKS2_EEEvPT_DpOT0_
FNDA:0,_ZN9__gnu_cxx13new_allocatorIiE7destroyIiEEvPT_
FNDA:0,_ZN9__gnu_cxx13new_allocatorISsE7destroyISsEEvPT_
FNDA:0,_ZN9__gnu_cxx13new_allocatorIN8f_config16FeaturePositionsEE7destroyIS2_EEvPT_
FNDA:28,_ZN9__gnu_cxx13new_allocatorISt13_Rb_tree_nodeISt4pairIKSsN8f_config15FeatureSettingsEEEE7destroyIS7_EEvPT_
FNDA:48,_ZN9__gnu_cxx13new_allocatorISt13_Rb_tree_nodeISt4pairIKSsN8f_config18RawFeatureSettingsEEEE7destroyIS7_EEvPT_
FNF:43
FNH:20
DA:69,220
DA:71,4
DA:76,36
DA:89,76
DA:91,76
DA:92,0
DA:94,76
DA:99,76
DA:100,76
DA:103,76
DA:104,76
DA:109,196
DA:110,196
DA:114,76
LF:14
LH:13
end_of_record
SF:/usr/include/c++/4.7.2/iostream
DA:75,4
LF:1
LH:1
end_of_record
SF:/usr/include/c++/4.7.2/new
FN:111,_ZnwmPv
FN:117,_ZdlPvS_
FNDA:0,_ZnwmPv
FNDA:0,_ZdlPvS_
FNF:2
FNH:0
DA:111,0
DA:112,0
DA:117,0
LF:3
LH:0
end_of_record
SF:/usr/include/c++/4.7.2/x86_64-redhat-linux/bits/gthr-default.h
FN:259,_ZL18__gthread_active_pv
FNDA:0,_ZL18__gthread_active_pv
FNF:1
FNH:0
DA:259,0
DA:270,0
LF:2
LH:0
end_of_record
SF:/usr/local/include/libconfig.h++
FN:145,_ZNK9libconfig14ParseException7getFileEv
FN:148,_ZNK9libconfig14ParseException7getLineEv
FN:151,_ZNK9libconfig14ParseException8getErrorEv
FNDA:0,_ZNK9libconfig14ParseException7getFileEv
FNDA:0,_ZNK9libconfig14ParseException7getLineEv
FNDA:0,_ZNK9libconfig14ParseException8getErrorEv
FNF:3
FNH:0
DA:145,0
DA:146,0
DA:148,0
DA:149,0
DA:151,0
DA:152,0
LF:6
LH:0
end_of_record
SF:/home/joanna/cmbi/kman/src/f_config.cpp
FN:8,_ZN8f_config10ConfParser15parse_conf_fileERKSs
FN:29,_ZN8f_config10ConfParser14process_configERKN9libconfig6ConfigE
FN:98,_ZN8f_config10ConfParser16process_settingsESt3mapISsNS_18RawFeatureSettingsESt4lessISsESaISt4pairIKSsS2_EEE
FN:157,_Z41__static_initialization_and_destruction_0ii
FN:157,_GLOBAL__sub_I__ZN8f_config10ConfParser15parse_conf_fileERKSs
FNDA:4,_ZN8f_config10ConfParser15parse_conf_fileERKSs
FNDA:4,_ZN8f_config10ConfParser14process_configERKN9libconfig6ConfigE
FNDA:4,_ZN8f_config10ConfParser16process_settingsESt3mapISsNS_18RawFeatureSettingsESt4lessISsESaISt4pairIKSsS2_EEE
FNDA:4,_GLOBAL__sub_I__ZN8f_config10ConfParser15parse_conf_fileERKSs
FNDA:4,_Z41__static_initialization_and_destruction_0ii
FNF:5
FNH:5
DA:8,4
DA:10,4
DA:13,4
DA:15,0
DA:16,0
DA:17,0
DA:19,0
DA:20,0
DA:21,0
DA:22,0
DA:24,4
DA:25,4
DA:29,4
DA:31,4
DA:34,4
DA:35,4
DA:36,4
DA:37,28
DA:38,24
DA:39,24
DA:40,24
DA:41,24
DA:42,0
DA:43,24
DA:45,24
DA:47,24
DA:48,24
DA:49,0
DA:52,24
DA:53,72
DA:54,48
DA:56,24
DA:57,48
DA:58,24
DA:60,24
DA:61,48
DA:62,24
DA:64,24
DA:65,48
DA:66,24
DA:68,24
DA:69,48
DA:70,24
DA:72,24
DA:73,48
DA:74,24
DA:76,24
DA:77,72
DA:78,48
DA:79,48
DA:80,48
DA:81,120
DA:82,72
DA:84,48
DA:85,48
DA:86,24
DA:87,24
DA:89,0
DA:91,0
DA:92,0
DA:94,4
DA:98,4
DA:100,4
DA:101,28
DA:102,24
DA:103,24
DA:104,24
DA:105,24
DA:107,72
DA:108,48
DA:109,48
DA:113,48
DA:114,24
DA:115,24
DA:119,48
DA:120,168
DA:122,792
DA:123,96
DA:124,96
DA:125,288
DA:126,432
DA:129,288
DA:130,576
DA:132,24
DA:137,48
DA:138,168
DA:140,564
DA:141,48
DA:142,48
DA:143,144
DA:144,288
DA:147,232
DA:148,464
DA:150,44
DA:154,24
DA:155,24
DA:156,4
DA:157,12
LF:98
LH:86
end_of_record
SF:/home/joanna/cmbi/kman/src/f_config.h
FN:11,_ZN8f_config16FeaturePositionsaSERKS0_
FN:11,_ZN8f_config16FeaturePositionsC2EOS0_
FN:11,_ZN8f_config16FeaturePositionsC2ERKS0_
FN:11,_ZN8f_config16FeaturePositionsC2Ev
FN:11,_ZN8f_config16FeaturePositionsD2Ev
FN:17,_ZN8f_config18RawFeatureSettingsC2ERKS0_
FN:17,_ZN8f_config18RawFeatureSettingsC2Ev
FN:17,_ZN8f_config18RawFeatureSettingsC2EOS0_
FN:17,_ZN8f_config18RawFeatureSettingsD2Ev
FN:17,_ZN8f_config18RawFeatureSettingsaSERKS0_
FN:30,_ZN8f_config15FeatureSettingsD2Ev
FN:30,_ZN8f_config15FeatureSettingsC2Ev
FN:30,_ZN8f_config15FeatureSettingsC2EOS0_
FN:30,_ZN8f_config15FeatureSettingsaSERKS0_
FNDA:24,_ZN8f_config16FeaturePositionsC2EOS0_
FNDA:0,_ZN8f_config16FeaturePositionsaSERKS0_
FNDA:0,_ZN8f_config16FeaturePositionsC2ERKS0_
FNDA:0,_ZN8f_config16FeaturePositionsD2Ev
FNDA:56,_ZN8f_config16FeaturePositionsC2Ev
FNDA:24,_ZN8f_config18RawFeatureSettingsC2ERKS0_
FNDA:48,_ZN8f_config18RawFeatureSettingsC2EOS0_
FNDA:24,_ZN8f_config18RawFeatureSettingsaSERKS0_
FNDA:120,_ZN8f_config18RawFeatureSettingsD2Ev
FNDA:48,_ZN8f_config18RawFeatureSettingsC2Ev
FNDA:56,_ZN8f_config15FeatureSettingsC2EOS0_
FNDA:28,_ZN8f_config15FeatureSettingsaSERKS0_
FNDA:0,_ZN8f_config15FeatureSettingsD2Ev
FNDA:56,_ZN8f_config15FeatureSettingsC2Ev
FNF:14
FNH:10
DA:11,80
DA:17,264
DA:30,140
LF:3
LH:3
end_of_record
TN:
SF:/usr/include/c++/4.7.2/bits/allocator.h
FN:124,_ZSteqIcEbRKSaIT_ES3_
FNDA:0,_ZSteqIcEbRKSaIT_ES3_
FNF:1
FNH:0
DA:124,0
DA:125,0
LF:2
LH:0
end_of_record
SF:/usr/include/c++/4.7.2/bits/basic_string.h
FN:269,_ZNSs12_Alloc_hiderD2Ev
FN:1718,_ZNSs16_S_construct_auxIPcEES0_T_S1_RKSaIcESt12__false_type
FN:1740,_ZNSs12_S_constructIPcEES0_T_S1_RKSaIcE
FNDA:0,_ZNSs12_Alloc_hiderD2Ev
FNDA:0,_ZNSs16_S_construct_auxIPcEES0_T_S1_RKSaIcESt12__false_type
FNDA:0,_ZNSs12_S_constructIPcEES0_T_S1_RKSaIcE
FNF:3
FNH:0
DA:269,0
DA:1718,0
DA:1722,0
DA:1740,0
DA:1743,0
LF:5
LH:0
end_of_record
SF:/usr/include/c++/4.7.2/bits/basic_string.tcc
FN:125,_ZNSs12_S_constructIPcEES0_T_S1_RKSaIcESt20forward_iterator_tag
FN:229,_ZNSsC2IPcEET_S1_RKSaIcE
FNDA:0,_ZNSs12_S_constructIPcEES0_T_S1_RKSaIcESt20forward_iterator_tag
FNDA:0,_ZNSsC2IPcEET_S1_RKSaIcE
FNF:2
FNH:0
DA:125,0
DA:130,0
DA:131,0
DA:134,0
DA:135,0
DA:138,0
DA:140,0
DA:142,0
DA:143,0
DA:145,0
DA:146,0
DA:148,0
DA:149,0
DA:229,0
DA:231,0
DA:232,0
LF:16
LH:0
end_of_record
SF:/usr/include/c++/4.7.2/bits/char_traits.h
FN:244,_ZNSt11char_traitsIcE6assignERcRKc
FN:260,_ZNSt11char_traitsIcE6lengthEPKc
FN:272,_ZNSt11char_traitsIcE4copyEPcPKcm
FNDA:0,_ZNSt11char_traitsIcE6assignERcRKc
FNDA:0,_ZNSt11char_traitsIcE6lengthEPKc
FNDA:0,_ZNSt11char_traitsIcE4copyEPcPKcm
FNF:3
FNH:0
DA:244,0
DA:245,0
DA:260,0
DA:261,0
DA:272,0
DA:273,0
LF:6
LH:0
end_of_record
SF:/usr/include/c++/4.7.2/bits/ios_base.h
FN:121,_ZStorSt13_Ios_OpenmodeS_
FN:159,_ZStorSt12_Ios_IostateS_
FNDA:0,_ZStorSt13_Ios_OpenmodeS_
FNDA:0,_ZStorSt12_Ios_IostateS_
FNF:2
FNH:0
DA:121,0
DA:122,0
DA:159,0
DA:160,0
LF:4
LH:0
end_of_record
SF:/usr/include/c++/4.7.2/bits/stl_iterator.h
FN:728,_ZN9__gnu_cxx17__normal_iteratorIPKN5fasta7ResidueESt6vectorIS2_SaIS2_EEEC2ERKS4_
FN:740,_ZNK9__gnu_cxx17__normal_iteratorIPKN5fasta7ResidueESt6vectorIS2_SaIS2_EEEdeEv
FN:748,_ZN9__gnu_cxx17__normal_iteratorIPKN5fasta7ResidueESt6vectorIS2_SaIS2_EEEppEv
FN:792,_ZNK9__gnu_cxx17__normal_iteratorIPKN5fasta7ResidueESt6vectorIS2_SaIS2_EEE4baseEv
FN:825,_ZN9__gnu_cxxneIPKN5fasta7ResidueESt6vectorIS2_SaIS2_EEEEbRKNS_17__normal_iteratorIT_T0_EESD_
FNDA:0,_ZN9__gnu_cxx17__normal_iteratorIPKN5fasta7ResidueESt6vectorIS2_SaIS2_EEEC2ERKS4_
FNDA:0,_ZNK9__gnu_cxx17__normal_iteratorIPKN5fasta7ResidueESt6vectorIS2_SaIS2_EEEdeEv
FNDA:0,_ZN9__gnu_cxx17__normal_iteratorIPKN5fasta7ResidueESt6vectorIS2_SaIS2_EEEppEv
FNDA:0,_ZNK9__gnu_cxx17__normal_iteratorIPKN5fasta7ResidueESt6vectorIS2_SaIS2_EEE4baseEv
FNDA:0,_ZN9__gnu_cxxneIPKN5fasta7ResidueESt6vectorIS2_SaIS2_EEEEbRKNS_17__normal_iteratorIT_T0_EESD_
FNF:5
FNH:0
DA:728,0
DA:740,0
DA:741,0
DA:748,0
DA:750,0
DA:751,0
DA:792,0
DA:793,0
DA:825,0
DA:827,0
LF:10
LH:0
end_of_record
SF:/usr/include/c++/4.7.2/bits/stl_iterator_base_funcs.h
FN:90,_ZSt10__distanceIPcENSt15iterator_traitsIT_E15difference_typeES2_S2_St26random_access_iterator_tag
FN:114,_ZSt8distanceIPcENSt15iterator_traitsIT_E15difference_typeES2_S2_
FNDA:0,_ZSt10__distanceIPcENSt15iterator_traitsIT_E15difference_typeES2_S2_St26random_access_iterator_tag
FNDA:0,_ZSt8distanceIPcENSt15iterator_traitsIT_E15difference_typeES2_S2_
FNF:2
FNH:0
DA:90,0
DA:96,0
DA:114,0
DA:118,0
LF:4
LH:0
end_of_record
SF:/usr/include/c++/4.7.2/bits/stl_iterator_base_types.h
FN:202,_ZSt19__iterator_categoryIPcENSt15iterator_traitsIT_E17iterator_categoryERKS2_
FNDA:0,_ZSt19__iterator_categoryIPcENSt15iterator_traitsIT_E17iterator_categoryERKS2_
FNF:1
FNH:0
DA:202,0
DA:203,0
LF:2
LH:0
end_of_record
SF:/usr/include/c++/4.7.2/bits/stl_vector.h
FN:527,_ZNKSt6vectorIN5fasta7ResidueESaIS1_EE5beginEv
FN:545,_ZNKSt6vectorIN5fasta7ResidueESaIS1_EE3endEv
FN:625,_ZNKSt6vectorIN5fasta8SequenceESaIS1_EE4sizeEv
FN:765,_ZNKSt6vectorIN5fasta8SequenceESaIS1_EEixEm
FNDA:0,_ZNKSt6vectorIN5fasta7ResidueESaIS1_EE5beginEv
FNDA:0,_ZNKSt6vectorIN5fasta7ResidueESaIS1_EE3endEv
FNDA:0,_ZNKSt6vectorIN5fasta8SequenceESaIS1_EE4sizeEv
FNDA:0,_ZNKSt6vectorIN5fasta8SequenceESaIS1_EEixEm
FNF:4
FNH:0
DA:527,0
DA:528,0
DA:545,0
DA:546,0
DA:625,0
DA:626,0
DA:765,0
DA:766,0
LF:8
LH:0
end_of_record
SF:/usr/include/c++/4.7.2/ext/atomicity.h
FN:47,_ZN9__gnu_cxxL18__exchange_and_addEPVii
FN:64,_ZN9__gnu_cxxL25__exchange_and_add_singleEPii
FN:77,_ZN9__gnu_cxxL27__exchange_and_add_dispatchEPii
FNDA:0,_ZN9__gnu_cxxL18__exchange_and_addEPVii
FNDA:0,_ZN9__gnu_cxxL25__exchange_and_add_singleEPii
FNDA:0,_ZN9__gnu_cxxL27__exchange_and_add_dispatchEPii
FNF:3
FNH:0
DA:47,0
DA:48,0
DA:64,0
DA:66,0
DA:67,0
DA:68,0
DA:77,0
DA:80,0
DA:81,0
DA:83,0
LF:10
LH:0
end_of_record
SF:/usr/include/c++/4.7.2/ext/new_allocator.h
FN:69,_ZN9__gnu_cxx13new_allocatorIcEC2Ev
FN:71,_ZN9__gnu_cxx13new_allocatorIcEC2ERKS1_
FN:76,_ZN9__gnu_cxx13new_allocatorIcED2Ev
FNDA:0,_ZN9__gnu_cxx13new_allocatorIcEC2Ev
FNDA:0,_ZN9__gnu_cxx13new_allocatorIcEC2ERKS1_
FNDA:0,_ZN9__gnu_cxx13new_allocatorIcED2Ev
FNF:3
FNH:0
DA:69,0
DA:71,0
DA:76,0
LF:3
LH:0
end_of_record
SF:/usr/include/c++/4.7.2/ext/type_traits.h
FN:150,_ZN9__gnu_cxx17__is_null_pointerIcEEbPT_
FNDA:0,_ZN9__gnu_cxx17__is_null_pointerIcEEbPT_
FNF:1
FNH:0
DA:150,0
DA:151,0
LF:2
LH:0
end_of_record
SF:/usr/include/c++/4.7.2/iostream
DA:75,4
LF:1
LH:1
end_of_record
SF:/usr/include/c++/4.7.2/sstream
FN:60,_ZNSt15basic_stringbufIcSt11char_traitsIcESaIcEED0Ev
FN:60,_ZNSt15basic_stringbufIcSt11char_traitsIcESaIcEED2Ev
FNDA:0,_ZNSt15basic_stringbufIcSt11char_traitsIcESaIcEED0Ev
FNDA:0,_ZNSt15basic_stringbufIcSt11char_traitsIcESaIcEED2Ev
FNF:2
FNH:0
DA:60,0
LF:1
LH:0
end_of_record
SF:/usr/include/c++/4.7.2/x86_64-redhat-linux/bits/gthr-default.h
FN:259,_ZL18__gthread_active_pv
FNDA:0,_ZL18__gthread_active_pv
FNF:1
FNH:0
DA:259,0
DA:270,0
LF:2
LH:0
end_of_record
SF:/home/joanna/cmbi/kman/src/outfile.cpp
FN:7,_ZN7outfile23write_encoded_alignmentERKSt6vectorIN5fasta8SequenceESaIS2_EERKN8seq_data12SequenceDataERKSs
FN:24,_ZN7outfile23write_decoded_alignmentERKSt6vectorIN5fasta8SequenceESaIS2_EERKN8seq_data12SequenceDataERKSs
FN:38,_Z41__static_initialization_and_destruction_0ii
FN:38,_GLOBAL__sub_I__ZN7outfile23write_encoded_alignmentERKSt6vectorIN5fasta8SequenceESaIS2_EERKN8seq_data12SequenceDataERKSs
FNDA:0,_ZN7outfile23write_encoded_alignmentERKSt6vectorIN5fasta8SequenceESaIS2_EERKN8seq_data12SequenceDataERKSs
FNDA:0,_ZN7outfile23write_decoded_alignmentERKSt6vectorIN5fasta8SequenceESaIS2_EERKN8seq_data12SequenceDataERKSs
FNDA:4,_GLOBAL__sub_I__ZN7outfile23write_encoded_alignmentERKSt6vectorIN5fasta8SequenceESaIS2_EERKN8seq_data12SequenceDataERKSs
FNDA:4,_Z41__static_initialization_and_destruction_0ii
FNF:4
FNH:2
DA:7,0
DA:11,0
DA:12,0
DA:13,0
DA:14,0
DA:15,0
DA:16,0
DA:17,0
DA:19,0
DA:20,0
DA:21,0
DA:24,0
DA:28,0
DA:29,0
DA:30,0
DA:31,0
DA:32,0
DA:33,0
DA:34,0
DA:36,0
DA:37,0
DA:38,12
LF:22
LH:1
end_of_record
TN:
SF:/usr/include/c++/4.7.2/bits/alloc_traits.h
FN:335,_ZNSt16allocator_traitsISaIdEE9_S_selectIKS0_EENSt9enable_ifIXntsrNS1_15__select_helperIT_EE5valueES6_E4typeERS6_
FN:424,_ZNSt16allocator_traitsISaIdEE37select_on_container_copy_constructionERKS0_
FN:479,_ZSt18__do_alloc_on_moveISaIdEEvRT_S2_St17integral_constantIbLb0EE
FN:483,_ZSt15__alloc_on_moveISaIdEEvRT_S2_
FNDA:0,_ZNSt16allocator_traitsISaIdEE9_S_selectIKS0_EENSt9enable_ifIXntsrNS1_15__select_helperIT_EE5valueES6_E4typeERS6_
FNDA:0,_ZNSt16allocator_traitsISaIdEE37select_on_container_copy_constructionERKS0_
FNDA:0,_ZSt18__do_alloc_on_moveISaIdEEvRT_S2_St17integral_constantIbLb0EE
FNDA:0,_ZSt15__alloc_on_moveISaIdEEvRT_S2_
FNF:4
FNH:0
DA:335,0
DA:336,0
DA:424,0
DA:425,0
DA:479,0
DA:480,0
DA:483,0
DA:487,0
DA:488,0
LF:9
LH:0
end_of_record
SF:/usr/include/c++/4.7.2/bits/allocator.h
FN:104,_ZNSaISt4pairIKcSt6vectorIdSaIdEEEEC2Ev
FN:104,_ZNSaIdEC2Ev
FN:104,_ZNSaISt13_Rb_tree_nodeISt4pairIKcSt6vectorIdSaIdEEEEEC2Ev
FN:106,_ZNSaIdEC2ERKS_
FN:106,_ZNSaISt13_Rb_tree_nodeISt4pairIKcSt6vectorIdSaIdEEEEEC2ERKS7_
FN:106,_ZNSaISt4pairIKcSt6vectorIdSaIdEEEEC2ERKS5_
FN:110,_ZNSaISt13_Rb_tree_nodeISt4pairIKcSt6vectorIdSaIdEEEEEC2IS5_EERKSaIT_E
FN:112,_ZNSaISt4pairIKcSt6vectorIdSaIdEEEED2Ev
FN:112,_ZNSaIdED2Ev
FN:112,_ZNSaISt13_Rb_tree_nodeISt4pairIKcSt6vectorIdSaIdEEEEED2Ev
FNDA:32,_ZNSaISt13_Rb_tree_nodeISt4pairIKcSt6vectorIdSaIdEEEEEC2Ev
FNDA:8,_ZNSaISt4pairIKcSt6vectorIdSaIdEEEEC2Ev
FNDA:0,_ZNSaIdEC2Ev
FNDA:8,_ZNSaISt13_Rb_tree_nodeISt4pairIKcSt6vectorIdSaIdEEEEEC2ERKS7_
FNDA:0,_ZNSaIdEC2ERKS_
FNDA:8,_ZNSaISt4pairIKcSt6vectorIdSaIdEEEEC2ERKS5_
FNDA:8,_ZNSaISt13_Rb_tree_nodeISt4pairIKcSt6vectorIdSaIdEEEEEC2IS5_EERKSaIT_E
FNDA:48,_ZNSaISt13_Rb_tree_nodeISt4pairIKcSt6vectorIdSaIdEEEEED2Ev
FNDA:16,_ZNSaISt4pairIKcSt6vectorIdSaIdEEEED2Ev
FNDA:0,_ZNSaIdED2Ev
FNF:10
FNH:7
DA:104,40
DA:106,16
DA:107,16
DA:110,8
DA:112,64
LF:5
LH:5
end_of_record
SF:/usr/include/c++/4.7.2/bits/move.h
FN:77,_ZSt7forwardIcEOT_RNSt16remove_referenceIS0_E4typeE
FN:77,_ZSt7forwardISt4pairIKcSt6vectorIdSaIdEEEEOT_RNSt16remove_referenceIS6_E4typeE
FN:77,_ZSt7forwardISt4pairIcSt6vectorIdSaIdEEEEOT_RNSt16remove_referenceIS5_E4typeE
FN:77,_ZSt7forwardISt6vectorIdSaIdEEEOT_RNSt16remove_referenceIS3_E4typeE
FN:77,_ZSt7forwardIRSt17_Rb_tree_iteratorISt4pairIKcSt6vectorIdSaIdEEEEEOT_RNSt16remove_referenceIS9_E4typeE
FN:77,_ZSt7forwardIbEOT_RNSt16remove_referenceIS0_E4typeE
FN:77,_ZSt7forwardIRKSt4pairIKcSt6vectorIdSaIdEEEEOT_RNSt16remove_referenceIS8_E4typeE
FN:77,_ZSt7forwardISt17_Rb_tree_iteratorISt4pairIKcSt6vectorIdSaIdEEEEEOT_RNSt16remove_referenceIS8_E4typeE
FN:102,_ZSt4moveIRcEONSt16remove_referenceIT_E4typeEOS2_
FN:102,_ZSt4moveIRPdEONSt16remove_referenceIT_E4typeEOS3_
FN:102,_ZSt4moveIRSt6vectorIdSaIdEEEONSt16remove_referenceIT_E4typeEOS5_
FN:102,_ZSt4moveIRSaISt13_Rb_tree_nodeISt4pairIKcSt6vectorIdSaIdEEEEEEONSt16remove_referenceIT_E4typeEOSB_
FN:102,_ZSt4moveIRSaIdEEONSt16remove_referenceIT_E4typeEOS3_
FN:167,_ZSt4swapIPdEvRT_S2_
FNDA:0,_ZSt7forwardIRSt17_Rb_tree_iteratorISt4pairIKcSt6vectorIdSaIdEEEEEOT_RNSt16remove_referenceIS9_E4typeE
FNDA:0,_ZSt7forwardIbEOT_RNSt16remove_referenceIS0_E4typeE
FNDA:216,_ZSt7forwardISt17_Rb_tree_iteratorISt4pairIKcSt6vectorIdSaIdEEEEEOT_RNSt16remove_referenceIS8_E4typeE
FNDA:1448,_ZSt7forwardIRKSt4pairIKcSt6vectorIdSaIdEEEEOT_RNSt16remove_referenceIS8_E4typeE
FNDA:3388,_ZSt7forwardISt4pairIKcSt6vectorIdSaIdEEEEOT_RNSt16remove_referenceIS6_E4typeE
FNDA:432,_ZSt7forwardISt4pairIcSt6vectorIdSaIdEEEEOT_RNSt16remove_referenceIS5_E4typeE
FNDA:0,_ZSt7forwardISt6vectorIdSaIdEEEOT_RNSt16remove_referenceIS3_E4typeE
FNDA:0,_ZSt7forwardIcEOT_RNSt16remove_referenceIS0_E4typeE
FNDA:0,_ZSt4moveIRPdEONSt16remove_referenceIT_E4typeEOS3_
FNDA:0,_ZSt4moveIRSaIdEEONSt16remove_referenceIT_E4typeEOS3_
FNDA:8,_ZSt4moveIRSaISt13_Rb_tree_nodeISt4pairIKcSt6vectorIdSaIdEEEEEEONSt16remove_referenceIT_E4typeEOSB_
FNDA:0,_ZSt4moveIRSt6vectorIdSaIdEEEONSt16remove_referenceIT_E4typeEOS5_
FNDA:0,_ZSt4moveIRcEONSt16remove_referenceIT_E4typeEOS2_
FNDA:0,_ZSt4swapIPdEvRT_S2_
FNF:14
FNH:5
DA:77,5484
DA:78,5484
DA:102,8
DA:103,8
DA:167,0
DA:176,0
DA:177,0
DA:178,0
DA:179,0
LF:9
LH:4
end_of_record
SF:/usr/include/c++/4.7.2/bits/stl_algobase.h
FN:271,_ZSt12__niter_baseIPKdENSt11_Niter_baseIT_E13iterator_typeES3_
FN:271,_ZSt12__niter_baseIPdENSt11_Niter_baseIT_E13iterator_typeES2_
FN:271,_ZSt12__niter_baseIPKcENSt11_Niter_baseIT_E13iterator_typeES3_
FN:271,_ZSt12__niter_baseIN9__gnu_cxx17__normal_iteratorIPKdSt6vectorIdSaIdEEEEENSt11_Niter_baseIT_E13iterator_typeES9_
FN:271,_ZSt12__niter_baseIPcENSt11_Niter_baseIT_E13iterator_typeES2_
FN:282,_ZSt12__miter_baseIN9__gnu_cxx17__normal_iteratorIPKdSt6vectorIdSaIdEEEEENSt11_Miter_baseIT_E13iterator_typeES9_
FN:282,_ZSt12__miter_baseIPKcENSt11_Miter_baseIT_E13iterator_typeES3_
FN:282,_ZSt12__miter_baseIPKdENSt11_Miter_baseIT_E13iterator_typeES3_
FN:362,_ZNSt11__copy_moveILb0ELb1ESt26random_access_iterator_tagE8__copy_mIdEEPT_PKS3_S6_S4_
FN:362,_ZNSt11__copy_moveILb0ELb1ESt26random_access_iterator_tagE8__copy_mIcEEPT_PKS3_S6_S4_
FN:373,_ZSt13__copy_move_aILb0EPKdPdET1_T0_S4_S3_
FN:373,_ZSt13__copy_move_aILb0EPKcPcET1_T0_S4_S3_
FN:418,_ZSt14__copy_move_a2ILb0EPKcPcET1_T0_S4_S3_
FN:418,_ZSt14__copy_move_a2ILb0EPKdPdET1_T0_S4_S3_
FN:418,_ZSt14__copy_move_a2ILb0EN9__gnu_cxx17__normal_iteratorIPKdSt6vectorIdSaIdEEEEPdET1_T0_SA_S9_
FN:444,_ZSt4copyIPKcPcET0_T_S4_S3_
FN:444,_ZSt4copyIN9__gnu_cxx17__normal_iteratorIPKdSt6vectorIdSaIdEEEEPdET0_T_SA_S9_
FN:444,_ZSt4copyIPKdPdET0_T_S4_S3_
FN:740,_ZSt10__fill_n_aIPdmdEN9__gnu_cxx11__enable_ifIXsrSt11__is_scalarIT1_E7__valueET_E6__typeES6_T0_RKS4_
FN:775,_ZSt6fill_nIPdmdET_S1_T0_RKT1_
FNDA:808,_ZSt12__niter_baseIPKdENSt11_Niter_baseIT_E13iterator_typeES3_
FNDA:0,_ZSt12__niter_baseIPcENSt11_Niter_baseIT_E13iterator_typeES2_
FNDA:0,_ZSt12__niter_baseIPKcENSt11_Niter_baseIT_E13iterator_typeES3_
FNDA:0,_ZSt12__niter_baseIPdENSt11_Niter_baseIT_E13iterator_typeES2_
FNDA:0,_ZSt12__niter_baseIN9__gnu_cxx17__normal_iteratorIPKdSt6vectorIdSaIdEEEEENSt11_Niter_baseIT_E13iterator_typeES9_
FNDA:808,_ZSt12__miter_baseIPKdENSt11_Miter_baseIT_E13iterator_typeES3_
FNDA:0,_ZSt12__miter_baseIPKcENSt11_Miter_baseIT_E13iterator_typeES3_
FNDA:0,_ZSt12__miter_baseIN9__gnu_cxx17__normal_iteratorIPKdSt6vectorIdSaIdEEEEENSt11_Miter_baseIT_E13iterator_typeES9_
FNDA:0,_ZNSt11__copy_moveILb0ELb1ESt26random_access_iterator_tagE8__copy_mIcEEPT_PKS3_S6_S4_
FNDA:0,_ZNSt11__copy_moveILb0ELb1ESt26random_access_iterator_tagE8__copy_mIdEEPT_PKS3_S6_S4_
FNDA:0,_ZSt13__copy_move_aILb0EPKcPcET1_T0_S4_S3_
FNDA:0,_ZSt13__copy_move_aILb0EPKdPdET1_T0_S4_S3_
FNDA:404,_ZSt14__copy_move_a2ILb0EPKdPdET1_T0_S4_S3_
FNDA:0,_ZSt14__copy_move_a2ILb0EPKcPcET1_T0_S4_S3_
FNDA:0,_ZSt14__copy_move_a2ILb0EN9__gnu_cxx17__normal_iteratorIPKdSt6vectorIdSaIdEEEEPdET1_T0_SA_S9_
FNDA:404,_ZSt4copyIPKdPdET0_T_S4_S3_
FNDA:0,_ZSt4copyIPKcPcET0_T_S4_S3_
FNDA:0,_ZSt4copyIN9__gnu_cxx17__normal_iteratorIPKdSt6vectorIdSaIdEEEEPdET0_T_SA_S9_
FNDA:0,_ZSt10__fill_n_aIPdmdEN9__gnu_cxx11__enable_ifIXsrSt11__is_scalarIT1_E7__valueET_E6__typeES6_T0_RKS4_
FNDA:0,_ZSt6fill_nIPdmdET_S1_T0_RKT1_
FNF:20
FNH:4
DA:271,808
DA:272,808
DA:282,808
DA:283,808
DA:362,0
DA:364,0
DA:365,0
DA:366,0
DA:367,0
DA:373,0
DA:381,0
DA:384,0
DA:418,404
DA:422,404
DA:444,404
DA:454,404
DA:740,0
DA:742,0
DA:743,0
DA:745,0
DA:746,0
DA:775,0
DA:780,0
LF:23
LH:8
end_of_record
SF:/usr/include/c++/4.7.2/bits/stl_construct.h
FN:114,_ZNSt12_Destroy_auxILb1EE9__destroyIPdEEvT_S3_
FN:114,_ZNSt12_Destroy_auxILb1EE9__destroyIPcEEvT_S3_
FN:124,_ZSt8_DestroyIPdEvT_S1_
FN:124,_ZSt8_DestroyIPcEvT_S1_
FN:152,_ZSt8_DestroyIPccEvT_S1_RSaIT0_E
FN:152,_ZSt8_DestroyIPddEvT_S1_RSaIT0_E
FNDA:0,_ZNSt12_Destroy_auxILb1EE9__destroyIPdEEvT_S3_
FNDA:8,_ZNSt12_Destroy_auxILb1EE9__destroyIPcEEvT_S3_
FNDA:0,_ZSt8_DestroyIPdEvT_S1_
FNDA:8,_ZSt8_DestroyIPcEvT_S1_
FNDA:0,_ZSt8_DestroyIPddEvT_S1_RSaIT0_E
FNDA:8,_ZSt8_DestroyIPccEvT_S1_RSaIT0_E
FNF:6
FNH:3
DA:114,8
DA:124,8
DA:128,8
DA:130,8
DA:152,8
DA:155,8
DA:156,8
LF:7
LH:7
end_of_record
SF:/usr/include/c++/4.7.2/bits/stl_function.h
FN:236,_ZNKSt4lessIcEclERKcS2_
FN:498,_ZNKSt10_Select1stISt4pairIKcSt6vectorIdSaIdEEEEclERS5_
FN:502,_ZNKSt10_Select1stISt4pairIKcSt6vectorIdSaIdEEEEclERKS5_
FN:508,_ZNKSt10_Select1stISt4pairIKcSt6vectorIdSaIdEEEEclIS0_IcS4_EEERNT_10first_typeERS9_
FNDA:0,_ZNKSt4lessIcEclERKcS2_
FNDA:1288,_ZNKSt10_Select1stISt4pairIKcSt6vectorIdSaIdEEEEclERS5_
FNDA:98378,_ZNKSt10_Select1stISt4pairIKcSt6vectorIdSaIdEEEEclERKS5_
FNDA:168,_ZNKSt10_Select1stISt4pairIKcSt6vectorIdSaIdEEEEclIS0_IcS4_EEERNT_10first_typeERS9_
FNF:4
FNH:3
DA:236,0
DA:237,0
DA:498,1288
DA:499,1288
DA:502,98378
DA:503,98378
DA:508,168
DA:509,168
LF:8
LH:6
end_of_record
SF:/usr/include/c++/4.7.2/bits/stl_iterator.h
FN:728,_ZN9__gnu_cxx17__normal_iteratorIPdSt6vectorIdSaIdEEEC2ERKS1_
FN:728,_ZN9__gnu_cxx17__normal_iteratorIPKdSt6vectorIdSaIdEEEC2ERKS2_
FN:728,_ZN9__gnu_cxx17__normal_iteratorIPKcSt6vectorIcSaIcEEEC2ERKS2_
FN:740,_ZNK9__gnu_cxx17__normal_iteratorIPdSt6vectorIdSaIdEEEdeEv
FN:740,_ZNK9__gnu_cxx17__normal_iteratorIPKcSt6vectorIcSaIcEEEdeEv
FN:748,_ZN9__gnu_cxx17__normal_iteratorIPdSt6vectorIdSaIdEEEppEv
FN:748,_ZN9__gnu_cxx17__normal_iteratorIPKcSt6vectorIcSaIcEEEppEv
FN:792,_ZNK9__gnu_cxx17__normal_iteratorIPKcSt6vectorIcSaIcEEE4baseEv
FN:792,_ZNK9__gnu_cxx17__normal_iteratorIPKdSt6vectorIdSaIdEEE4baseEv
FN:792,_ZNK9__gnu_cxx17__normal_iteratorIPdSt6vectorIdSaIdEEE4baseEv
FN:825,_ZN9__gnu_cxxneIPKcSt6vectorIcSaIcEEEEbRKNS_17__normal_iteratorIT_T0_EESB_
FN:825,_ZN9__gnu_cxxneIPdSt6vectorIdSaIdEEEEbRKNS_17__normal_iteratorIT_T0_EESA_
FNDA:0,_ZN9__gnu_cxx17__normal_iteratorIPKdSt6vectorIdSaIdEEEC2ERKS2_
FNDA:352,_ZN9__gnu_cxx17__normal_iteratorIPKcSt6vectorIcSaIcEEEC2ERKS2_
FNDA:0,_ZN9__gnu_cxx17__normal_iteratorIPdSt6vectorIdSaIdEEEC2ERKS1_
FNDA:3532,_ZNK9__gnu_cxx17__normal_iteratorIPKcSt6vectorIcSaIcEEEdeEv
FNDA:0,_ZNK9__gnu_cxx17__normal_iteratorIPdSt6vectorIdSaIdEEEdeEv
FNDA:3532,_ZN9__gnu_cxx17__normal_iteratorIPKcSt6vectorIcSaIcEEEppEv
FNDA:0,_ZN9__gnu_cxx17__normal_iteratorIPdSt6vectorIdSaIdEEEppEv
FNDA:0,_ZNK9__gnu_cxx17__normal_iteratorIPKdSt6vectorIdSaIdEEE4baseEv
FNDA:7416,_ZNK9__gnu_cxx17__normal_iteratorIPKcSt6vectorIcSaIcEEE4baseEv
FNDA:0,_ZNK9__gnu_cxx17__normal_iteratorIPdSt6vectorIdSaIdEEE4baseEv
FNDA:3708,_ZN9__gnu_cxxneIPKcSt6vectorIcSaIcEEEEbRKNS_17__normal_iteratorIT_T0_EESB_
FNDA:0,_ZN9__gnu_cxxneIPdSt6vectorIdSaIdEEEEbRKNS_17__normal_iteratorIT_T0_EESA_
FNF:12
FNH:5
DA:728,352
DA:740,3532
DA:741,3532
DA:748,3532
DA:750,3532
DA:751,3532
DA:792,7416
DA:793,7416
DA:825,3708
DA:827,3708
LF:10
LH:10
end_of_record
SF:/usr/include/c++/4.7.2/bits/stl_iterator_base_funcs.h
FN:90,_ZSt10__distanceIPKcENSt15iterator_traitsIT_E15difference_typeES3_S3_St26random_access_iterator_tag
FN:90,_ZSt10__distanceIPKdENSt15iterator_traitsIT_E15difference_typeES3_S3_St26random_access_iterator_tag
FN:114,_ZSt8distanceIPKdENSt15iterator_traitsIT_E15difference_typeES3_S3_
FN:114,_ZSt8distanceIPKcENSt15iterator_traitsIT_E15difference_typeES3_S3_
FNDA:404,_ZSt10__distanceIPKdENSt15iterator_traitsIT_E15difference_typeES3_S3_St26random_access_iterator_tag
FNDA:0,_ZSt10__distanceIPKcENSt15iterator_traitsIT_E15difference_typeES3_S3_St26random_access_iterator_tag
FNDA:404,_ZSt8distanceIPKdENSt15iterator_traitsIT_E15difference_typeES3_S3_
FNDA:0,_ZSt8distanceIPKcENSt15iterator_traitsIT_E15difference_typeES3_S3_
FNF:4
FNH:2
DA:90,404
DA:96,404
DA:114,404
DA:118,404
LF:4
LH:4
end_of_record
SF:/usr/include/c++/4.7.2/bits/stl_iterator_base_types.h
FN:202,_ZSt19__iterator_categoryIPKdENSt15iterator_traitsIT_E17iterator_categoryERKS3_
FN:202,_ZSt19__iterator_categoryIPKcENSt15iterator_traitsIT_E17iterator_categoryERKS3_
FN:213,_ZNSt10_Iter_baseIN9__gnu_cxx17__normal_iteratorIPKdSt6vectorIdSaIdEEEELb0EE7_S_baseES7_
FN:213,_ZNSt10_Iter_baseIPcLb0EE7_S_baseES0_
FN:213,_ZNSt10_Iter_baseIPKcLb0EE7_S_baseES1_
FN:213,_ZNSt10_Iter_baseIPdLb0EE7_S_baseES0_
FN:213,_ZNSt10_Iter_baseIPKdLb0EE7_S_baseES1_
FN:221,_ZNSt10_Iter_baseIN9__gnu_cxx17__normal_iteratorIPKdSt6vectorIdSaIdEEEELb1EE7_S_baseES7_
FNDA:404,_ZSt19__iterator_categoryIPKdENSt15iterator_traitsIT_E17iterator_categoryERKS3_
FNDA:0,_ZSt19__iterator_categoryIPKcENSt15iterator_traitsIT_E17iterator_categoryERKS3_
FNDA:0,_ZNSt10_Iter_baseIPcLb0EE7_S_baseES0_
FNDA:0,_ZNSt10_Iter_baseIPdLb0EE7_S_baseES0_
FNDA:1616,_ZNSt10_Iter_baseIPKdLb0EE7_S_baseES1_
FNDA:0,_ZNSt10_Iter_baseIPKcLb0EE7_S_baseES1_
FNDA:0,_ZNSt10_Iter_baseIN9__gnu_cxx17__normal_iteratorIPKdSt6vectorIdSaIdEEEELb0EE7_S_baseES7_
FNDA:0,_ZNSt10_Iter_baseIN9__gnu_cxx17__normal_iteratorIPKdSt6vectorIdSaIdEEEELb1EE7_S_baseES7_
FNF:8
FNH:2
DA:202,404
DA:203,404
DA:213,1616
DA:214,1616
DA:221,0
DA:222,0
LF:6
LH:4
end_of_record
SF:/usr/include/c++/4.7.2/bits/stl_map.h
FN:90,_ZNSt3mapIcSt6vectorIdSaIdEESt4lessIcESaISt4pairIKcS2_EEED2Ev
FN:154,_ZNSt3mapIcSt6vectorIdSaIdEESt4lessIcESaISt4pairIKcS2_EEEC2Ev
FN:200,_ZNSt3mapIcSt6vectorIdSaIdEESt4lessIcESaISt4pairIKcS2_EEEC2ESt16initializer_listIS7_ERKS4_RKS8_
FN:314,_ZNSt3mapIcSt6vectorIdSaIdEESt4lessIcESaISt4pairIKcS2_EEE5beginEv
FN:332,_ZNSt3mapIcSt6vectorIdSaIdEESt4lessIcESaISt4pairIKcS2_EEE3endEv
FN:341,_ZNKSt3mapIcSt6vectorIdSaIdEESt4lessIcESaISt4pairIKcS2_EEE3endEv
FN:450,_ZNSt3mapIcSt6vectorIdSaIdEESt4lessIcESaISt4pairIKcS2_EEEixERS6_
FN:464,_ZNSt3mapIcSt6vectorIdSaIdEESt4lessIcESaISt4pairIKcS2_EEEixEOc
FN:496,_ZNKSt3mapIcSt6vectorIdSaIdEESt4lessIcESaISt4pairIKcS2_EEE2atERS6_
FN:583,_ZNSt3mapIcSt6vectorIdSaIdEESt4lessIcESaISt4pairIKcS2_EEE6insertIS5_IcS2_EvEESt17_Rb_tree_iteratorIS7_ESt23_Rb_tree_const_iteratorIS7_EOT_
FN:583,_ZNSt3mapIcSt6vectorIdSaIdEESt4lessIcESaISt4pairIKcS2_EEE6insertIS7_vEESt17_Rb_tree_iteratorIS7_ESt23_Rb_tree_const_iteratorIS7_EOT_
FN:724,_ZNKSt3mapIcSt6vectorIdSaIdEESt4lessIcESaISt4pairIKcS2_EEE8key_compEv
FN:748,_ZNSt3mapIcSt6vectorIdSaIdEESt4lessIcESaISt4pairIKcS2_EEE4findERS6_
FN:790,_ZNSt3mapIcSt6vectorIdSaIdEESt4lessIcESaISt4pairIKcS2_EEE11lower_boundERS6_
FN:805,_ZNKSt3mapIcSt6vectorIdSaIdEESt4lessIcESaISt4pairIKcS2_EEE11lower_boundERS6_
FNDA:40,_ZNSt3mapIcSt6vectorIdSaIdEESt4lessIcESaISt4pairIKcS2_EEED2Ev
FNDA:32,_ZNSt3mapIcSt6vectorIdSaIdEESt4lessIcESaISt4pairIKcS2_EEEC2Ev
FNDA:8,_ZNSt3mapIcSt6vectorIdSaIdEESt4lessIcESaISt4pairIKcS2_EEEC2ESt16initializer_listIS7_ERKS4_RKS8_
FNDA:204,_ZNSt3mapIcSt6vectorIdSaIdEESt4lessIcESaISt4pairIKcS2_EEE5beginEv
FNDA:15268,_ZNSt3mapIcSt6vectorIdSaIdEESt4lessIcESaISt4pairIKcS2_EEE3endEv
FNDA:4796,_ZNKSt3mapIcSt6vectorIdSaIdEESt4lessIcESaISt4pairIKcS2_EEE3endEv
FNDA:9712,_ZNSt3mapIcSt6vectorIdSaIdEESt4lessIcESaISt4pairIKcS2_EEEixERS6_
FNDA:4848,_ZNSt3mapIcSt6vectorIdSaIdEESt4lessIcESaISt4pairIKcS2_EEEixEOc
FNDA:4796,_ZNKSt3mapIcSt6vectorIdSaIdEESt4lessIcESaISt4pairIKcS2_EEE2atERS6_
FNDA:560,_ZNSt3mapIcSt6vectorIdSaIdEESt4lessIcESaISt4pairIKcS2_EEE6insertIS7_vEESt17_Rb_tree_iteratorIS7_ESt23_Rb_tree_const_iteratorIS7_EOT_
FNDA:72,_ZNSt3mapIcSt6vectorIdSaIdEESt4lessIcESaISt4pairIKcS2_EEE6insertIS5_IcS2_EvEESt17_Rb_tree_iteratorIS7_ESt23_Rb_tree_const_iteratorIS7_EOT_
FNDA:19164,_ZNKSt3mapIcSt6vectorIdSaIdEESt4lessIcESaISt4pairIKcS2_EEE8key_compEv
FNDA:424,_ZNSt3mapIcSt6vectorIdSaIdEESt4lessIcESaISt4pairIKcS2_EEE4findERS6_
FNDA:14560,_ZNSt3mapIcSt6vectorIdSaIdEESt4lessIcESaISt4pairIKcS2_EEE11lower_boundERS6_
FNDA:4796,_ZNKSt3mapIcSt6vectorIdSaIdEESt4lessIcESaISt4pairIKcS2_EEE11lower_boundERS6_
FNF:15
FNH:15
DA:90,40
DA:154,32
DA:155,32
DA:200,8
DA:203,8
DA:204,8
DA:314,204
DA:315,204
DA:332,15268
DA:333,15268
DA:341,4796
DA:342,4796
DA:450,9712
DA:455,9712
DA:457,9712
DA:458,560
DA:459,9712
DA:464,4848
DA:469,4848
DA:471,4848
DA:472,72
DA:473,4848
DA:496,4796
DA:498,4796
DA:499,4796
DA:500,0
DA:501,4796
DA:583,632
DA:585,632
DA:724,19164
DA:725,19164
DA:748,424
DA:749,424
DA:790,14560
DA:791,14560
DA:805,4796
DA:806,4796
LF:37
LH:36
end_of_record
SF:/usr/include/c++/4.7.2/bits/stl_pair.h
FN:88,_ZNSt4pairIcSt6vectorIdSaIdEEED2Ev
FN:88,_ZNSt4pairIKcSt6vectorIdSaIdEEED2Ev
FN:119,_ZNSt4pairIKcSt6vectorIdSaIdEEEC2ERKS4_
FN:120,_ZNSt4pairIKcSt6vectorIdSaIdEEEC2EOS4_
FN:125,_ZNSt4pairIKcSt6vectorIdSaIdEEEC1IcvEEOT_RKS3_
FN:130,_ZNSt4pairIKcSt6vectorIdSaIdEEEC2IS3_vEERS0_OT_
FN:136,_ZNSt4pairIcSt6vectorIdSaIdEEEC2IcS2_vEEOT_OT0_
FN:136,_ZNSt4pairISt17_Rb_tree_iteratorIS_IKcSt6vectorIdSaIdEEEEbEC2IRS6_bvEEOT_OT0_
FN:136,_ZNSt4pairISt17_Rb_tree_iteratorIS_IKcSt6vectorIdSaIdEEEEbEC2IS6_bvEEOT_OT0_
FN:142,_ZNSt4pairIKcSt6vectorIdSaIdEEEC2IcS3_vEEOS_IT_T0_E
FN:268,_ZSt9make_pairIcSt6vectorIdSaIdEEESt4pairINSt17__decay_and_stripIT_E6__typeENS4_IT0_E6__typeEEOS5_OS8_
FNDA:72,_ZNSt4pairIcSt6vectorIdSaIdEEED2Ev
FNDA:1696,_ZNSt4pairIKcSt6vectorIdSaIdEEED2Ev
FNDA:252,_ZNSt4pairIKcSt6vectorIdSaIdEEEC2ERKS4_
FNDA:560,_ZNSt4pairIKcSt6vectorIdSaIdEEEC2EOS4_
FNDA:252,_ZNSt4pairIKcSt6vectorIdSaIdEEEC1IcvEEOT_RKS3_
FNDA:560,_ZNSt4pairIKcSt6vectorIdSaIdEEEC2IS3_vEERS0_OT_
FNDA:0,_ZNSt4pairISt17_Rb_tree_iteratorIS_IKcSt6vectorIdSaIdEEEEbEC2IRS6_bvEEOT_OT0_
FNDA:216,_ZNSt4pairISt17_Rb_tree_iteratorIS_IKcSt6vectorIdSaIdEEEEbEC2IS6_bvEEOT_OT0_
FNDA:72,_ZNSt4pairIcSt6vectorIdSaIdEEEC2IcS2_vEEOT_OT0_
FNDA:72,_ZNSt4pairIKcSt6vectorIdSaIdEEEC2IcS3_vEEOS_IT_T0_E
FNDA:72,_ZSt9make_pairIcSt6vectorIdSaIdEEESt4pairINSt17__decay_and_stripIT_E6__typeENS4_IT0_E6__typeEEOS5_OS8_
FNF:11
FNH:10
DA:88,1768
DA:119,252
DA:120,560
DA:125,252
DA:126,252
DA:130,560
DA:131,560
DA:136,288
DA:137,288
DA:142,72
DA:144,72
DA:268,72
DA:273,72
LF:13
LH:13
end_of_record
SF:/usr/include/c++/4.7.2/bits/stl_tree.h
FN:130,_ZNSt13_Rb_tree_nodeISt4pairIKcSt6vectorIdSaIdEEEED2Ev
FN:137,_ZNSt13_Rb_tree_nodeISt4pairIKcSt6vectorIdSaIdEEEEC2IIS5_EEEDpOT_
FN:137,_ZNSt13_Rb_tree_nodeISt4pairIKcSt6vectorIdSaIdEEEEC2IIRKS5_EEEDpOT_
FN:137,_ZNSt13_Rb_tree_nodeISt4pairIKcSt6vectorIdSaIdEEEEC2IIS0_IcS4_EEEEDpOT_
FN:173,_ZNSt17_Rb_tree_iteratorISt4pairIKcSt6vectorIdSaIdEEEEC2EPSt13_Rb_tree_nodeIS5_E
FN:177,_ZNKSt17_Rb_tree_iteratorISt4pairIKcSt6vectorIdSaIdEEEEdeEv
FN:186,_ZNSt17_Rb_tree_iteratorISt4pairIKcSt6vectorIdSaIdEEEEppEv
FN:201,_ZNSt17_Rb_tree_iteratorISt4pairIKcSt6vectorIdSaIdEEEEmmEv
FN:216,_ZNKSt17_Rb_tree_iteratorISt4pairIKcSt6vectorIdSaIdEEEEeqERKS6_
FN:220,_ZNKSt17_Rb_tree_iteratorISt4pairIKcSt6vectorIdSaIdEEEEneERKS6_
FN:246,_ZNSt23_Rb_tree_const_iteratorISt4pairIKcSt6vectorIdSaIdEEEEC2EPKSt13_Rb_tree_nodeIS5_E
FN:249,_ZNSt23_Rb_tree_const_iteratorISt4pairIKcSt6vectorIdSaIdEEEEC2ERKSt17_Rb_tree_iteratorIS5_E
FN:253,_ZNKSt23_Rb_tree_const_iteratorISt4pairIKcSt6vectorIdSaIdEEEE13_M_const_castEv
FN:258,_ZNKSt23_Rb_tree_const_iteratorISt4pairIKcSt6vectorIdSaIdEEEEdeEv
FN:267,_ZNSt23_Rb_tree_const_iteratorISt4pairIKcSt6vectorIdSaIdEEEEppEv
FN:282,_ZNSt23_Rb_tree_const_iteratorISt4pairIKcSt6vectorIdSaIdEEEEmmEv
FN:297,_ZNKSt23_Rb_tree_const_iteratorISt4pairIKcSt6vectorIdSaIdEEEEeqERKS6_
FN:355,_ZNSt8_Rb_treeIcSt4pairIKcSt6vectorIdSaIdEEESt10_Select1stIS5_ESt4lessIcESaIS5_EE21_M_get_Node_allocatorEv
FN:368,_ZNSt8_Rb_treeIcSt4pairIKcSt6vectorIdSaIdEEESt10_Select1stIS5_ESt4lessIcESaIS5_EE11_M_get_nodeEv
FN:372,_ZNSt8_Rb_treeIcSt4pairIKcSt6vectorIdSaIdEEESt10_Select1stIS5_ESt4lessIcESaIS5_EE11_M_put_nodeEPSt13_Rb_tree_nodeIS5_E
FN:400,_ZNSt8_Rb_treeIcSt4pairIKcSt6vectorIdSaIdEEESt10_Select1stIS5_ESt4lessIcESaIS5_EE14_M_create_nodeIIS5_EEEPSt13_Rb_tree_nodeIS5_EDpOT_
FN:400,_ZNSt8_Rb_treeIcSt4pairIKcSt6vectorIdSaIdEEESt10_Select1stIS5_ESt4lessIcESaIS5_EE14_M_create_nodeIIS0_IcS4_EEEEPSt13_Rb_tree_nodeIS5_EDpOT_
FN:400,_ZNSt8_Rb_treeIcSt4pairIKcSt6vectorIdSaIdEEESt10_Select1stIS5_ESt4lessIcESaIS5_EE14_M_create_nodeIIRKS5_EEEPSt13_Rb_tree_nodeIS5_EDpOT_
FN:417,_ZNSt8_Rb_treeIcSt4pairIKcSt6vectorIdSaIdEEESt10_Select1stIS5_ESt4lessIcESaIS5_EE15_M_destroy_nodeEPSt13_Rb_tree_nodeIS5_E
FN:437,_ZNSt8_Rb_treeIcSt4pairIKcSt6vectorIdSaIdEEESt10_Select1stIS5_ESt4lessIcESaIS5_EE13_Rb_tree_implIS9_Lb1EED2Ev
FN:443,_ZNSt8_Rb_treeIcSt4pairIKcSt6vectorIdSaIdEEESt10_Select1stIS5_ESt4lessIcESaIS5_EE13_Rb_tree_implIS9_Lb1EEC2Ev
FN:454,_ZNSt8_Rb_treeIcSt4pairIKcSt6vectorIdSaIdEEESt10_Select1stIS5_ESt4lessIcESaIS5_EE13_Rb_tree_implIS9_Lb1EEC2ERKS9_OSaISt13_Rb_tree_nodeIS5_EE
FN:462,_ZNSt8_Rb_treeIcSt4pairIKcSt6vectorIdSaIdEEESt10_Select1stIS5_ESt4lessIcESaIS5_EE13_Rb_tree_implIS9_Lb1EE13_M_initializeEv
FN:483,_ZNSt8_Rb_treeIcSt4pairIKcSt6vectorIdSaIdEEESt10_Select1stIS5_ESt4lessIcESaIS5_EE11_M_leftmostEv
FN:491,_ZNSt8_Rb_treeIcSt4pairIKcSt6vectorIdSaIdEEESt10_Select1stIS5_ESt4lessIcESaIS5_EE12_M_rightmostEv
FN:499,_ZNSt8_Rb_treeIcSt4pairIKcSt6vectorIdSaIdEEESt10_Select1stIS5_ESt4lessIcESaIS5_EE8_M_beginEv
FN:503,_ZNKSt8_Rb_treeIcSt4pairIKcSt6vectorIdSaIdEEESt10_Select1stIS5_ESt4lessIcESaIS5_EE8_M_beginEv
FN:510,_ZNSt8_Rb_treeIcSt4pairIKcSt6vectorIdSaIdEEESt10_Select1stIS5_ESt4lessIcESaIS5_EE6_M_endEv
FN:514,_ZNKSt8_Rb_treeIcSt4pairIKcSt6vectorIdSaIdEEESt10_Select1stIS5_ESt4lessIcESaIS5_EE6_M_endEv
FN:518,_ZNSt8_Rb_treeIcSt4pairIKcSt6vectorIdSaIdEEESt10_Select1stIS5_ESt4lessIcESaIS5_EE8_S_valueEPKSt13_Rb_tree_nodeIS5_E
FN:522,_ZNSt8_Rb_treeIcSt4pairIKcSt6vectorIdSaIdEEESt10_Select1stIS5_ESt4lessIcESaIS5_EE6_S_keyEPKSt13_Rb_tree_nodeIS5_E
FN:526,_ZNSt8_Rb_treeIcSt4pairIKcSt6vectorIdSaIdEEESt10_Select1stIS5_ESt4lessIcESaIS5_EE7_S_leftEPSt18_Rb_tree_node_base
FN:530,_ZNSt8_Rb_treeIcSt4pairIKcSt6vectorIdSaIdEEESt10_Select1stIS5_ESt4lessIcESaIS5_EE7_S_leftEPKSt18_Rb_tree_node_base
FN:534,_ZNSt8_Rb_treeIcSt4pairIKcSt6vectorIdSaIdEEESt10_Select1stIS5_ESt4lessIcESaIS5_EE8_S_rightEPSt18_Rb_tree_node_base
FN:538,_ZNSt8_Rb_treeIcSt4pairIKcSt6vectorIdSaIdEEESt10_Select1stIS5_ESt4lessIcESaIS5_EE8_S_rightEPKSt18_Rb_tree_node_base
FN:542,_ZNSt8_Rb_treeIcSt4pairIKcSt6vectorIdSaIdEEESt10_Select1stIS5_ESt4lessIcESaIS5_EE8_S_valueEPKSt18_Rb_tree_node_base
FN:546,_ZNSt8_Rb_treeIcSt4pairIKcSt6vectorIdSaIdEEESt10_Select1stIS5_ESt4lessIcESaIS5_EE6_S_keyEPKSt18_Rb_tree_node_base
FN:623,_ZNSt8_Rb_treeIcSt4pairIKcSt6vectorIdSaIdEEESt10_Select1stIS5_ESt4lessIcESaIS5_EEC2Ev
FN:625,_ZNSt8_Rb_treeIcSt4pairIKcSt6vectorIdSaIdEEESt10_Select1stIS5_ESt4lessIcESaIS5_EEC2ERKS9_RKSA_
FN:645,_ZNSt8_Rb_treeIcSt4pairIKcSt6vectorIdSaIdEEESt10_Select1stIS5_ESt4lessIcESaIS5_EED2Ev
FN:653,_ZNKSt8_Rb_treeIcSt4pairIKcSt6vectorIdSaIdEEESt10_Select1stIS5_ESt4lessIcESaIS5_EE8key_compEv
FN:657,_ZNSt8_Rb_treeIcSt4pairIKcSt6vectorIdSaIdEEESt10_Select1stIS5_ESt4lessIcESaIS5_EE5beginEv
FN:671,_ZNSt8_Rb_treeIcSt4pairIKcSt6vectorIdSaIdEEESt10_Select1stIS5_ESt4lessIcESaIS5_EE3endEv
FN:675,_ZNKSt8_Rb_treeIcSt4pairIKcSt6vectorIdSaIdEEESt10_Select1stIS5_ESt4lessIcESaIS5_EE3endEv
FN:702,_ZNKSt8_Rb_treeIcSt4pairIKcSt6vectorIdSaIdEEESt10_Select1stIS5_ESt4lessIcESaIS5_EE4sizeEv
FN:834,_ZNSt8_Rb_treeIcSt4pairIKcSt6vectorIdSaIdEEESt10_Select1stIS5_ESt4lessIcESaIS5_EE11lower_boundERS1_
FN:838,_ZNKSt8_Rb_treeIcSt4pairIKcSt6vectorIdSaIdEEESt10_Select1stIS5_ESt4lessIcESaIS5_EE11lower_boundERS1_
FN:968,_ZNSt8_Rb_treeIcSt4pairIKcSt6vectorIdSaIdEEESt10_Select1stIS5_ESt4lessIcESaIS5_EE10_M_insert_IS5_EESt17_Rb_tree_iteratorIS5_EPKSt18_Rb_tree_node_baseSH_OT_
FN:968,_ZNSt8_Rb_treeIcSt4pairIKcSt6vectorIdSaIdEEESt10_Select1stIS5_ESt4lessIcESaIS5_EE10_M_insert_IS0_IcS4_EEESt17_Rb_tree_iteratorIS5_EPKSt18_Rb_tree_node_baseSI_OT_
FN:968,_ZNSt8_Rb_treeIcSt4pairIKcSt6vectorIdSaIdEEESt10_Select1stIS5_ESt4lessIcESaIS5_EE10_M_insert_IRKS5_EESt17_Rb_tree_iteratorIS5_EPKSt18_Rb_tree_node_baseSJ_OT_
FN:1076,_ZNSt8_Rb_treeIcSt4pairIKcSt6vectorIdSaIdEEESt10_Select1stIS5_ESt4lessIcESaIS5_EE8_M_eraseEPSt13_Rb_tree_nodeIS5_E
FN:1093,_ZNSt8_Rb_treeIcSt4pairIKcSt6vectorIdSaIdEEESt10_Select1stIS5_ESt4lessIcESaIS5_EE14_M_lower_boundEPSt13_Rb_tree_nodeIS5_ESE_RS1_
FN:1109,_ZNKSt8_Rb_treeIcSt4pairIKcSt6vectorIdSaIdEEESt10_Select1stIS5_ESt4lessIcESaIS5_EE14_M_lower_boundEPKSt13_Rb_tree_nodeIS5_ESF_RS1_
FN:1272,_ZNSt8_Rb_treeIcSt4pairIKcSt6vectorIdSaIdEEESt10_Select1stIS5_ESt4lessIcESaIS5_EE16_M_insert_uniqueIS5_EES0_ISt17_Rb_tree_iteratorIS5_EbEOT_
FN:1272,_ZNSt8_Rb_treeIcSt4pairIKcSt6vectorIdSaIdEEESt10_Select1stIS5_ESt4lessIcESaIS5_EE16_M_insert_uniqueIS0_IcS4_EEES0_ISt17_Rb_tree_iteratorIS5_EbEOT_
FN:1272,_ZNSt8_Rb_treeIcSt4pairIKcSt6vectorIdSaIdEEESt10_Select1stIS5_ESt4lessIcESaIS5_EE16_M_insert_uniqueIRKS5_EES0_ISt17_Rb_tree_iteratorIS5_EbEOT_
FN:1333,_ZNSt8_Rb_treeIcSt4pairIKcSt6vectorIdSaIdEEESt10_Select1stIS5_ESt4lessIcESaIS5_EE17_M_insert_unique_IS5_EESt17_Rb_tree_iteratorIS5_ESt23_Rb_tree_const_iteratorIS5_EOT_
FN:1333,_ZNSt8_Rb_treeIcSt4pairIKcSt6vectorIdSaIdEEESt10_Select1stIS5_ESt4lessIcESaIS5_EE17_M_insert_unique_IS0_IcS4_EEESt17_Rb_tree_iteratorIS5_ESt23_Rb_tree_const_iteratorIS5_EOT_
FN:1333,_ZNSt8_Rb_treeIcSt4pairIKcSt6vectorIdSaIdEEESt10_Select1stIS5_ESt4lessIcESaIS5_EE17_M_insert_unique_IRKS5_EESt17_Rb_tree_iteratorIS5_ESt23_Rb_tree_const_iteratorIS5_EOT_
FN:1470,_ZNSt8_Rb_treeIcSt4pairIKcSt6vectorIdSaIdEEESt10_Select1stIS5_ESt4lessIcESaIS5_EE16_M_insert_uniqueIPKS5_EEvT_SF_
FN:1541,_ZNSt8_Rb_treeIcSt4pairIKcSt6vectorIdSaIdEEESt10_Select1stIS5_ESt4lessIcESaIS5_EE4findERS1_
FNDA:884,_ZNSt13_Rb_tree_nodeISt4pairIKcSt6vectorIdSaIdEEEED2Ev
FNDA:560,_ZNSt13_Rb_tree_nodeISt4pairIKcSt6vectorIdSaIdEEEEC2IIS5_EEEDpOT_
FNDA:72,_ZNSt13_Rb_tree_nodeISt4pairIKcSt6vectorIdSaIdEEEEC2IIS0_IcS4_EEEEDpOT_
FNDA:252,_ZNSt13_Rb_tree_nodeISt4pairIKcSt6vectorIdSaIdEEEEC2IIRKS5_EEEDpOT_
FNDA:32348,_ZNSt17_Rb_tree_iteratorISt4pairIKcSt6vectorIdSaIdEEEEC2EPSt13_Rb_tree_nodeIS5_E
FNDA:32928,_ZNKSt17_Rb_tree_iteratorISt4pairIKcSt6vectorIdSaIdEEEEdeEv
FNDA:4080,_ZNSt17_Rb_tree_iteratorISt4pairIKcSt6vectorIdSaIdEEEEppEv
FNDA:76,_ZNSt17_Rb_tree_iteratorISt4pairIKcSt6vectorIdSaIdEEEEmmEv
FNDA:15100,_ZNKSt17_Rb_tree_iteratorISt4pairIKcSt6vectorIdSaIdEEEEeqERKS6_
FNDA:4708,_ZNKSt17_Rb_tree_iteratorISt4pairIKcSt6vectorIdSaIdEEEEneERKS6_
FNDA:9628,_ZNSt23_Rb_tree_const_iteratorISt4pairIKcSt6vectorIdSaIdEEEEC2EPKSt13_Rb_tree_nodeIS5_E
FNDA:884,_ZNSt23_Rb_tree_const_iteratorISt4pairIKcSt6vectorIdSaIdEEEEC2ERKSt17_Rb_tree_iteratorIS5_E
FNDA:0,_ZNKSt23_Rb_tree_const_iteratorISt4pairIKcSt6vectorIdSaIdEEEE13_M_const_castEv
FNDA:9592,_ZNKSt23_Rb_tree_const_iteratorISt4pairIKcSt6vectorIdSaIdEEEEdeEv
FNDA:0,_ZNSt23_Rb_tree_const_iteratorISt4pairIKcSt6vectorIdSaIdEEEEppEv
FNDA:440,_ZNSt23_Rb_tree_const_iteratorISt4pairIKcSt6vectorIdSaIdEEEEmmEv
FNDA:4796,_ZNKSt23_Rb_tree_const_iteratorISt4pairIKcSt6vectorIdSaIdEEEEeqERKS6_
FNDA:1784,_ZNSt8_Rb_treeIcSt4pairIKcSt6vectorIdSaIdEEESt10_Select1stIS5_ESt4lessIcESaIS5_EE21_M_get_Node_allocatorEv
FNDA:884,_ZNSt8_Rb_treeIcSt4pairIKcSt6vectorIdSaIdEEESt10_Select1stIS5_ESt4lessIcESaIS5_EE11_M_get_nodeEv
FNDA:884,_ZNSt8_Rb_treeIcSt4pairIKcSt6vectorIdSaIdEEESt10_Select1stIS5_ESt4lessIcESaIS5_EE11_M_put_nodeEPSt13_Rb_tree_nodeIS5_E
FNDA:560,_ZNSt8_Rb_treeIcSt4pairIKcSt6vectorIdSaIdEEESt10_Select1stIS5_ESt4lessIcESaIS5_EE14_M_create_nodeIIS5_EEEPSt13_Rb_tree_nodeIS5_EDpOT_
FNDA:72,_ZNSt8_Rb_treeIcSt4pairIKcSt6vectorIdSaIdEEESt10_Select1stIS5_ESt4lessIcESaIS5_EE14_M_create_nodeIIS0_IcS4_EEEEPSt13_Rb_tree_nodeIS5_EDpOT_
FNDA:252,_ZNSt8_Rb_treeIcSt4pairIKcSt6vectorIdSaIdEEESt10_Select1stIS5_ESt4lessIcESaIS5_EE14_M_create_nodeIIRKS5_EEEPSt13_Rb_tree_nodeIS5_EDpOT_
FNDA:884,_ZNSt8_Rb_treeIcSt4pairIKcSt6vectorIdSaIdEEESt10_Select1stIS5_ESt4lessIcESaIS5_EE15_M_destroy_nodeEPSt13_Rb_tree_nodeIS5_E
FNDA:40,_ZNSt8_Rb_treeIcSt4pairIKcSt6vectorIdSaIdEEESt10_Select1stIS5_ESt4lessIcESaIS5_EE13_Rb_tree_implIS9_Lb1EED2Ev
FNDA:32,_ZNSt8_Rb_treeIcSt4pairIKcSt6vectorIdSaIdEEESt10_Select1stIS5_ESt4lessIcESaIS5_EE13_Rb_tree_implIS9_Lb1EEC2Ev
FNDA:8,_ZNSt8_Rb_treeIcSt4pairIKcSt6vectorIdSaIdEEESt10_Select1stIS5_ESt4lessIcESaIS5_EE13_Rb_tree_implIS9_Lb1EEC2ERKS9_OSaISt13_Rb_tree_nodeIS5_EE
FNDA:40,_ZNSt8_Rb_treeIcSt4pairIKcSt6vectorIdSaIdEEESt10_Select1stIS5_ESt4lessIcESaIS5_EE13_Rb_tree_implIS9_Lb1EE13_M_initializeEv
FNDA:476,_ZNSt8_Rb_treeIcSt4pairIKcSt6vectorIdSaIdEEESt10_Select1stIS5_ESt4lessIcESaIS5_EE11_M_leftmostEv
FNDA:668,_ZNSt8_Rb_treeIcSt4pairIKcSt6vectorIdSaIdEEESt10_Select1stIS5_ESt4lessIcESaIS5_EE12_M_rightmostEv
FNDA:15252,_ZNSt8_Rb_treeIcSt4pairIKcSt6vectorIdSaIdEEESt10_Select1stIS5_ESt4lessIcESaIS5_EE8_M_beginEv
FNDA:4796,_ZNKSt8_Rb_treeIcSt4pairIKcSt6vectorIdSaIdEEESt10_Select1stIS5_ESt4lessIcESaIS5_EE8_M_beginEv
FNDA:16824,_ZNSt8_Rb_treeIcSt4pairIKcSt6vectorIdSaIdEEESt10_Select1stIS5_ESt4lessIcESaIS5_EE6_M_endEv
FNDA:4796,_ZNKSt8_Rb_treeIcSt4pairIKcSt6vectorIdSaIdEEESt10_Select1stIS5_ESt4lessIcESaIS5_EE6_M_endEv
FNDA:94514,_ZNSt8_Rb_treeIcSt4pairIKcSt6vectorIdSaIdEEESt10_Select1stIS5_ESt4lessIcESaIS5_EE8_S_valueEPKSt13_Rb_tree_nodeIS5_E
FNDA:94514,_ZNSt8_Rb_treeIcSt4pairIKcSt6vectorIdSaIdEEESt10_Select1stIS5_ESt4lessIcESaIS5_EE6_S_keyEPKSt13_Rb_tree_nodeIS5_E
FNDA:33276,_ZNSt8_Rb_treeIcSt4pairIKcSt6vectorIdSaIdEEESt10_Select1stIS5_ESt4lessIcESaIS5_EE7_S_leftEPSt18_Rb_tree_node_base
FNDA:10840,_ZNSt8_Rb_treeIcSt4pairIKcSt6vectorIdSaIdEEESt10_Select1stIS5_ESt4lessIcESaIS5_EE7_S_leftEPKSt18_Rb_tree_node_base
FNDA:41814,_ZNSt8_Rb_treeIcSt4pairIKcSt6vectorIdSaIdEEESt10_Select1stIS5_ESt4lessIcESaIS5_EE8_S_rightEPSt18_Rb_tree_node_base
FNDA:10792,_ZNSt8_Rb_treeIcSt4pairIKcSt6vectorIdSaIdEEESt10_Select1stIS5_ESt4lessIcESaIS5_EE8_S_rightEPKSt18_Rb_tree_node_base
FNDA:2536,_ZNSt8_Rb_treeIcSt4pairIKcSt6vectorIdSaIdEEESt10_Select1stIS5_ESt4lessIcESaIS5_EE8_S_valueEPKSt18_Rb_tree_node_base
FNDA:2536,_ZNSt8_Rb_treeIcSt4pairIKcSt6vectorIdSaIdEEESt10_Select1stIS5_ESt4lessIcESaIS5_EE6_S_keyEPKSt18_Rb_tree_node_base
FNDA:32,_ZNSt8_Rb_treeIcSt4pairIKcSt6vectorIdSaIdEEESt10_Select1stIS5_ESt4lessIcESaIS5_EEC2Ev
FNDA:8,_ZNSt8_Rb_treeIcSt4pairIKcSt6vectorIdSaIdEEESt10_Select1stIS5_ESt4lessIcESaIS5_EEC2ERKS9_RKSA_
FNDA:40,_ZNSt8_Rb_treeIcSt4pairIKcSt6vectorIdSaIdEEESt10_Select1stIS5_ESt4lessIcESaIS5_EED2Ev
FNDA:19164,_ZNKSt8_Rb_treeIcSt4pairIKcSt6vectorIdSaIdEEESt10_Select1stIS5_ESt4lessIcESaIS5_EE8key_compEv
FNDA:320,_ZNSt8_Rb_treeIcSt4pairIKcSt6vectorIdSaIdEEESt10_Select1stIS5_ESt4lessIcESaIS5_EE5beginEv
FNDA:15944,_ZNSt8_Rb_treeIcSt4pairIKcSt6vectorIdSaIdEEESt10_Select1stIS5_ESt4lessIcESaIS5_EE3endEv
FNDA:4796,_ZNKSt8_Rb_treeIcSt4pairIKcSt6vectorIdSaIdEEESt10_Select1stIS5_ESt4lessIcESaIS5_EE3endEv
FNDA:463,_ZNKSt8_Rb_treeIcSt4pairIKcSt6vectorIdSaIdEEESt10_Select1stIS5_ESt4lessIcESaIS5_EE4sizeEv
FNDA:14560,_ZNSt8_Rb_treeIcSt4pairIKcSt6vectorIdSaIdEEESt10_Select1stIS5_ESt4lessIcESaIS5_EE11lower_boundERS1_
FNDA:4796,_ZNKSt8_Rb_treeIcSt4pairIKcSt6vectorIdSaIdEEESt10_Select1stIS5_ESt4lessIcESaIS5_EE11lower_boundERS1_
FNDA:560,_ZNSt8_Rb_treeIcSt4pairIKcSt6vectorIdSaIdEEESt10_Select1stIS5_ESt4lessIcESaIS5_EE10_M_insert_IS5_EESt17_Rb_tree_iteratorIS5_EPKSt18_Rb_tree_node_baseSH_OT_
FNDA:72,_ZNSt8_Rb_treeIcSt4pairIKcSt6vectorIdSaIdEEESt10_Select1stIS5_ESt4lessIcESaIS5_EE10_M_insert_IS0_IcS4_EEESt17_Rb_tree_iteratorIS5_EPKSt18_Rb_tree_node_baseSI_OT_
FNDA:252,_ZNSt8_Rb_treeIcSt4pairIKcSt6vectorIdSaIdEEESt10_Select1stIS5_ESt4lessIcESaIS5_EE10_M_insert_IRKS5_EESt17_Rb_tree_iteratorIS5_EPKSt18_Rb_tree_node_baseSJ_OT_
FNDA:936,_ZNSt8_Rb_treeIcSt4pairIKcSt6vectorIdSaIdEEESt10_Select1stIS5_ESt4lessIcESaIS5_EE8_M_eraseEPSt13_Rb_tree_nodeIS5_E
FNDA:14984,_ZNSt8_Rb_treeIcSt4pairIKcSt6vectorIdSaIdEEESt10_Select1stIS5_ESt4lessIcESaIS5_EE14_M_lower_boundEPSt13_Rb_tree_nodeIS5_ESE_RS1_
FNDA:4796,_ZNKSt8_Rb_treeIcSt4pairIKcSt6vectorIdSaIdEEESt10_Select1stIS5_ESt4lessIcESaIS5_EE14_M_lower_boundEPKSt13_Rb_tree_nodeIS5_ESF_RS1_
FNDA:28,_ZNSt8_Rb_treeIcSt4pairIKcSt6vectorIdSaIdEEESt10_Select1stIS5_ESt4lessIcESaIS5_EE16_M_insert_uniqueIS5_EES0_ISt17_Rb_tree_iteratorIS5_EbEOT_
FNDA:0,_ZNSt8_Rb_treeIcSt4pairIKcSt6vectorIdSaIdEEESt10_Select1stIS5_ESt4lessIcESaIS5_EE16_M_insert_uniqueIS0_IcS4_EEES0_ISt17_Rb_tree_iteratorIS5_EbEOT_
FNDA:188,_ZNSt8_Rb_treeIcSt4pairIKcSt6vectorIdSaIdEEESt10_Select1stIS5_ESt4lessIcESaIS5_EE16_M_insert_uniqueIRKS5_EES0_ISt17_Rb_tree_iteratorIS5_EbEOT_
FNDA:560,_ZNSt8_Rb_treeIcSt4pairIKcSt6vectorIdSaIdEEESt10_Select1stIS5_ESt4lessIcESaIS5_EE17_M_insert_unique_IS5_EESt17_Rb_tree_iteratorIS5_ESt23_Rb_tree_const_iteratorIS5_EOT_
FNDA:72,_ZNSt8_Rb_treeIcSt4pairIKcSt6vectorIdSaIdEEESt10_Select1stIS5_ESt4lessIcESaIS5_EE17_M_insert_unique_IS0_IcS4_EEESt17_Rb_tree_iteratorIS5_ESt23_Rb_tree_const_iteratorIS5_EOT_
FNDA:252,_ZNSt8_Rb_treeIcSt4pairIKcSt6vectorIdSaIdEEESt10_Select1stIS5_ESt4lessIcESaIS5_EE17_M_insert_unique_IRKS5_EESt17_Rb_tree_iteratorIS5_ESt23_Rb_tree_const_iteratorIS5_EOT_
FNDA:12,_ZNSt8_Rb_treeIcSt4pairIKcSt6vectorIdSaIdEEESt10_Select1stIS5_ESt4lessIcESaIS5_EE16_M_insert_uniqueIPKS5_EEvT_SF_
FNDA:424,_ZNSt8_Rb_treeIcSt4pairIKcSt6vectorIdSaIdEEESt10_Select1stIS5_ESt4lessIcESaIS5_EE4findERS1_
FNF:66
FNH:63
DA:130,884
DA:137,884
DA:139,884
DA:173,32348
DA:174,32348
DA:177,32928
DA:178,32928
DA:186,4080
DA:188,4080
DA:189,4080
DA:201,76
DA:203,76
DA:204,76
DA:216,15100
DA:217,15100
DA:220,4708
DA:221,4708
DA:246,9628
DA:247,9628
DA:249,884
DA:250,884
DA:253,0
DA:255,0
DA:258,9592
DA:259,9592
DA:267,0
DA:269,0
DA:270,0
DA:282,440
DA:284,440
DA:285,440
DA:297,4796
DA:298,4796
DA:355,1784
DA:356,1784
DA:368,884
DA:369,884
DA:372,884
DA:373,884
DA:400,884
DA:402,884
DA:405,884
DA:408,0
DA:410,0
DA:411,0
DA:413,884
DA:417,884
DA:419,884
DA:420,884
DA:421,884
DA:437,40
DA:443,32
DA:445,32
DA:446,32
DA:454,8
DA:456,8
DA:457,8
DA:462,40
DA:464,40
DA:465,40
DA:466,40
DA:467,40
DA:468,40
DA:483,476
DA:484,476
DA:491,668
DA:492,668
DA:499,15252
DA:500,15252
DA:503,4796
DA:506,4796
DA:510,16824
DA:511,16824
DA:514,4796
DA:515,4796
DA:518,94514
DA:519,94514
DA:522,94514
DA:523,94514
DA:526,33276
DA:527,33276
DA:530,10840
DA:531,10840
DA:534,41814
DA:535,41814
DA:538,10792
DA:539,10792
DA:542,2536
DA:543,2536
DA:546,2536
DA:547,2536
DA:623,32
DA:625,8
DA:627,8
DA:645,40
DA:646,40
DA:653,19164
DA:654,19164
DA:657,320
DA:660,320
DA:671,15944
DA:672,15944
DA:675,4796
DA:678,4796
DA:702,463
DA:703,463
DA:834,14560
DA:835,14560
DA:838,4796
DA:839,4796
DA:968,884
DA:977,884
DA:979,884
DA:981,884
DA:984,884
DA:985,884
DA:1076,936
DA:1080,2756
DA:1082,884
DA:1083,884
DA:1084,884
DA:1085,884
DA:1087,936
DA:1093,14984
DA:1097,102618
DA:1098,72650
DA:1099,32148
DA:1101,40502
DA:1102,14984
DA:1109,4796
DA:1113,30784
DA:1114,21192
DA:1115,10840
DA:1117,10352
DA:1118,4796
DA:1272,216
DA:1279,216
DA:1280,216
DA:1281,216
DA:1282,1104
DA:1284,672
DA:1285,672
DA:1286,672
DA:1288,216
DA:1289,216
DA:1291,116
DA:1293,40
DA:1295,76
DA:1297,176
DA:1299,176
DA:1300,0
DA:1333,884
DA:1341,884
DA:1343,444
DA:1346,228
DA:1348,216
DA:1350,440
DA:1354,440
DA:1355,440
DA:1357,0
DA:1358,440
DA:1361,440
DA:1363,248
DA:1367,192
DA:1370,0
DA:1372,0
DA:1376,0
DA:1377,0
DA:1379,0
DA:1380,0
DA:1383,0
DA:1385,0
DA:1388,0
DA:1391,0
DA:1395,0
DA:1470,12
DA:1473,264
DA:1474,252
DA:1475,12
DA:1541,424
DA:1544,424
DA:1547,424
LF:182
LH:161
end_of_record
SF:/usr/include/c++/4.7.2/bits/stl_uninitialized.h
FN:93,_ZNSt20__uninitialized_copyILb1EE13__uninit_copyIPKcPcEET0_T_S6_S5_
FN:93,_ZNSt20__uninitialized_copyILb1EE13__uninit_copyIN9__gnu_cxx17__normal_iteratorIPKdSt6vectorIdSaIdEEEEPdEET0_T_SC_SB_
FN:93,_ZNSt20__uninitialized_copyILb1EE13__uninit_copyIPKdPdEET0_T_S6_S5_
FN:109,_ZSt18uninitialized_copyIPKdPdET0_T_S4_S3_
FN:109,_ZSt18uninitialized_copyIPKcPcET0_T_S4_S3_
FN:109,_ZSt18uninitialized_copyIN9__gnu_cxx17__normal_iteratorIPKdSt6vectorIdSaIdEEEEPdET0_T_SA_S9_
FN:204,_ZNSt22__uninitialized_fill_nILb1EE15__uninit_fill_nIPdmdEEvT_T0_RKT1_
FN:220,_ZSt20uninitialized_fill_nIPdmdEvT_T0_RKT1_
FN:258,_ZSt22__uninitialized_copy_aIN9__gnu_cxx17__normal_iteratorIPKdSt6vectorIdSaIdEEEEPddET0_T_SA_S9_RSaIT1_E
FN:258,_ZSt22__uninitialized_copy_aIPKdPddET0_T_S4_S3_RSaIT1_E
FN:258,_ZSt22__uninitialized_copy_aIPKcPccET0_T_S4_S3_RSaIT1_E
FN:334,_ZSt24__uninitialized_fill_n_aIPdmddEvT_T0_RKT1_RSaIT2_E
FNDA:404,_ZNSt20__uninitialized_copyILb1EE13__uninit_copyIPKdPdEET0_T_S6_S5_
FNDA:8,_ZNSt20__uninitialized_copyILb1EE13__uninit_copyIPKcPcEET0_T_S6_S5_
FNDA:0,_ZNSt20__uninitialized_copyILb1EE13__uninit_copyIN9__gnu_cxx17__normal_iteratorIPKdSt6vectorIdSaIdEEEEPdEET0_T_SC_SB_
FNDA:404,_ZSt18uninitialized_copyIPKdPdET0_T_S4_S3_
FNDA:8,_ZSt18uninitialized_copyIPKcPcET0_T_S4_S3_
FNDA:0,_ZSt18uninitialized_copyIN9__gnu_cxx17__normal_iteratorIPKdSt6vectorIdSaIdEEEEPdET0_T_SA_S9_
FNDA:0,_ZNSt22__uninitialized_fill_nILb1EE15__uninit_fill_nIPdmdEEvT_T0_RKT1_
FNDA:0,_ZSt20uninitialized_fill_nIPdmdEvT_T0_RKT1_
FNDA:404,_ZSt22__uninitialized_copy_aIPKdPddET0_T_S4_S3_RSaIT1_E
FNDA:8,_ZSt22__uninitialized_copy_aIPKcPccET0_T_S4_S3_RSaIT1_E
FNDA:0,_ZSt22__uninitialized_copy_aIN9__gnu_cxx17__normal_iteratorIPKdSt6vectorIdSaIdEEEEPddET0_T_SA_S9_RSaIT1_E
FNDA:0,_ZSt24__uninitialized_fill_n_aIPdmddEvT_T0_RKT1_RSaIT2_E
FNF:12
FNH:6
DA:93,412
DA:95,412
DA:109,412
DA:119,412
DA:204,0
DA:206,0
DA:220,0
DA:225,0
DA:227,0
DA:258,412
DA:260,412
DA:334,0
DA:336,0
LF:13
LH:6
end_of_record
SF:/usr/include/c++/4.7.2/bits/stl_vector.h
FN:80,_ZNSt12_Vector_baseIdSaIdEE12_Vector_implD2Ev
FN:80,_ZNSt12_Vector_baseIcSaIcEE12_Vector_implD2Ev
FN:87,_ZNSt12_Vector_baseIdSaIdEE12_Vector_implC2Ev
FN:91,_ZNSt12_Vector_baseIdSaIdEE12_Vector_implC2ERKS0_
FN:91,_ZNSt12_Vector_baseIcSaIcEE12_Vector_implC2ERKS0_
FN:96,_ZNSt12_Vector_baseIdSaIdEE12_Vector_implC2EOS0_
FN:102,_ZNSt12_Vector_baseIdSaIdEE12_Vector_impl12_M_swap_dataERS2_
FN:114,_ZNSt12_Vector_baseIdSaIdEE19_M_get_Tp_allocatorEv
FN:114,_ZNSt12_Vector_baseIcSaIcEE19_M_get_Tp_allocatorEv
FN:118,_ZNKSt12_Vector_baseIdSaIdEE19_M_get_Tp_allocatorEv
FN:125,_ZNSt12_Vector_baseIdSaIdEEC2Ev
FN:128,_ZNSt12_Vector_baseIcSaIcEEC2ERKS0_
FN:128,_ZNSt12_Vector_baseIdSaIdEEC2ERKS0_
FN:135,_ZNSt12_Vector_baseIdSaIdEEC2EmRKS0_
FN:143,_ZNSt12_Vector_baseIdSaIdEEC2EOS1_
FN:160,_ZNSt12_Vector_baseIcSaIcEED2Ev
FN:160,_ZNSt12_Vector_baseIdSaIdEED2Ev
FN:168,_ZNSt12_Vector_baseIdSaIdEE11_M_allocateEm
FN:168,_ZNSt12_Vector_baseIcSaIcEE11_M_allocateEm
FN:172,_ZNSt12_Vector_baseIdSaIdEE13_M_deallocateEPdm
FN:172,_ZNSt12_Vector_baseIcSaIcEE13_M_deallocateEPcm
FN:180,_ZNSt12_Vector_baseIdSaIdEE17_M_create_storageEm
FN:246,_ZNSt6vectorIdSaIdEEC2Ev
FN:278,_ZNSt6vectorIdSaIdEEC2EmRKdRKS0_
FN:307,_ZNSt6vectorIdSaIdEEC2ERKS1_
FN:324,_ZNSt6vectorIdSaIdEEC2EOS1_
FN:361,_ZNSt6vectorIcSaIcEEC2ESt16initializer_listIcERKS0_
FN:361,_ZNSt6vectorIdSaIdEEC2ESt16initializer_listIdERKS0_
FN:402,_ZNSt6vectorIdSaIdEED2Ev
FN:402,_ZNSt6vectorIcSaIcEED2Ev
FN:427,_ZNSt6vectorIdSaIdEEaSEOS1_
FN:518,_ZNSt6vectorIdSaIdEE5beginEv
FN:527,_ZNKSt6vectorIcSaIcEE5beginEv
FN:527,_ZNKSt6vectorIdSaIdEE5beginEv
FN:536,_ZNSt6vectorIdSaIdEE3endEv
FN:545,_ZNKSt6vectorIdSaIdEE3endEv
FN:545,_ZNKSt6vectorIcSaIcEE3endEv
FN:625,_ZNKSt6vectorIN5fasta7ResidueESaIS1_EE4sizeEv
FN:625,_ZNKSt6vectorIcSaIcEE4sizeEv
FN:625,_ZNKSt6vectorIN5fasta8SequenceESaIS1_EE4sizeEv
FN:625,_ZNKSt6vectorIdSaIdEE4sizeEv
FN:750,_ZNSt6vectorIdSaIdEEixEm
FN:765,_ZNKSt6vectorIN5fasta8SequenceESaIS1_EEixEm
FN:765,_ZNKSt6vectorIN5fasta7ResidueESaIS1_EEixEm
FN:765,_ZNKSt6vectorIcSaIcEEixEm
FN:1164,_ZNSt6vectorIcSaIcEE19_M_range_initializeIPKcEEvT_S5_St20forward_iterator_tag
FN:1164,_ZNSt6vectorIdSaIdEE19_M_range_initializeIPKdEEvT_S5_St20forward_iterator_tag
FN:1179,_ZNSt6vectorIdSaIdEE18_M_fill_initializeEmRKd
FN:1329,_ZNSt6vectorIdSaIdEE14_M_move_assignEOS1_St17integral_constantIbLb1EE
FNDA:0,_ZNSt12_Vector_baseIdSaIdEE12_Vector_implD2Ev
FNDA:8,_ZNSt12_Vector_baseIcSaIcEE12_Vector_implD2Ev
FNDA:0,_ZNSt12_Vector_baseIdSaIdEE12_Vector_implC2Ev
FNDA:0,_ZNSt12_Vector_baseIdSaIdEE12_Vector_implC2ERKS0_
FNDA:8,_ZNSt12_Vector_baseIcSaIcEE12_Vector_implC2ERKS0_
FNDA:0,_ZNSt12_Vector_baseIdSaIdEE12_Vector_implC2EOS0_
FNDA:0,_ZNSt12_Vector_baseIdSaIdEE12_Vector_impl12_M_swap_dataERS2_
FNDA:0,_ZNSt12_Vector_baseIdSaIdEE19_M_get_Tp_allocatorEv
FNDA:16,_ZNSt12_Vector_baseIcSaIcEE19_M_get_Tp_allocatorEv
FNDA:0,_ZNKSt12_Vector_baseIdSaIdEE19_M_get_Tp_allocatorEv
FNDA:0,_ZNSt12_Vector_baseIdSaIdEEC2Ev
FNDA:424,_ZNSt12_Vector_baseIdSaIdEEC2ERKS0_
FNDA:8,_ZNSt12_Vector_baseIcSaIcEEC2ERKS0_
FNDA:0,_ZNSt12_Vector_baseIdSaIdEEC2EmRKS0_
FNDA:0,_ZNSt12_Vector_baseIdSaIdEEC2EOS1_
FNDA:0,_ZNSt12_Vector_baseIdSaIdEED2Ev
FNDA:8,_ZNSt12_Vector_baseIcSaIcEED2Ev
FNDA:0,_ZNSt12_Vector_baseIdSaIdEE11_M_allocateEm
FNDA:8,_ZNSt12_Vector_baseIcSaIcEE11_M_allocateEm
FNDA:0,_ZNSt12_Vector_baseIdSaIdEE13_M_deallocateEPdm
FNDA:8,_ZNSt12_Vector_baseIcSaIcEE13_M_deallocateEPcm
FNDA:0,_ZNSt12_Vector_baseIdSaIdEE17_M_create_storageEm
FNDA:0,_ZNSt6vectorIdSaIdEEC2Ev
FNDA:0,_ZNSt6vectorIdSaIdEEC2EmRKdRKS0_
FNDA:0,_ZNSt6vectorIdSaIdEEC2ERKS1_
FNDA:0,_ZNSt6vectorIdSaIdEEC2EOS1_
FNDA:404,_ZNSt6vectorIdSaIdEEC2ESt16initializer_listIdERKS0_
FNDA:8,_ZNSt6vectorIcSaIcEEC2ESt16initializer_listIcERKS0_
FNDA:0,_ZNSt6vectorIdSaIdEED2Ev
FNDA:8,_ZNSt6vectorIcSaIcEED2Ev
FNDA:0,_ZNSt6vectorIdSaIdEEaSEOS1_
FNDA:0,_ZNSt6vectorIdSaIdEE5beginEv
FNDA:0,_ZNKSt6vectorIdSaIdEE5beginEv
FNDA:176,_ZNKSt6vectorIcSaIcEE5beginEv
FNDA:0,_ZNSt6vectorIdSaIdEE3endEv
FNDA:0,_ZNKSt6vectorIdSaIdEE3endEv
FNDA:176,_ZNKSt6vectorIcSaIcEE3endEv
FNDA:0,_ZNKSt6vectorIN5fasta7ResidueESaIS1_EE4sizeEv
FNDA:4372,_ZNKSt6vectorIcSaIcEE4sizeEv
FNDA:0,_ZNKSt6vectorIdSaIdEE4sizeEv
FNDA:0,_ZNKSt6vectorIN5fasta8SequenceESaIS1_EE4sizeEv
FNDA:0,_ZNSt6vectorIdSaIdEEixEm
FNDA:0,_ZNKSt6vectorIN5fasta7ResidueESaIS1_EEixEm
FNDA:0,_ZNKSt6vectorIN5fasta8SequenceESaIS1_EEixEm
FNDA:4000,_ZNKSt6vectorIcSaIcEEixEm
FNDA:404,_ZNSt6vectorIdSaIdEE19_M_range_initializeIPKdEEvT_S5_St20forward_iterator_tag
FNDA:8,_ZNSt6vectorIcSaIcEE19_M_range_initializeIPKcEEvT_S5_St20forward_iterator_tag
FNDA:0,_ZNSt6vectorIdSaIdEE18_M_fill_initializeEmRKd
FNDA:0,_ZNSt6vectorIdSaIdEE14_M_move_assignEOS1_St17integral_constantIbLb1EE
FNF:49
FNH:17
DA:80,8
DA:87,0
DA:88,0
DA:89,0
DA:91,8
DA:92,8
DA:93,8
DA:96,0
DA:98,0
DA:99,0
DA:102,0
DA:104,0
DA:105,0
DA:106,0
DA:107,0
DA:114,16
DA:115,16
DA:118,0
DA:119,0
DA:125,0
DA:126,0
DA:128,432
DA:129,432
DA:135,0
DA:136,0
DA:137,0
DA:143,0
DA:144,0
DA:145,0
DA:160,8
DA:161,8
DA:162,8
DA:168,8
DA:169,8
DA:172,8
DA:174,8
DA:175,8
DA:176,8
DA:180,0
DA:182,0
DA:183,0
DA:184,0
DA:185,0
DA:246,0
DA:247,0
DA:278,0
DA:280,0
DA:281,0
DA:307,0
DA:309,0
DA:310,0
DA:314,0
DA:324,0
DA:325,0
DA:361,412
DA:363,412
DA:365,412
DA:367,412
DA:402,8
DA:403,8
DA:404,8
DA:427,0
DA:431,0
DA:432,0
DA:434,0
DA:518,0
DA:519,0
DA:527,176
DA:528,176
DA:536,0
DA:537,0
DA:545,176
DA:546,176
DA:625,4372
DA:626,4372
DA:750,0
DA:751,0
DA:765,4000
DA:766,4000
DA:1164,412
DA:1167,412
DA:1168,412
DA:1169,412
DA:1170,412
DA:1174,412
DA:1179,0
DA:1181,0
DA:1183,0
DA:1184,0
DA:1329,0
DA:1331,0
DA:1332,0
DA:1333,0
DA:1334,0
DA:1336,0
LF:95
LH:38
end_of_record
SF:/usr/include/c++/4.7.2/ext/alloc_traits.h
FN:153,_ZN9__gnu_cxx14__alloc_traitsISaIdEE17_S_select_on_copyERKS1_
FN:162,_ZN9__gnu_cxx14__alloc_traitsISaIdEE27_S_propagate_on_move_assignEv
FNDA:0,_ZN9__gnu_cxx14__alloc_traitsISaIdEE17_S_select_on_copyERKS1_
FNDA:0,_ZN9__gnu_cxx14__alloc_traitsISaIdEE27_S_propagate_on_move_assignEv
FNF:2
FNH:0
DA:153,0
DA:154,0
DA:162,0
DA:163,0
LF:4
LH:0
end_of_record
SF:/usr/include/c++/4.7.2/ext/new_allocator.h
FN:69,_ZN9__gnu_cxx13new_allocatorISt13_Rb_tree_nodeISt4pairIKcSt6vectorIdSaIdEEEEEC2Ev
FN:69,_ZN9__gnu_cxx13new_allocatorISt4pairIKcSt6vectorIdSaIdEEEEC2Ev
FN:69,_ZN9__gnu_cxx13new_allocatorIcEC2Ev
FN:69,_ZN9__gnu_cxx13new_allocatorIdEC2Ev
FN:71,_ZN9__gnu_cxx13new_allocatorIdEC2ERKS1_
FN:71,_ZN9__gnu_cxx13new_allocatorISt4pairIKcSt6vectorIdSaIdEEEEC2ERKS7_
FN:71,_ZN9__gnu_cxx13new_allocatorISt13_Rb_tree_nodeISt4pairIKcSt6vectorIdSaIdEEEEEC2ERKS9_
FN:71,_ZN9__gnu_cxx13new_allocatorIcEC2ERKS1_
FN:76,_ZN9__gnu_cxx13new_allocatorIdED2Ev
FN:76,_ZN9__gnu_cxx13new_allocatorIcED2Ev
FN:76,_ZN9__gnu_cxx13new_allocatorISt4pairIKcSt6vectorIdSaIdEEEED2Ev
FN:76,_ZN9__gnu_cxx13new_allocatorISt13_Rb_tree_nodeISt4pairIKcSt6vectorIdSaIdEEEEED2Ev
FN:89,_ZN9__gnu_cxx13new_allocatorIcE8allocateEmPKv
FN:89,_ZN9__gnu_cxx13new_allocatorISt13_Rb_tree_nodeISt4pairIKcSt6vectorIdSaIdEEEEE8allocateEmPKv
FN:89,_ZN9__gnu_cxx13new_allocatorIdE8allocateEmPKv
FN:99,_ZN9__gnu_cxx13new_allocatorIcE10deallocateEPcm
FN:99,_ZN9__gnu_cxx13new_allocatorIdE10deallocateEPdm
FN:99,_ZN9__gnu_cxx13new_allocatorISt13_Rb_tree_nodeISt4pairIKcSt6vectorIdSaIdEEEEE10deallocateEPS8_m
FN:103,_ZNK9__gnu_cxx13new_allocatorIdE8max_sizeEv
FN:103,_ZNK9__gnu_cxx13new_allocatorIcE8max_sizeEv
FN:103,_ZNK9__gnu_cxx13new_allocatorISt13_Rb_tree_nodeISt4pairIKcSt6vectorIdSaIdEEEEE8max_sizeEv
FN:109,_ZN9__gnu_cxx13new_allocatorISt13_Rb_tree_nodeISt4pairIKcSt6vectorIdSaIdEEEEE9constructIS8_IS7_EEEvPT_DpOT0_
FN:109,_ZN9__gnu_cxx13new_allocatorISt13_Rb_tree_nodeISt4pairIKcSt6vectorIdSaIdEEEEE9constructIS8_IRKS7_EEEvPT_DpOT0_
FN:109,_ZN9__gnu_cxx13new_allocatorISt13_Rb_tree_nodeISt4pairIKcSt6vectorIdSaIdEEEEE9constructIS8_IS2_IcS6_EEEEvPT_DpOT0_
FN:114,_ZN9__gnu_cxx13new_allocatorISt13_Rb_tree_nodeISt4pairIKcSt6vectorIdSaIdEEEEE7destroyIS8_EEvPT_
FNDA:40,_ZN9__gnu_cxx13new_allocatorISt13_Rb_tree_nodeISt4pairIKcSt6vectorIdSaIdEEEEEC2Ev
FNDA:8,_ZN9__gnu_cxx13new_allocatorISt4pairIKcSt6vectorIdSaIdEEEEC2Ev
FNDA:0,_ZN9__gnu_cxx13new_allocatorIdEC2Ev
FNDA:0,_ZN9__gnu_cxx13new_allocatorIcEC2Ev
FNDA:8,_ZN9__gnu_cxx13new_allocatorISt13_Rb_tree_nodeISt4pairIKcSt6vectorIdSaIdEEEEEC2ERKS9_
FNDA:0,_ZN9__gnu_cxx13new_allocatorIdEC2ERKS1_
FNDA:8,_ZN9__gnu_cxx13new_allocatorISt4pairIKcSt6vectorIdSaIdEEEEC2ERKS7_
FNDA:0,_ZN9__gnu_cxx13new_allocatorIcEC2ERKS1_
FNDA:48,_ZN9__gnu_cxx13new_allocatorISt13_Rb_tree_nodeISt4pairIKcSt6vectorIdSaIdEEEEED2Ev
FNDA:16,_ZN9__gnu_cxx13new_allocatorISt4pairIKcSt6vectorIdSaIdEEEED2Ev
FNDA:0,_ZN9__gnu_cxx13new_allocatorIdED2Ev
FNDA:0,_ZN9__gnu_cxx13new_allocatorIcED2Ev
FNDA:884,_ZN9__gnu_cxx13new_allocatorISt13_Rb_tree_nodeISt4pairIKcSt6vectorIdSaIdEEEEE8allocateEmPKv
FNDA:0,_ZN9__gnu_cxx13new_allocatorIdE8allocateEmPKv
FNDA:8,_ZN9__gnu_cxx13new_allocatorIcE8allocateEmPKv
FNDA:884,_ZN9__gnu_cxx13new_allocatorISt13_Rb_tree_nodeISt4pairIKcSt6vectorIdSaIdEEEEE10deallocateEPS8_m
FNDA:0,_ZN9__gnu_cxx13new_allocatorIdE10deallocateEPdm
FNDA:8,_ZN9__gnu_cxx13new_allocatorIcE10deallocateEPcm
FNDA:884,_ZNK9__gnu_cxx13new_allocatorISt13_Rb_tree_nodeISt4pairIKcSt6vectorIdSaIdEEEEE8max_sizeEv
FNDA:0,_ZNK9__gnu_cxx13new_allocatorIdE8max_sizeEv
FNDA:8,_ZNK9__gnu_cxx13new_allocatorIcE8max_sizeEv
FNDA:560,_ZN9__gnu_cxx13new_allocatorISt13_Rb_tree_nodeISt4pairIKcSt6vectorIdSaIdEEEEE9constructIS8_IS7_EEEvPT_DpOT0_
FNDA:72,_ZN9__gnu_cxx13new_allocatorISt13_Rb_tree_nodeISt4pairIKcSt6vectorIdSaIdEEEEE9constructIS8_IS2_IcS6_EEEEvPT_DpOT0_
FNDA:252,_ZN9__gnu_cxx13new_allocatorISt13_Rb_tree_nodeISt4pairIKcSt6vectorIdSaIdEEEEE9constructIS8_IRKS7_EEEvPT_DpOT0_
FNDA:884,_ZN9__gnu_cxx13new_allocatorISt13_Rb_tree_nodeISt4pairIKcSt6vectorIdSaIdEEEEE7destroyIS8_EEvPT_
FNF:25
FNH:16
DA:69,48
DA:71,16
DA:76,64
DA:89,892
DA:91,892
DA:92,0
DA:94,892
DA:99,892
DA:100,892
DA:103,892
DA:104,892
DA:109,884
DA:110,884
DA:114,884
LF:14
LH:13
end_of_record
SF:/usr/include/c++/4.7.2/initializer_list
FN:71,_ZNKSt16initializer_listIcE4sizeEv
FN:71,_ZNKSt16initializer_listIdE4sizeEv
FN:71,_ZNKSt16initializer_listISt4pairIKcSt6vectorIdSaIdEEEE4sizeEv
FN:75,_ZNKSt16initializer_listIcE5beginEv
FN:75,_ZNKSt16initializer_listIdE5beginEv
FN:75,_ZNKSt16initializer_listISt4pairIKcSt6vectorIdSaIdEEEE5beginEv
FN:79,_ZNKSt16initializer_listIdE3endEv
FN:79,_ZNKSt16initializer_listISt4pairIKcSt6vectorIdSaIdEEEE3endEv
FN:79,_ZNKSt16initializer_listIcE3endEv
FNDA:12,_ZNKSt16initializer_listISt4pairIKcSt6vectorIdSaIdEEEE4sizeEv
FNDA:404,_ZNKSt16initializer_listIdE4sizeEv
FNDA:8,_ZNKSt16initializer_listIcE4sizeEv
FNDA:24,_ZNKSt16initializer_listISt4pairIKcSt6vectorIdSaIdEEEE5beginEv
FNDA:808,_ZNKSt16initializer_listIdE5beginEv
FNDA:16,_ZNKSt16initializer_listIcE5beginEv
FNDA:12,_ZNKSt16initializer_listISt4pairIKcSt6vectorIdSaIdEEEE3endEv
FNDA:404,_ZNKSt16initializer_listIdE3endEv
FNDA:8,_ZNKSt16initializer_listIcE3endEv
FNF:9
FNH:9
DA:71,424
DA:75,848
DA:79,424
LF:3
LH:3
end_of_record
SF:/usr/include/c++/4.7.2/iostream
DA:75,4
LF:1
LH:1
end_of_record
SF:/usr/include/c++/4.7.2/new
FN:111,_ZnwmPv
FN:117,_ZdlPvS_
FNDA:0,_ZnwmPv
FNDA:0,_ZdlPvS_
FNF:2
FNH:0
DA:111,0
DA:112,0
DA:117,0
LF:3
LH:0
end_of_record
SF:/home/joanna/cmbi/kman/src/profile.cpp
FN:9,_Z41__static_initialization_and_destruction_0ii
FN:35,_ZN7profile20create_score_profileERKSt6vectorIN5fasta8SequenceESaIS2_EE
FN:74,_ZN7profile14create_profileERKSt6vectorIN5fasta8SequenceESaIS2_EE
FN:112,_GLOBAL__sub_I__ZN7profile20create_score_profileERKSt6vectorIN5fasta8SequenceESaIS2_EE
FNDA:24,_ZN7profile20create_score_profileERKSt6vectorIN5fasta8SequenceESaIS2_EE
FNDA:28,_ZN7profile14create_profileERKSt6vectorIN5fasta8SequenceESaIS2_EE
FNDA:4,_GLOBAL__sub_I__ZN7profile20create_score_profileERKSt6vectorIN5fasta8SequenceESaIS2_EE
FNDA:4,_Z41__static_initialization_and_destruction_0ii
FNF:4
FNH:4
DA:9,4
DA:12,84
DA:32,80
DA:35,24
DA:37,24
DA:40,504
DA:41,480
DA:42,3920
DA:43,3440
DA:44,3440
DA:47,196
DA:48,172
DA:49,3612
DA:50,3440
DA:51,72240
DA:52,68800
DA:54,3440
DA:56,3612
DA:57,3440
DA:59,172
DA:60,24
DA:61,24
DA:62,24
DA:63,196
DA:64,3612
DA:65,3440
DA:67,172
DA:68,172
DA:70,24
DA:74,28
DA:76,28
DA:81,588
DA:82,560
DA:85,228
DA:86,608
DA:87,408
DA:89,408
DA:90,4
DA:93,404
DA:94,12
DA:95,12
DA:96,12
DA:97,392
DA:98,12
DA:99,12
DA:100,12
DA:101,380
DA:102,84
DA:103,80
DA:106,376
DA:107,376
DA:111,28
DA:112,12
LF:53
LH:53
end_of_record
TN:
SF:/home/joanna/include/boost/core/checked_delete.hpp
FN:29,_ZN5boost14checked_deleteINS_10filesystem6detail17recur_dir_itr_impEEEvPT_
FN:29,_ZN5boost14checked_deleteINS_10filesystem16filesystem_error5m_impEEEvPT_
FN:29,_ZN5boost14checked_deleteINS_10filesystem6detail11dir_itr_impEEEvPT_
FNDA:0,_ZN5boost14checked_deleteINS_10filesystem16filesystem_error5m_impEEEvPT_
FNDA:0,_ZN5boost14checked_deleteINS_10filesystem6detail17recur_dir_itr_impEEEvPT_
FNDA:0,_ZN5boost14checked_deleteINS_10filesystem6detail11dir_itr_impEEEvPT_
FNF:3
FNH:0
DA:29,0
DA:34,0
DA:35,0
LF:3
LH:0
end_of_record
SF:/home/joanna/include/boost/exception/exception.hpp
FN:27,_ZN5boost16exception_detail12refcount_ptrINS0_20error_info_containerEEC2Ev
FN:32,_ZN5boost16exception_detail12refcount_ptrINS0_20error_info_containerEED2Ev
FN:37,_ZN5boost16exception_detail12refcount_ptrINS0_20error_info_containerEEC2ERKS3_
FN:44,_ZN5boost16exception_detail12refcount_ptrINS0_20error_info_containerEEaSERKS3_
FN:51,_ZN5boost16exception_detail12refcount_ptrINS0_20error_info_containerEE5adoptEPS2_
FN:59,_ZNK5boost16exception_detail12refcount_ptrINS0_20error_info_containerEE3getEv
FN:69,_ZN5boost16exception_detail12refcount_ptrINS0_20error_info_containerEE7add_refEv
FN:76,_ZN5boost16exception_detail12refcount_ptrINS0_20error_info_containerEE7releaseEv
FN:208,_ZN5boost9exceptionC2ERKS0_
FN:281,_ZN5boost9exceptionD0Ev
FN:281,_ZN5boost9exceptionD2Ev
FN:326,_ZN5boost16exception_detail19error_info_injectorINS_12bad_weak_ptrEEC2ERKS3_
FN:336,_ZN5boost16exception_detail19error_info_injectorINS_12bad_weak_ptrEED0Ev
FN:336,_ZN5boost16exception_detail19error_info_injectorINS_12bad_weak_ptrEED2Ev
FN:398,_ZN5boost16exception_detail10clone_baseC2ERKS1_
FN:398,_ZN5boost16exception_detail10clone_baseC2Ev
FN:406,_ZN5boost16exception_detail10clone_baseD2Ev
FN:406,_ZN5boost16exception_detail10clone_baseD0Ev
FN:418,_ZN5boost16exception_detail20copy_boost_exceptionEPNS_9exceptionEPKS1_
FN:437,_ZN5boost16exception_detail10clone_implINS0_19error_info_injectorINS_12bad_weak_ptrEEEEC1ERKS5_
FN:442,_ZN5boost16exception_detail10clone_implINS0_19error_info_injectorINS_12bad_weak_ptrEEEEC1ERKS5_NS5_9clone_tagE
FN:457,_ZN5boost16exception_detail10clone_implINS0_19error_info_injectorINS_12bad_weak_ptrEEEED0Ev
FN:457,_ZN5boost16exception_detail10clone_implINS0_19error_info_injectorINS_12bad_weak_ptrEEEED1Ev
FN:464,_ZNK5boost16exception_detail10clone_implINS0_19error_info_injectorINS_12bad_weak_ptrEEEE5cloneEv
FN:470,_ZNK5boost16exception_detail10clone_implINS0_19error_info_injectorINS_12bad_weak_ptrEEEE7rethrowEv
FNDA:0,_ZN5boost16exception_detail12refcount_ptrINS0_20error_info_containerEEC2Ev
FNDA:0,_ZN5boost16exception_detail12refcount_ptrINS0_20error_info_containerEED2Ev
FNDA:0,_ZN5boost16exception_detail12refcount_ptrINS0_20error_info_containerEEC2ERKS3_
FNDA:0,_ZN5boost16exception_detail12refcount_ptrINS0_20error_info_containerEEaSERKS3_
FNDA:0,_ZN5boost16exception_detail12refcount_ptrINS0_20error_info_containerEE5adoptEPS2_
FNDA:0,_ZNK5boost16exception_detail12refcount_ptrINS0_20error_info_containerEE3getEv
FNDA:0,_ZN5boost16exception_detail12refcount_ptrINS0_20error_info_containerEE7add_refEv
FNDA:0,_ZN5boost16exception_detail12refcount_ptrINS0_20error_info_containerEE7releaseEv
FNDA:0,_ZN5boost9exceptionC2ERKS0_
FNDA:0,_ZN5boost9exceptionD0Ev
FNDA:0,_ZN5boost9exceptionD2Ev
FNDA:0,_ZN5boost16exception_detail19error_info_injectorINS_12bad_weak_ptrEEC2ERKS3_
FNDA:0,_ZN5boost16exception_detail19error_info_injectorINS_12bad_weak_ptrEED0Ev
FNDA:0,_ZN5boost16exception_detail19error_info_injectorINS_12bad_weak_ptrEED2Ev
FNDA:0,_ZN5boost16exception_detail10clone_baseC2Ev
FNDA:0,_ZN5boost16exception_detail10clone_baseC2ERKS1_
FNDA:0,_ZN5boost16exception_detail10clone_baseD0Ev
FNDA:0,_ZN5boost16exception_detail10clone_baseD2Ev
FNDA:0,_ZN5boost16exception_detail20copy_boost_exceptionEPNS_9exceptionEPKS1_
FNDA:0,_ZN5boost16exception_detail10clone_implINS0_19error_info_injectorINS_12bad_weak_ptrEEEEC1ERKS5_
FNDA:0,_ZN5boost16exception_detail10clone_implINS0_19error_info_injectorINS_12bad_weak_ptrEEEEC1ERKS5_NS5_9clone_tagE
FNDA:0,_ZN5boost16exception_detail10clone_implINS0_19error_info_injectorINS_12bad_weak_ptrEEEED0Ev
FNDA:0,_ZN5boost16exception_detail10clone_implINS0_19error_info_injectorINS_12bad_weak_ptrEEEED1Ev
FNDA:0,_ZNK5boost16exception_detail10clone_implINS0_19error_info_injectorINS_12bad_weak_ptrEEEE5cloneEv
FNDA:0,_ZNK5boost16exception_detail10clone_implINS0_19error_info_injectorINS_12bad_weak_ptrEEEE7rethrowEv
FNF:25
FNH:0
DA:27,0
DA:28,0
DA:30,0
DA:32,0
DA:34,0
DA:35,0
DA:37,0
DA:38,0
DA:40,0
DA:41,0
DA:44,0
DA:46,0
DA:47,0
DA:51,0
DA:53,0
DA:54,0
DA:55,0
DA:56,0
DA:59,0
DA:61,0
DA:69,0
DA:71,0
DA:72,0
DA:73,0
DA:76,0
DA:78,0
DA:79,0
DA:80,0
DA:208,0
DA:281,0
DA:282,0
DA:284,0
DA:326,0
DA:336,0
DA:338,0
DA:398,0
DA:406,0
DA:407,0
DA:408,0
DA:418,0
DA:420,0
DA:421,0
DA:422,0
DA:423,0
DA:424,0
DA:425,0
DA:426,0
DA:427,0
DA:437,0
DA:442,0
DA:443,0
DA:445,0
DA:446,0
DA:457,0
DA:459,0
DA:464,0
DA:466,0
DA:470,0
DA:472,0
LF:59
LH:0
end_of_record
SF:/home/joanna/include/boost/filesystem/operations.hpp
FN:114,_ZN5boost10filesystem16filesystem_errorD2Ev
FN:114,_ZN5boost10filesystem16filesystem_errorD0Ev
FN:127,_ZNK5boost10filesystem16filesystem_error4whatEv
FN:159,_ZN5boost10filesystem16filesystem_error5m_impD2Ev
FN:683,_ZN5boost10filesystem15directory_entryD2Ev
FN:769,_ZN5boost10filesystem6detail11dir_itr_impD2Ev
FN:812,_ZN5boost10filesystem18directory_iteratorD2Ev
FN:898,_ZN5boost10filesystem6detail17recur_dir_itr_impD2Ev
FNDA:0,_ZN5boost10filesystem16filesystem_errorD0Ev
FNDA:0,_ZN5boost10filesystem16filesystem_errorD2Ev
FNDA:0,_ZNK5boost10filesystem16filesystem_error4whatEv
FNDA:0,_ZN5boost10filesystem16filesystem_error5m_impD2Ev
FNDA:0,_ZN5boost10filesystem15directory_entryD2Ev
FNDA:0,_ZN5boost10filesystem6detail11dir_itr_impD2Ev
FNDA:0,_ZN5boost10filesystem18directory_iteratorD2Ev
FNDA:0,_ZN5boost10filesystem6detail17recur_dir_itr_impD2Ev
FNF:8
FNH:0
DA:114,0
DA:127,0
DA:129,0
DA:130,0
DA:134,0
DA:136,0
DA:137,0
DA:139,0
DA:140,0
DA:141,0
DA:143,0
DA:145,0
DA:146,0
DA:147,0
DA:150,0
DA:152,0
DA:154,0
DA:159,0
DA:683,0
DA:769,0
DA:770,0
DA:775,0
DA:776,0
DA:812,0
DA:898,0
LF:25
LH:0
end_of_record
SF:/home/joanna/include/boost/filesystem/path.hpp
FN:55,_ZN5boost10filesystem4pathD2Ev
FN:419,_ZNK5boost10filesystem4path6stringEv
FN:484,_ZNK5boost10filesystem4path5emptyEv
FNDA:0,_ZN5boost10filesystem4pathD2Ev
FNDA:0,_ZNK5boost10filesystem4path6stringEv
FNDA:0,_ZNK5boost10filesystem4path5emptyEv
FNF:3
FNH:0
DA:55,0
DA:419,0
DA:484,0
LF:3
LH:0
end_of_record
SF:/home/joanna/include/boost/smart_ptr/bad_weak_ptr.hpp
FN:39,_ZN5boost12bad_weak_ptrD2Ev
FN:39,_ZN5boost12bad_weak_ptrD0Ev
FN:39,_ZN5boost12bad_weak_ptrC2ERKS0_
FN:43,_ZNK5boost12bad_weak_ptr4whatEv
FNDA:0,_ZN5boost12bad_weak_ptrD0Ev
FNDA:0,_ZN5boost12bad_weak_ptrD2Ev
FNDA:0,_ZN5boost12bad_weak_ptrC2ERKS0_
FNDA:0,_ZNK5boost12bad_weak_ptr4whatEv
FNF:4
FNH:0
DA:39,0
DA:43,0
DA:45,0
LF:3
LH:0
end_of_record
SF:/home/joanna/include/boost/smart_ptr/detail/shared_count.hpp
FN:441,_ZN5boost6detail12shared_countD2Ev
FNDA:0,_ZN5boost6detail12shared_countD2Ev
FNF:1
FNH:0
DA:441,0
DA:443,0
DA:447,0
LF:3
LH:0
end_of_record
SF:/home/joanna/include/boost/smart_ptr/detail/sp_counted_base_gcc_x86.hpp
FN:35,_ZN5boost6detail23atomic_exchange_and_addEPii
FN:113,_ZN5boost6detail15sp_counted_baseD2Ev
FN:113,_ZN5boost6detail15sp_counted_baseD0Ev
FN:124,_ZN5boost6detail15sp_counted_base7destroyEv
FN:142,_ZN5boost6detail15sp_counted_base7releaseEv
FN:156,_ZN5boost6detail15sp_counted_base12weak_releaseEv
FNDA:0,_ZN5boost6detail23atomic_exchange_and_addEPii
FNDA:0,_ZN5boost6detail15sp_counted_baseD0Ev
FNDA:0,_ZN5boost6detail15sp_counted_baseD2Ev
FNDA:0,_ZN5boost6detail15sp_counted_base7destroyEv
FNDA:0,_ZN5boost6detail15sp_counted_base7releaseEv
FNDA:0,_ZN5boost6detail15sp_counted_base12weak_releaseEv
FNF:6
FNH:0
DA:35,0
DA:50,0
DA:52,0
DA:113,0
DA:114,0
DA:115,0
DA:124,0
DA:126,0
DA:127,0
DA:142,0
DA:144,0
DA:146,0
DA:147,0
DA:149,0
DA:156,0
DA:158,0
DA:160,0
DA:162,0
LF:18
LH:0
end_of_record
SF:/home/joanna/include/boost/smart_ptr/detail/sp_counted_impl.hpp
FN:53,_ZN5boost6detail17sp_counted_impl_pINS_10filesystem16filesystem_error5m_impEED0Ev
FN:53,_ZN5boost6detail17sp_counted_impl_pINS_10filesystem6detail11dir_itr_impEED2Ev
FN:53,_ZN5boost6detail17sp_counted_impl_pINS_10filesystem6detail17recur_dir_itr_impEED0Ev
FN:53,_ZN5boost6detail17sp_counted_impl_pINS_10filesystem16filesystem_error5m_impEED2Ev
FN:53,_ZN5boost6detail17sp_counted_impl_pINS_10filesystem6detail17recur_dir_itr_impEED2Ev
FN:53,_ZN5boost6detail17sp_counted_impl_pINS_10filesystem6detail11dir_itr_impEED0Ev
FN:73,_ZN5boost6detail17sp_counted_impl_pINS_10filesystem16filesystem_error5m_impEE7disposeEv
FN:73,_ZN5boost6detail17sp_counted_impl_pINS_10filesystem6detail11dir_itr_impEE7disposeEv
FN:73,_ZN5boost6detail17sp_counted_impl_pINS_10filesystem6detail17recur_dir_itr_impEE7disposeEv
FN:81,_ZN5boost6detail17sp_counted_impl_pINS_10filesystem6detail11dir_itr_impEE11get_deleterERKSt9type_info
FN:81,_ZN5boost6detail17sp_counted_impl_pINS_10filesystem6detail17recur_dir_itr_impEE11get_deleterERKSt9type_info
FN:81,_ZN5boost6detail17sp_counted_impl_pINS_10filesystem16filesystem_error5m_impEE11get_deleterERKSt9type_info
FN:86,_ZN5boost6detail17sp_counted_impl_pINS_10filesystem6detail17recur_dir_itr_impEE19get_untyped_deleterEv
FN:86,_ZN5boost6detail17sp_counted_impl_pINS_10filesystem16filesystem_error5m_impEE19get_untyped_deleterEv
FN:86,_ZN5boost6detail17sp_counted_impl_pINS_10filesystem6detail11dir_itr_impEE19get_untyped_deleterEv
FNDA:0,_ZN5boost6detail17sp_counted_impl_pINS_10filesystem6detail11dir_itr_impEED0Ev
FNDA:0,_ZN5boost6detail17sp_counted_impl_pINS_10filesystem6detail11dir_itr_impEED2Ev
FNDA:0,_ZN5boost6detail17sp_counted_impl_pINS_10filesystem6detail17recur_dir_itr_impEED0Ev
FNDA:0,_ZN5boost6detail17sp_counted_impl_pINS_10filesystem6detail17recur_dir_itr_impEED2Ev
FNDA:0,_ZN5boost6detail17sp_counted_impl_pINS_10filesystem16filesystem_error5m_impEED0Ev
FNDA:0,_ZN5boost6detail17sp_counted_impl_pINS_10filesystem16filesystem_error5m_impEED2Ev
FNDA:0,_ZN5boost6detail17sp_counted_impl_pINS_10filesystem6detail11dir_itr_impEE7disposeEv
FNDA:0,_ZN5boost6detail17sp_counted_impl_pINS_10filesystem6detail17recur_dir_itr_impEE7disposeEv
FNDA:0,_ZN5boost6detail17sp_counted_impl_pINS_10filesystem16filesystem_error5m_impEE7disposeEv
FNDA:0,_ZN5boost6detail17sp_counted_impl_pINS_10filesystem6detail11dir_itr_impEE11get_deleterERKSt9type_info
FNDA:0,_ZN5boost6detail17sp_counted_impl_pINS_10filesystem6detail17recur_dir_itr_impEE11get_deleterERKSt9type_info
FNDA:0,_ZN5boost6detail17sp_counted_impl_pINS_10filesystem16filesystem_error5m_impEE11get_deleterERKSt9type_info
FNDA:0,_ZN5boost6detail17sp_counted_impl_pINS_10filesystem6detail11dir_itr_impEE19get_untyped_deleterEv
FNDA:0,_ZN5boost6detail17sp_counted_impl_pINS_10filesystem6detail17recur_dir_itr_impEE19get_untyped_deleterEv
FNDA:0,_ZN5boost6detail17sp_counted_impl_pINS_10filesystem16filesystem_error5m_impEE19get_untyped_deleterEv
FNF:15
FNH:0
DA:53,0
DA:73,0
DA:78,0
DA:79,0
DA:81,0
DA:83,0
DA:86,0
DA:88,0
LF:8
LH:0
end_of_record
SF:/home/joanna/include/boost/smart_ptr/shared_ptr.hpp
FN:323,_ZN5boost10shared_ptrINS_10filesystem16filesystem_error5m_impEED2Ev
FN:323,_ZN5boost10shared_ptrINS_10filesystem6detail11dir_itr_impEED2Ev
FN:646,_ZNK5boost10shared_ptrINS_10filesystem16filesystem_error5m_impEEptEv
FN:661,_ZNK5boost10shared_ptrINS_10filesystem16filesystem_error5m_impEE3getEv
FNDA:0,_ZN5boost10shared_ptrINS_10filesystem6detail11dir_itr_impEED2Ev
FNDA:0,_ZN5boost10shared_ptrINS_10filesystem16filesystem_error5m_impEED2Ev
FNDA:0,_ZNK5boost10shared_ptrINS_10filesystem16filesystem_error5m_impEEptEv
FNDA:0,_ZNK5boost10shared_ptrINS_10filesystem16filesystem_error5m_impEE3getEv
FNF:4
FNH:0
DA:323,0
DA:646,0
DA:648,0
DA:649,0
DA:661,0
DA:663,0
LF:6
LH:0
end_of_record
SF:/home/joanna/include/boost/system/error_code.hpp
FN:188,_ZN5boost6system14error_categoryD2Ev
FN:188,_ZN5boost6system14error_categoryD0Ev
FN:198,_ZNK5boost6system14error_categoryeqERKS1_
FN:236,_ZN5boost6system15error_conditionC2EiRKNS0_14error_categoryE
FN:288,_ZN5boost6systemeqERKNS0_15error_conditionES3_
FN:354,_ZNK5boost6system10error_code5valueEv
FN:355,_ZNK5boost6system10error_code8categoryEv
FN:357,_ZNK5boost6system10error_code7messageEv
FN:492,_ZNK5boost6system14error_category23default_error_conditionEi
FN:497,_ZNK5boost6system14error_category10equivalentEiRKNS0_15error_conditionE
FN:503,_ZNK5boost6system14error_category10equivalentERKNS0_10error_codeEi
FNDA:0,_ZN5boost6system14error_categoryD0Ev
FNDA:0,_ZN5boost6system14error_categoryD2Ev
FNDA:0,_ZNK5boost6system14error_categoryeqERKS1_
FNDA:0,_ZN5boost6system15error_conditionC2EiRKNS0_14error_categoryE
FNDA:0,_ZN5boost6systemeqERKNS0_15error_conditionES3_
FNDA:0,_ZNK5boost6system10error_code5valueEv
FNDA:0,_ZNK5boost6system10error_code8categoryEv
FNDA:0,_ZNK5boost6system10error_code7messageEv
FNDA:0,_ZNK5boost6system14error_category23default_error_conditionEi
FNDA:0,_ZNK5boost6system14error_category10equivalentEiRKNS0_15error_conditionE
FNDA:0,_ZNK5boost6system14error_category10equivalentERKNS0_10error_codeEi
FNF:11
FNH:0
DA:188,0
DA:198,0
DA:221,4
DA:222,4
DA:223,4
DA:236,0
DA:288,0
DA:291,0
DA:354,0
DA:355,0
DA:357,0
DA:492,0
DA:494,0
DA:497,0
DA:500,0
DA:503,0
DA:506,0
LF:17
LH:3
end_of_record
SF:/home/joanna/include/boost/system/system_error.hpp
FN:47,_ZN5boost6system12system_errorD2Ev
FN:47,_ZN5boost6system12system_errorD0Ev
FN:59,_ZNK5boost6system12system_error4whatEv
FNDA:0,_ZN5boost6system12system_errorD0Ev
FNDA:0,_ZN5boost6system12system_errorD2Ev
FNDA:0,_ZNK5boost6system12system_error4whatEv
FNF:3
FNH:0
DA:47,0
DA:59,0
DA:62,0
DA:68,0
DA:69,0
DA:70,0
DA:73,0
DA:76,0
LF:8
LH:0
end_of_record
SF:/usr/include/c++/4.7.2/bits/alloc_traits.h
FN:252,_ZNSt16allocator_traitsISaIN5fasta7ResidueEEE12_S_constructIS1_IRKS1_EEENSt9enable_ifIXsrNS3_18__construct_helperIT_IDpT0_EEE5valueEvE4typeERS2_PS9_DpOSA_
FN:252,_ZNSt16allocator_traitsISaIiEE12_S_constructIiIRKiEEENSt9enable_ifIXsrNS1_18__construct_helperIT_IDpT0_EEE5valueEvE4typeERS0_PS7_DpOS8_
FN:278,_ZNSt16allocator_traitsISaIN5fasta7ResidueEEE10_S_destroyIS1_EENSt9enable_ifIXsrNS3_16__destroy_helperIT_EE5valueEvE4typeERS2_PS7_
FN:278,_ZNSt16allocator_traitsISaIiEE10_S_destroyIiEENSt9enable_ifIXsrNS1_16__destroy_helperIT_EE5valueEvE4typeERS0_PS5_
FN:303,_ZNSt16allocator_traitsISaIN5fasta7ResidueEEE11_S_max_sizeIKS2_EENSt9enable_ifIXsrNS3_16__maxsize_helperIT_EE5valueEmE4typeERS8_
FN:303,_ZNSt16allocator_traitsISaIiEE11_S_max_sizeIKS0_EENSt9enable_ifIXsrNS1_16__maxsize_helperIT_EE5valueEmE4typeERS6_
FN:335,_ZNSt16allocator_traitsISaIN5fasta7ResidueEEE9_S_selectIKS2_EENSt9enable_ifIXntsrNS3_15__select_helperIT_EE5valueES8_E4typeERS8_
FN:335,_ZNSt16allocator_traitsISaIdEE9_S_selectIKS0_EENSt9enable_ifIXntsrNS1_15__select_helperIT_EE5valueES6_E4typeERS6_
FN:335,_ZNSt16allocator_traitsISaISsEE9_S_selectIKS0_EENSt9enable_ifIXntsrNS1_15__select_helperIT_EE5valueES6_E4typeERS6_
FN:389,_ZNSt16allocator_traitsISaIiEE9constructIiIRKiEEEvRS0_PT_DpOT0_
FN:389,_ZNSt16allocator_traitsISaIN5fasta7ResidueEEE9constructIS1_IRKS1_EEEvRS2_PT_DpOT0_
FN:401,_ZNSt16allocator_traitsISaIN5fasta7ResidueEEE7destroyIS1_EEvRS2_PT_
FN:401,_ZNSt16allocator_traitsISaIiEE7destroyIiEEvRS0_PT_
FN:412,_ZNSt16allocator_traitsISaIiEE8max_sizeERKS0_
FN:412,_ZNSt16allocator_traitsISaIN5fasta7ResidueEEE8max_sizeERKS2_
FN:424,_ZNSt16allocator_traitsISaIdEE37select_on_container_copy_constructionERKS0_
FN:424,_ZNSt16allocator_traitsISaIN5fasta7ResidueEEE37select_on_container_copy_constructionERKS2_
FN:424,_ZNSt16allocator_traitsISaISsEE37select_on_container_copy_constructionERKS0_
FN:456,_ZSt18__do_alloc_on_copyISaISsEEvRT_RKS1_St17integral_constantIbLb0EE
FN:456,_ZSt18__do_alloc_on_copyISaIdEEvRT_RKS1_St17integral_constantIbLb0EE
FN:460,_ZSt15__alloc_on_copyISaISsEEvRT_RKS1_
FN:460,_ZSt15__alloc_on_copyISaIdEEvRT_RKS1_
FN:479,_ZSt18__do_alloc_on_moveISaISsEEvRT_S2_St17integral_constantIbLb0EE
FN:479,_ZSt18__do_alloc_on_moveISaIN5fasta7ResidueEEEvRT_S4_St17integral_constantIbLb0EE
FN:483,_ZSt15__alloc_on_moveISaISsEEvRT_S2_
FN:483,_ZSt15__alloc_on_moveISaIN5fasta7ResidueEEEvRT_S4_
FN:498,_ZSt18__do_alloc_on_swapISaISt6vectorIdSaIdEEEEvRT_S5_St17integral_constantIbLb0EE
FN:502,_ZSt15__alloc_on_swapISaISt6vectorIdSaIdEEEEvRT_S5_
FNDA:0,_ZNSt16allocator_traitsISaIN5fasta7ResidueEEE12_S_constructIS1_IRKS1_EEENSt9enable_ifIXsrNS3_18__construct_helperIT_IDpT0_EEE5valueEvE4typeERS2_PS9_DpOSA_
FNDA:40,_ZNSt16allocator_traitsISaIiEE12_S_constructIiIRKiEEENSt9enable_ifIXsrNS1_18__construct_helperIT_IDpT0_EEE5valueEvE4typeERS0_PS7_DpOS8_
FNDA:0,_ZNSt16allocator_traitsISaIN5fasta7ResidueEEE10_S_destroyIS1_EENSt9enable_ifIXsrNS3_16__destroy_helperIT_EE5valueEvE4typeERS2_PS7_
FNDA:0,_ZNSt16allocator_traitsISaIiEE10_S_destroyIiEENSt9enable_ifIXsrNS1_16__destroy_helperIT_EE5valueEvE4typeERS0_PS5_
FNDA:0,_ZNSt16allocator_traitsISaIN5fasta7ResidueEEE11_S_max_sizeIKS2_EENSt9enable_ifIXsrNS3_16__maxsize_helperIT_EE5valueEmE4typeERS8_
FNDA:0,_ZNSt16allocator_traitsISaIiEE11_S_max_sizeIKS0_EENSt9enable_ifIXsrNS1_16__maxsize_helperIT_EE5valueEmE4typeERS6_
FNDA:0,_ZNSt16allocator_traitsISaIdEE9_S_selectIKS0_EENSt9enable_ifIXntsrNS1_15__select_helperIT_EE5valueES6_E4typeERS6_
FNDA:776,_ZNSt16allocator_traitsISaIN5fasta7ResidueEEE9_S_selectIKS2_EENSt9enable_ifIXntsrNS3_15__select_helperIT_EE5valueES8_E4typeERS8_
FNDA:0,_ZNSt16allocator_traitsISaISsEE9_S_selectIKS0_EENSt9enable_ifIXntsrNS1_15__select_helperIT_EE5valueES6_E4typeERS6_
FNDA:0,_ZNSt16allocator_traitsISaIN5fasta7ResidueEEE9constructIS1_IRKS1_EEEvRS2_PT_DpOT0_
FNDA:40,_ZNSt16allocator_traitsISaIiEE9constructIiIRKiEEEvRS0_PT_DpOT0_
FNDA:0,_ZNSt16allocator_traitsISaIN5fasta7ResidueEEE7destroyIS1_EEvRS2_PT_
FNDA:0,_ZNSt16allocator_traitsISaIiEE7destroyIiEEvRS0_PT_
FNDA:0,_ZNSt16allocator_traitsISaIN5fasta7ResidueEEE8max_sizeERKS2_
FNDA:0,_ZNSt16allocator_traitsISaIiEE8max_sizeERKS0_
FNDA:0,_ZNSt16allocator_traitsISaIdEE37select_on_container_copy_constructionERKS0_
FNDA:776,_ZNSt16allocator_traitsISaIN5fasta7ResidueEEE37select_on_container_copy_constructionERKS2_
FNDA:0,_ZNSt16allocator_traitsISaISsEE37select_on_container_copy_constructionERKS0_
FNDA:0,_ZSt18__do_alloc_on_copyISaIdEEvRT_RKS1_St17integral_constantIbLb0EE
FNDA:0,_ZSt18__do_alloc_on_copyISaISsEEvRT_RKS1_St17integral_constantIbLb0EE
FNDA:0,_ZSt15__alloc_on_copyISaIdEEvRT_RKS1_
FNDA:0,_ZSt15__alloc_on_copyISaISsEEvRT_RKS1_
FNDA:0,_ZSt18__do_alloc_on_moveISaISsEEvRT_S2_St17integral_constantIbLb0EE
FNDA:0,_ZSt18__do_alloc_on_moveISaIN5fasta7ResidueEEEvRT_S4_St17integral_constantIbLb0EE
FNDA:0,_ZSt15__alloc_on_moveISaISsEEvRT_S2_
FNDA:0,_ZSt15__alloc_on_moveISaIN5fasta7ResidueEEEvRT_S4_
FNDA:60,_ZSt18__do_alloc_on_swapISaISt6vectorIdSaIdEEEEvRT_S5_St17integral_constantIbLb0EE
FNDA:60,_ZSt15__alloc_on_swapISaISt6vectorIdSaIdEEEEvRT_S5_
FNF:28
FNH:6
DA:252,40
DA:253,40
DA:278,0
DA:279,0
DA:303,0
DA:304,0
DA:335,776
DA:336,776
DA:389,40
DA:390,40
DA:401,0
DA:402,0
DA:412,0
DA:413,0
DA:424,776
DA:425,776
DA:456,0
DA:457,0
DA:460,0
DA:464,0
DA:465,0
DA:479,0
DA:480,0
DA:483,0
DA:487,0
DA:488,0
DA:498,60
DA:499,60
DA:502,60
DA:506,60
DA:507,60
LF:31
LH:13
end_of_record
SF:/usr/include/c++/4.7.2/bits/allocator.h
FN:104,_ZNSaISt6vectorIdSaIdEEEC2Ev
FN:104,_ZNSaIdEC2Ev
FN:104,_ZNSaIiEC2Ev
FN:104,_ZNSaIN5fasta7ResidueEEC2Ev
FN:104,_ZNSaIN5fasta8SequenceEEC2Ev
FN:104,_ZNSaISsEC2Ev
FN:106,_ZNSaISsEC2ERKS_
FN:106,_ZNSaIdEC2ERKS_
FN:106,_ZNSaISt6vectorIdSaIdEEEC2ERKS2_
FN:106,_ZNSaIN5fasta8SequenceEEC2ERKS1_
FN:106,_ZNSaIN5fasta7ResidueEEC2ERKS1_
FN:112,_ZNSaIN5fasta7ResidueEED2Ev
FN:112,_ZNSaIdED2Ev
FN:112,_ZNSaISt6vectorIdSaIdEEED2Ev
FN:112,_ZNSaISsED2Ev
FN:112,_ZNSaIiED2Ev
FN:112,_ZNSaIN5fasta8SequenceEED2Ev
FN:112,_ZNSaIN5boost10filesystem18directory_iteratorEED2Ev
FN:134,_ZStneISsEbRKSaIT_ES3_
FN:134,_ZStneIdEbRKSaIT_ES3_
FNDA:0,_ZNSaIN5fasta7ResidueEEC2Ev
FNDA:0,_ZNSaIiEC2Ev
FNDA:60,_ZNSaISt6vectorIdSaIdEEEC2Ev
FNDA:0,_ZNSaISsEC2Ev
FNDA:0,_ZNSaIN5fasta8SequenceEEC2Ev
FNDA:0,_ZNSaIdEC2Ev
FNDA:60,_ZNSaISt6vectorIdSaIdEEEC2ERKS2_
FNDA:392,_ZNSaIN5fasta8SequenceEEC2ERKS1_
FNDA:0,_ZNSaIdEC2ERKS_
FNDA:0,_ZNSaIN5fasta7ResidueEEC2ERKS1_
FNDA:0,_ZNSaISsEC2ERKS_
FNDA:0,_ZNSaIiED2Ev
FNDA:120,_ZNSaISt6vectorIdSaIdEEED2Ev
FNDA:0,_ZNSaIN5boost10filesystem18directory_iteratorEED2Ev
FNDA:0,_ZNSaIN5fasta7ResidueEED2Ev
FNDA:0,_ZNSaISsED2Ev
FNDA:0,_ZNSaIN5fasta8SequenceEED2Ev
FNDA:0,_ZNSaIdED2Ev
FNDA:0,_ZStneIdEbRKSaIT_ES3_
FNDA:0,_ZStneISsEbRKSaIT_ES3_
FNF:20
FNH:4
DA:104,60
DA:106,452
DA:107,452
DA:112,120
DA:134,0
DA:135,0
LF:6
LH:4
end_of_record
SF:/usr/include/c++/4.7.2/bits/basic_string.h
FN:269,_ZNSs12_Alloc_hiderC2ERKS_
FN:269,_ZNSs12_Alloc_hiderD2Ev
FN:2457,_ZStplIcSt11char_traitsIcESaIcEESbIT_T0_T1_ES3_OS6_
FN:2516,_ZSteqIcSt11char_traitsIcESaIcEEbRKSbIT_T0_T1_EPKS3_
FNDA:0,_ZNSs12_Alloc_hiderC2ERKS_
FNDA:0,_ZNSs12_Alloc_hiderD2Ev
FNDA:40,_ZStplIcSt11char_traitsIcESaIcEESbIT_T0_T1_ES3_OS6_
FNDA:0,_ZSteqIcSt11char_traitsIcESaIcEEbRKSbIT_T0_T1_EPKS3_
FNF:4
FNH:1
DA:269,0
DA:2457,40
DA:2459,40
DA:2516,0
DA:2518,0
LF:5
LH:2
end_of_record
SF:/usr/include/c++/4.7.2/bits/char_traits.h
FN:260,_ZNSt11char_traitsIcE6lengthEPKc
FNDA:0,_ZNSt11char_traitsIcE6lengthEPKc
FNF:1
FNH:0
DA:260,0
DA:261,0
LF:2
LH:0
end_of_record
SF:/usr/include/c++/4.7.2/bits/move.h
FN:47,_ZSt11__addressofIN5boost10filesystem18directory_iteratorEEPT_RS3_
FN:47,_ZSt11__addressofISsEPT_RS0_
FN:47,_ZSt11__addressofIN5fasta7ResidueEEPT_RS2_
FN:47,_ZSt11__addressofIKSt4pairIKcSt6vectorIdSaIdEEEEPT_RS7_
FN:47,_ZSt11__addressofIN5fasta8SequenceEEPT_RS2_
FN:47,_ZSt11__addressofISt6vectorIdSaIdEEEPT_RS3_
FN:77,_ZSt7forwardIRKSt6vectorIdSaIdEEEOT_RNSt16remove_referenceIS5_E4typeE
FN:77,_ZSt7forwardIRKSsEOT_RNSt16remove_referenceIS2_E4typeE
FN:77,_ZSt7forwardIRKN5fasta7ResidueEEOT_RNSt16remove_referenceIS4_E4typeE
FN:77,_ZSt7forwardIRKN5fasta8SequenceEEOT_RNSt16remove_referenceIS4_E4typeE
FN:77,_ZSt7forwardIRSsEOT_RNSt16remove_referenceIS1_E4typeE
FN:77,_ZSt7forwardIRKiEOT_RNSt16remove_referenceIS2_E4typeE
FN:77,_ZSt7forwardIN5fasta7ResidueEEOT_RNSt16remove_referenceIS2_E4typeE
FN:102,_ZSt4moveIRPSsEONSt16remove_referenceIT_E4typeEOS3_
FN:102,_ZSt4moveIRSt6vectorISsSaISsEEEONSt16remove_referenceIT_E4typeEOS5_
FN:102,_ZSt4moveIRN5fasta7ResidueEEONSt16remove_referenceIT_E4typeEOS4_
FN:102,_ZSt4moveIRSaISsEEONSt16remove_referenceIT_E4typeEOS3_
FN:102,_ZSt4moveIRSsEONSt16remove_referenceIT_E4typeEOS2_
FN:102,_ZSt4moveIRPSt6vectorIdSaIdEEEONSt16remove_referenceIT_E4typeEOS6_
FN:102,_ZSt4moveIRSt6vectorIN5fasta7ResidueESaIS2_EEEONSt16remove_referenceIT_E4typeEOS7_
FN:102,_ZSt4moveIRSaIN5fasta7ResidueEEEONSt16remove_referenceIT_E4typeEOS5_
FN:102,_ZSt4moveIRPN5fasta7ResidueEEONSt16remove_referenceIT_E4typeEOS5_
FN:167,_ZSt4swapIPN5fasta7ResidueEEvRT_S4_
FN:167,_ZSt4swapIN5fasta7ResidueEEvRT_S3_
FN:167,_ZSt4swapIPSt6vectorIdSaIdEEEvRT_S5_
FN:167,_ZSt4swapIPSsEvRT_S2_
FNDA:0,_ZSt11__addressofIN5fasta8SequenceEEPT_RS2_
FNDA:0,_ZSt11__addressofIN5fasta7ResidueEEPT_RS2_
FNDA:1056,_ZSt11__addressofISt6vectorIdSaIdEEEPT_RS3_
FNDA:0,_ZSt11__addressofIN5boost10filesystem18directory_iteratorEEPT_RS3_
FNDA:0,_ZSt11__addressofISsEPT_RS0_
FNDA:36,_ZSt11__addressofIKSt4pairIKcSt6vectorIdSaIdEEEEPT_RS7_
FNDA:0,_ZSt7forwardIN5fasta7ResidueEEOT_RNSt16remove_referenceIS2_E4typeE
FNDA:508,_ZSt7forwardIRKN5fasta8SequenceEEOT_RNSt16remove_referenceIS4_E4typeE
FNDA:528,_ZSt7forwardIRKSt6vectorIdSaIdEEEOT_RNSt16remove_referenceIS5_E4typeE
FNDA:0,_ZSt7forwardIRSsEOT_RNSt16remove_referenceIS1_E4typeE
FNDA:0,_ZSt7forwardIRKSsEOT_RNSt16remove_referenceIS2_E4typeE
FNDA:0,_ZSt7forwardIRKN5fasta7ResidueEEOT_RNSt16remove_referenceIS4_E4typeE
FNDA:160,_ZSt7forwardIRKiEOT_RNSt16remove_referenceIS2_E4typeE
FNDA:0,_ZSt4moveIRPSsEONSt16remove_referenceIT_E4typeEOS3_
FNDA:0,_ZSt4moveIRSaISsEEONSt16remove_referenceIT_E4typeEOS3_
FNDA:0,_ZSt4moveIRSt6vectorISsSaISsEEEONSt16remove_referenceIT_E4typeEOS5_
FNDA:0,_ZSt4moveIRN5fasta7ResidueEEONSt16remove_referenceIT_E4typeEOS4_
FNDA:540,_ZSt4moveIRPSt6vectorIdSaIdEEEONSt16remove_referenceIT_E4typeEOS6_
FNDA:0,_ZSt4moveIRPN5fasta7ResidueEEONSt16remove_referenceIT_E4typeEOS5_
FNDA:0,_ZSt4moveIRSaIN5fasta7ResidueEEEONSt16remove_referenceIT_E4typeEOS5_
FNDA:0,_ZSt4moveIRSt6vectorIN5fasta7ResidueESaIS2_EEEONSt16remove_referenceIT_E4typeEOS7_
FNDA:0,_ZSt4moveIRSsEONSt16remove_referenceIT_E4typeEOS2_
FNDA:0,_ZSt4swapIPSsEvRT_S2_
FNDA:160,_ZSt4swapIN5fasta7ResidueEEvRT_S3_
FNDA:180,_ZSt4swapIPSt6vectorIdSaIdEEEvRT_S5_
FNDA:0,_ZSt4swapIPN5fasta7ResidueEEvRT_S4_
FNF:26
FNH:8
DA:47,1092
DA:50,1092
DA:77,1196
DA:78,1196
DA:102,540
DA:103,540
DA:167,340
DA:176,340
DA:177,340
DA:178,340
DA:179,340
LF:11
LH:11
end_of_record
SF:/usr/include/c++/4.7.2/bits/stl_algo.h
FN:1440,_ZSt9__reverseIN9__gnu_cxx17__normal_iteratorIPN5fasta7ResidueESt6vectorIS3_SaIS3_EEEEEvT_S9_St26random_access_iterator_tag
FN:1468,_ZSt7reverseIN9__gnu_cxx17__normal_iteratorIPN5fasta7ResidueESt6vectorIS3_SaIS3_EEEEEvT_S9_
FNDA:40,_ZSt9__reverseIN9__gnu_cxx17__normal_iteratorIPN5fasta7ResidueESt6vectorIS3_SaIS3_EEEEEvT_S9_St26random_access_iterator_tag
FNDA:40,_ZSt7reverseIN9__gnu_cxx17__normal_iteratorIPN5fasta7ResidueESt6vectorIS3_SaIS3_EEEEEvT_S9_
FNF:2
FNH:2
DA:1440,40
DA:1443,40
DA:1444,40
DA:1445,40
DA:1446,240
DA:1448,160
DA:1449,160
DA:1450,160
DA:1468,40
DA:1474,40
DA:1475,40
LF:11
LH:11
end_of_record
SF:/usr/include/c++/4.7.2/bits/stl_algobase.h
FN:100,_ZNSt11__iter_swapILb1EE9iter_swapIN9__gnu_cxx17__normal_iteratorIPN5fasta7ResidueESt6vectorIS5_SaIS5_EEEESA_EEvT_T0_
FN:118,_ZSt9iter_swapIN9__gnu_cxx17__normal_iteratorIPN5fasta7ResidueESt6vectorIS3_SaIS3_EEEES8_EvT_T0_
FN:210,_ZSt3maxImERKT_S2_S2_
FN:210,_ZSt3maxIdERKT_S2_S2_
FN:271,_ZSt12__niter_baseIPdENSt11_Niter_baseIT_E13iterator_typeES2_
FN:271,_ZSt12__niter_baseIPiENSt11_Niter_baseIT_E13iterator_typeES2_
FN:271,_ZSt12__niter_baseIN9__gnu_cxx17__normal_iteratorIPSsSt6vectorISsSaISsEEEEENSt11_Niter_baseIT_E13iterator_typeES8_
FN:271,_ZSt12__niter_baseIPSt6vectorIdSaIdEEENSt11_Niter_baseIT_E13iterator_typeES5_
FN:271,_ZSt12__niter_baseIPSsENSt11_Niter_baseIT_E13iterator_typeES2_
FN:271,_ZSt12__niter_baseIN9__gnu_cxx17__normal_iteratorIPKSsSt6vectorISsSaISsEEEEENSt11_Niter_baseIT_E13iterator_typeES9_
FN:271,_ZSt12__niter_baseIN9__gnu_cxx17__normal_iteratorIPKdSt6vectorIdSaIdEEEEENSt11_Niter_baseIT_E13iterator_typeES9_
FN:271,_ZSt12__niter_baseIN9__gnu_cxx17__normal_iteratorIPdSt6vectorIdSaIdEEEEENSt11_Niter_baseIT_E13iterator_typeES8_
FN:271,_ZSt12__niter_baseIN9__gnu_cxx17__normal_iteratorIPSt6vectorIdSaIdEES2_IS4_SaIS4_EEEEENSt11_Niter_baseIT_E13iterator_typeESA_
FN:282,_ZSt12__miter_baseIN9__gnu_cxx17__normal_iteratorIPKdSt6vectorIdSaIdEEEEENSt11_Miter_baseIT_E13iterator_typeES9_
FN:282,_ZSt12__miter_baseIN9__gnu_cxx17__normal_iteratorIPKSsSt6vectorISsSaISsEEEEENSt11_Miter_baseIT_E13iterator_typeES9_
FN:282,_ZSt12__miter_baseIPSsENSt11_Miter_baseIT_E13iterator_typeES2_
FN:282,_ZSt12__miter_baseIPdENSt11_Miter_baseIT_E13iterator_typeES2_
FN:282,_ZSt12__miter_baseISt13move_iteratorIPiEENSt11_Miter_baseIT_E13iterator_typeES4_
FN:324,_ZNSt11__copy_moveILb0ELb0ESt26random_access_iterator_tagE8__copy_mIPKSsPSsEET0_T_S7_S6_
FN:324,_ZNSt11__copy_moveILb0ELb0ESt26random_access_iterator_tagE8__copy_mIPSsS3_EET0_T_S5_S4_
FN:362,_ZNSt11__copy_moveILb1ELb1ESt26random_access_iterator_tagE8__copy_mIiEEPT_PKS3_S6_S4_
FN:362,_ZNSt11__copy_moveILb0ELb1ESt26random_access_iterator_tagE8__copy_mIdEEPT_PKS3_S6_S4_
FN:373,_ZSt13__copy_move_aILb0EPKSsPSsET1_T0_S4_S3_
FN:373,_ZSt13__copy_move_aILb0EPSsS0_ET1_T0_S2_S1_
FN:373,_ZSt13__copy_move_aILb0EPdS0_ET1_T0_S2_S1_
FN:373,_ZSt13__copy_move_aILb0EPKdPdET1_T0_S4_S3_
FN:373,_ZSt13__copy_move_aILb1EPiS0_ET1_T0_S2_S1_
FN:418,_ZSt14__copy_move_a2ILb0EPdS0_ET1_T0_S2_S1_
FN:418,_ZSt14__copy_move_a2ILb0EPSsS0_ET1_T0_S2_S1_
FN:418,_ZSt14__copy_move_a2ILb1EPiS0_ET1_T0_S2_S1_
FN:418,_ZSt14__copy_move_a2ILb0EN9__gnu_cxx17__normal_iteratorIPKSsSt6vectorISsSaISsEEEENS1_IPSsS6_EEET1_T0_SB_SA_
FN:418,_ZSt14__copy_move_a2ILb0EN9__gnu_cxx17__normal_iteratorIPKdSt6vectorIdSaIdEEEENS1_IPdS6_EEET1_T0_SB_SA_
FN:418,_ZSt14__copy_move_a2ILb0EN9__gnu_cxx17__normal_iteratorIPKdSt6vectorIdSaIdEEEEPdET1_T0_SA_S9_
FN:444,_ZSt4copyIPdS0_ET0_T_S2_S1_
FN:444,_ZSt4copyIPSsS0_ET0_T_S2_S1_
FN:444,_ZSt4copyIN9__gnu_cxx17__normal_iteratorIPKSsSt6vectorISsSaISsEEEENS1_IPSsS6_EEET0_T_SB_SA_
FN:444,_ZSt4copyISt13move_iteratorIPiES1_ET0_T_S4_S3_
FN:444,_ZSt4copyIN9__gnu_cxx17__normal_iteratorIPKdSt6vectorIdSaIdEEEENS1_IPdS6_EEET0_T_SB_SA_
FN:444,_ZSt4copyIN9__gnu_cxx17__normal_iteratorIPKdSt6vectorIdSaIdEEEEPdET0_T_SA_S9_
FN:672,_ZSt8__fill_aIPSt6vectorIdSaIdEES2_EN9__gnu_cxx11__enable_ifIXntsrSt11__is_scalarIT0_E7__valueEvE6__typeET_SB_RKS7_
FN:715,_ZSt4fillIN9__gnu_cxx17__normal_iteratorIPSt6vectorIdSaIdEES2_IS4_SaIS4_EEEES4_EvT_S9_RKT0_
FN:729,_ZSt10__fill_n_aIPSt6vectorIdSaIdEEmS2_EN9__gnu_cxx11__enable_ifIXntsrSt11__is_scalarIT1_E7__valueET_E6__typeES9_T0_RKS7_
FN:740,_ZSt10__fill_n_aIPdmdEN9__gnu_cxx11__enable_ifIXsrSt11__is_scalarIT1_E7__valueET_E6__typeES6_T0_RKS4_
FN:775,_ZSt6fill_nIPSt6vectorIdSaIdEEmS2_ET_S4_T0_RKT1_
FN:775,_ZSt6fill_nIPdmdET_S1_T0_RKT1_
FNDA:160,_ZNSt11__iter_swapILb1EE9iter_swapIN9__gnu_cxx17__normal_iteratorIPN5fasta7ResidueESt6vectorIS5_SaIS5_EEEESA_EEvT_T0_
FNDA:160,_ZSt9iter_swapIN9__gnu_cxx17__normal_iteratorIPN5fasta7ResidueESt6vectorIS3_SaIS3_EEEES8_EvT_T0_
FNDA:0,_ZSt3maxImERKT_S2_S2_
FNDA:2440,_ZSt3maxIdERKT_S2_S2_
FNDA:0,_ZSt12__niter_baseIPiENSt11_Niter_baseIT_E13iterator_typeES2_
FNDA:0,_ZSt12__niter_baseIN9__gnu_cxx17__normal_iteratorIPdSt6vectorIdSaIdEEEEENSt11_Niter_baseIT_E13iterator_typeES8_
FNDA:0,_ZSt12__niter_baseIN9__gnu_cxx17__normal_iteratorIPKdSt6vectorIdSaIdEEEEENSt11_Niter_baseIT_E13iterator_typeES9_
FNDA:0,_ZSt12__niter_baseIPdENSt11_Niter_baseIT_E13iterator_typeES2_
FNDA:0,_ZSt12__niter_baseIPSsENSt11_Niter_baseIT_E13iterator_typeES2_
FNDA:0,_ZSt12__niter_baseIN9__gnu_cxx17__normal_iteratorIPSsSt6vectorISsSaISsEEEEENSt11_Niter_baseIT_E13iterator_typeES8_
FNDA:0,_ZSt12__niter_baseIN9__gnu_cxx17__normal_iteratorIPKSsSt6vectorISsSaISsEEEEENSt11_Niter_baseIT_E13iterator_typeES9_
FNDA:0,_ZSt12__niter_baseIPSt6vectorIdSaIdEEENSt11_Niter_baseIT_E13iterator_typeES5_
FNDA:0,_ZSt12__niter_baseIN9__gnu_cxx17__normal_iteratorIPSt6vectorIdSaIdEES2_IS4_SaIS4_EEEEENSt11_Niter_baseIT_E13iterator_typeESA_
FNDA:0,_ZSt12__miter_baseISt13move_iteratorIPiEENSt11_Miter_baseIT_E13iterator_typeES4_
FNDA:0,_ZSt12__miter_baseIPdENSt11_Miter_baseIT_E13iterator_typeES2_
FNDA:0,_ZSt12__miter_baseIN9__gnu_cxx17__normal_iteratorIPKdSt6vectorIdSaIdEEEEENSt11_Miter_baseIT_E13iterator_typeES9_
FNDA:0,_ZSt12__miter_baseIPSsENSt11_Miter_baseIT_E13iterator_typeES2_
FNDA:0,_ZSt12__miter_baseIN9__gnu_cxx17__normal_iteratorIPKSsSt6vectorISsSaISsEEEEENSt11_Miter_baseIT_E13iterator_typeES9_
FNDA:0,_ZNSt11__copy_moveILb0ELb0ESt26random_access_iterator_tagE8__copy_mIPSsS3_EET0_T_S5_S4_
FNDA:0,_ZNSt11__copy_moveILb0ELb0ESt26random_access_iterator_tagE8__copy_mIPKSsPSsEET0_T_S7_S6_
FNDA:0,_ZNSt11__copy_moveILb1ELb1ESt26random_access_iterator_tagE8__copy_mIiEEPT_PKS3_S6_S4_
FNDA:0,_ZNSt11__copy_moveILb0ELb1ESt26random_access_iterator_tagE8__copy_mIdEEPT_PKS3_S6_S4_
FNDA:0,_ZSt13__copy_move_aILb1EPiS0_ET1_T0_S2_S1_
FNDA:0,_ZSt13__copy_move_aILb0EPdS0_ET1_T0_S2_S1_
FNDA:0,_ZSt13__copy_move_aILb0EPKdPdET1_T0_S4_S3_
FNDA:0,_ZSt13__copy_move_aILb0EPSsS0_ET1_T0_S2_S1_
FNDA:0,_ZSt13__copy_move_aILb0EPKSsPSsET1_T0_S4_S3_
FNDA:0,_ZSt14__copy_move_a2ILb0EN9__gnu_cxx17__normal_iteratorIPKdSt6vectorIdSaIdEEEEPdET1_T0_SA_S9_
FNDA:0,_ZSt14__copy_move_a2ILb1EPiS0_ET1_T0_S2_S1_
FNDA:0,_ZSt14__copy_move_a2ILb0EPdS0_ET1_T0_S2_S1_
FNDA:0,_ZSt14__copy_move_a2ILb0EN9__gnu_cxx17__normal_iteratorIPKdSt6vectorIdSaIdEEEENS1_IPdS6_EEET1_T0_SB_SA_
FNDA:0,_ZSt14__copy_move_a2ILb0EPSsS0_ET1_T0_S2_S1_
FNDA:0,_ZSt14__copy_move_a2ILb0EN9__gnu_cxx17__normal_iteratorIPKSsSt6vectorISsSaISsEEEENS1_IPSsS6_EEET1_T0_SB_SA_
FNDA:0,_ZSt4copyIN9__gnu_cxx17__normal_iteratorIPKdSt6vectorIdSaIdEEEEPdET0_T_SA_S9_
FNDA:0,_ZSt4copyISt13move_iteratorIPiES1_ET0_T_S4_S3_
FNDA:0,_ZSt4copyIPdS0_ET0_T_S2_S1_
FNDA:0,_ZSt4copyIN9__gnu_cxx17__normal_iteratorIPKdSt6vectorIdSaIdEEEENS1_IPdS6_EEET0_T_SB_SA_
FNDA:0,_ZSt4copyIPSsS0_ET0_T_S2_S1_
FNDA:0,_ZSt4copyIN9__gnu_cxx17__normal_iteratorIPKSsSt6vectorISsSaISsEEEENS1_IPSsS6_EEET0_T_SB_SA_
FNDA:0,_ZSt8__fill_aIPSt6vectorIdSaIdEES2_EN9__gnu_cxx11__enable_ifIXntsrSt11__is_scalarIT0_E7__valueEvE6__typeET_SB_RKS7_
FNDA:0,_ZSt4fillIN9__gnu_cxx17__normal_iteratorIPSt6vectorIdSaIdEES2_IS4_SaIS4_EEEES4_EvT_S9_RKT0_
FNDA:0,_ZSt10__fill_n_aIPSt6vectorIdSaIdEEmS2_EN9__gnu_cxx11__enable_ifIXntsrSt11__is_scalarIT1_E7__valueET_E6__typeES9_T0_RKS7_
FNDA:0,_ZSt10__fill_n_aIPdmdEN9__gnu_cxx11__enable_ifIXsrSt11__is_scalarIT1_E7__valueET_E6__typeES6_T0_RKS4_
FNDA:0,_ZSt6fill_nIPdmdET_S1_T0_RKT1_
FNDA:0,_ZSt6fill_nIPSt6vectorIdSaIdEEmS2_ET_S4_T0_RKT1_
FNF:45
FNH:3
DA:100,160
DA:102,160
DA:103,160
DA:118,160
DA:139,160
DA:143,160
DA:210,2440
DA:215,2440
DA:216,1600
DA:217,840
DA:271,0
DA:272,0
DA:282,0
DA:283,0
DA:324,0
DA:327,0
DA:329,0
DA:330,0
DA:331,0
DA:333,0
DA:362,0
DA:364,0
DA:365,0
DA:366,0
DA:367,0
DA:373,0
DA:381,0
DA:384,0
DA:418,0
DA:422,0
DA:444,0
DA:454,0
DA:672,0
DA:675,0
DA:676,0
DA:677,0
DA:715,0
DA:722,0
DA:724,0
DA:729,0
DA:731,0
DA:733,0
DA:734,0
DA:740,0
DA:742,0
DA:743,0
DA:745,0
DA:746,0
DA:775,0
DA:780,0
LF:50
LH:10
end_of_record
SF:/usr/include/c++/4.7.2/bits/stl_construct.h
FN:76,_ZSt10_ConstructIN5fasta7ResidueEIS1_EEvPT_DpOT0_
FN:76,_ZSt10_ConstructIN5fasta7ResidueEIRKS1_EEvPT_DpOT0_
FN:76,_ZSt10_ConstructISt6vectorIdSaIdEEIRKS2_EEvPT_DpOT0_
FN:76,_ZSt10_ConstructISsIRKSsEEvPT_DpOT0_
FN:76,_ZSt10_ConstructIN5fasta8SequenceEIRKS1_EEvPT_DpOT0_
FN:76,_ZSt10_ConstructISsIRSsEEvPT_DpOT0_
FN:94,_ZSt8_DestroyIN5fasta8SequenceEEvPT_
FN:94,_ZSt8_DestroyISt6vectorIdSaIdEEEvPT_
FN:94,_ZSt8_DestroyISsEvPT_
FN:94,_ZSt8_DestroyIN5boost10filesystem18directory_iteratorEEvPT_
FN:94,_ZSt8_DestroyIN5fasta7ResidueEEvPT_
FN:102,_ZNSt12_Destroy_auxILb0EE9__destroyIPSt6vectorIdSaIdEEEEvT_S6_
FN:102,_ZNSt12_Destroy_auxILb0EE9__destroyIPN5boost10filesystem18directory_iteratorEEEvT_S6_
FN:102,_ZNSt12_Destroy_auxILb0EE9__destroyIPSsEEvT_S3_
FN:102,_ZNSt12_Destroy_auxILb0EE9__destroyIN9__gnu_cxx17__normal_iteratorIPSsSt6vectorISsSaISsEEEEEEvT_S9_
FN:102,_ZNSt12_Destroy_auxILb0EE9__destroyIPN5fasta7ResidueEEEvT_S5_
FN:102,_ZNSt12_Destroy_auxILb0EE9__destroyIPN5fasta8SequenceEEEvT_S5_
FN:114,_ZNSt12_Destroy_auxILb1EE9__destroyIN9__gnu_cxx17__normal_iteratorIPdSt6vectorIdSaIdEEEEEEvT_S9_
FN:114,_ZNSt12_Destroy_auxILb1EE9__destroyIPiEEvT_S3_
FN:114,_ZNSt12_Destroy_auxILb1EE9__destroyIPdEEvT_S3_
FN:124,_ZSt8_DestroyIPiEvT_S1_
FN:124,_ZSt8_DestroyIPN5fasta7ResidueEEvT_S3_
FN:124,_ZSt8_DestroyIPSt6vectorIdSaIdEEEvT_S4_
FN:124,_ZSt8_DestroyIPN5fasta8SequenceEEvT_S3_
FN:124,_ZSt8_DestroyIPN5boost10filesystem18directory_iteratorEEvT_S4_
FN:124,_ZSt8_DestroyIN9__gnu_cxx17__normal_iteratorIPSsSt6vectorISsSaISsEEEEEvT_S7_
FN:124,_ZSt8_DestroyIPdEvT_S1_
FN:124,_ZSt8_DestroyIPSsEvT_S1_
FN:124,_ZSt8_DestroyIN9__gnu_cxx17__normal_iteratorIPdSt6vectorIdSaIdEEEEEvT_S7_
FN:152,_ZSt8_DestroyIN9__gnu_cxx17__normal_iteratorIPdSt6vectorIdSaIdEEEEdEvT_S7_RSaIT0_E
FN:152,_ZSt8_DestroyIPN5boost10filesystem18directory_iteratorES2_EvT_S4_RSaIT0_E
FN:152,_ZSt8_DestroyIPiiEvT_S1_RSaIT0_E
FN:152,_ZSt8_DestroyIPSt6vectorIdSaIdEES2_EvT_S4_RSaIT0_E
FN:152,_ZSt8_DestroyIPSsSsEvT_S1_RSaIT0_E
FN:152,_ZSt8_DestroyIN9__gnu_cxx17__normal_iteratorIPSsSt6vectorISsSaISsEEEESsEvT_S7_RSaIT0_E
FN:152,_ZSt8_DestroyIPN5fasta7ResidueES1_EvT_S3_RSaIT0_E
FN:152,_ZSt8_DestroyIPddEvT_S1_RSaIT0_E
FNDA:0,_ZSt10_ConstructIN5fasta7ResidueEIS1_EEvPT_DpOT0_
FNDA:444,_ZSt10_ConstructIN5fasta8SequenceEIRKS1_EEvPT_DpOT0_
FNDA:528,_ZSt10_ConstructISt6vectorIdSaIdEEIRKS2_EEvPT_DpOT0_
FNDA:0,_ZSt10_ConstructIN5fasta7ResidueEIRKS1_EEvPT_DpOT0_
FNDA:0,_ZSt10_ConstructISsIRSsEEvPT_DpOT0_
FNDA:0,_ZSt10_ConstructISsIRKSsEEvPT_DpOT0_
FNDA:0,_ZSt8_DestroyIN5fasta8SequenceEEvPT_
FNDA:0,_ZSt8_DestroyIN5fasta7ResidueEEvPT_
FNDA:528,_ZSt8_DestroyISt6vectorIdSaIdEEEvPT_
FNDA:0,_ZSt8_DestroyIN5boost10filesystem18directory_iteratorEEvPT_
FNDA:0,_ZSt8_DestroyISsEvPT_
FNDA:0,_ZNSt12_Destroy_auxILb0EE9__destroyIPN5fasta8SequenceEEEvT_S5_
FNDA:0,_ZNSt12_Destroy_auxILb0EE9__destroyIN9__gnu_cxx17__normal_iteratorIPSsSt6vectorISsSaISsEEEEEEvT_S9_
FNDA:0,_ZNSt12_Destroy_auxILb0EE9__destroyIPN5fasta7ResidueEEEvT_S5_
FNDA:120,_ZNSt12_Destroy_auxILb0EE9__destroyIPSt6vectorIdSaIdEEEEvT_S6_
FNDA:0,_ZNSt12_Destroy_auxILb0EE9__destroyIPN5boost10filesystem18directory_iteratorEEEvT_S6_
FNDA:0,_ZNSt12_Destroy_auxILb0EE9__destroyIPSsEEvT_S3_
FNDA:0,_ZNSt12_Destroy_auxILb1EE9__destroyIN9__gnu_cxx17__normal_iteratorIPdSt6vectorIdSaIdEEEEEEvT_S9_
FNDA:0,_ZNSt12_Destroy_auxILb1EE9__destroyIPiEEvT_S3_
FNDA:0,_ZNSt12_Destroy_auxILb1EE9__destroyIPdEEvT_S3_
FNDA:0,_ZSt8_DestroyIN9__gnu_cxx17__normal_iteratorIPdSt6vectorIdSaIdEEEEEvT_S7_
FNDA:0,_ZSt8_DestroyIPN5fasta8SequenceEEvT_S3_
FNDA:0,_ZSt8_DestroyIN9__gnu_cxx17__normal_iteratorIPSsSt6vectorISsSaISsEEEEEvT_S7_
FNDA:0,_ZSt8_DestroyIPN5fasta7ResidueEEvT_S3_
FNDA:0,_ZSt8_DestroyIPiEvT_S1_
FNDA:0,_ZSt8_DestroyIPdEvT_S1_
FNDA:120,_ZSt8_DestroyIPSt6vectorIdSaIdEEEvT_S4_
FNDA:0,_ZSt8_DestroyIPN5boost10filesystem18directory_iteratorEEvT_S4_
FNDA:0,_ZSt8_DestroyIPSsEvT_S1_
FNDA:0,_ZSt8_DestroyIN9__gnu_cxx17__normal_iteratorIPdSt6vectorIdSaIdEEEEdEvT_S7_RSaIT0_E
FNDA:0,_ZSt8_DestroyIN9__gnu_cxx17__normal_iteratorIPSsSt6vectorISsSaISsEEEESsEvT_S7_RSaIT0_E
FNDA:0,_ZSt8_DestroyIPN5fasta7ResidueES1_EvT_S3_RSaIT0_E
FNDA:0,_ZSt8_DestroyIPiiEvT_S1_RSaIT0_E
FNDA:0,_ZSt8_DestroyIPddEvT_S1_RSaIT0_E
FNDA:120,_ZSt8_DestroyIPSt6vectorIdSaIdEES2_EvT_S4_RSaIT0_E
FNDA:0,_ZSt8_DestroyIPN5boost10filesystem18directory_iteratorES2_EvT_S4_RSaIT0_E
FNDA:0,_ZSt8_DestroyIPSsSsEvT_S1_RSaIT0_E
FNF:37
FNH:6
DA:76,972
DA:77,972
DA:94,528
DA:95,528
DA:102,120
DA:104,648
DA:105,528
DA:106,120
DA:114,0
DA:124,120
DA:128,120
DA:130,120
DA:152,120
DA:155,120
DA:156,120
LF:15
LH:14
end_of_record
SF:/usr/include/c++/4.7.2/bits/stl_function.h
FN:236,_ZNKSt4lessIcEclERKcS2_
FN:502,_ZNKSt10_Select1stISt4pairIKcSt6vectorIdSaIdEEEEclERKS5_
FNDA:0,_ZNKSt4lessIcEclERKcS2_
FNDA:0,_ZNKSt10_Select1stISt4pairIKcSt6vectorIdSaIdEEEEclERKS5_
FNF:2
FNH:0
DA:236,0
DA:237,0
DA:502,0
DA:503,0
LF:4
LH:0
end_of_record
SF:/usr/include/c++/4.7.2/bits/stl_iterator.h
FN:728,_ZN9__gnu_cxx17__normal_iteratorIPdSt6vectorIdSaIdEEEC2ERKS1_
FN:728,_ZN9__gnu_cxx17__normal_iteratorIPSsSt6vectorISsSaISsEEEC2ERKS1_
FN:728,_ZN9__gnu_cxx17__normal_iteratorIPKSsSt6vectorISsSaISsEEEC2ERKS2_
FN:728,_ZN9__gnu_cxx17__normal_iteratorIPSt6vectorIdSaIdEES1_IS3_SaIS3_EEEC2ERKS4_
FN:728,_ZN9__gnu_cxx17__normal_iteratorIPKN5fasta7ResidueESt6vectorIS2_SaIS2_EEEC2ERKS4_
FN:728,_ZN9__gnu_cxx17__normal_iteratorIPKdSt6vectorIdSaIdEEEC2ERKS2_
FN:728,_ZN9__gnu_cxx17__normal_iteratorIPN5fasta7ResidueESt6vectorIS2_SaIS2_EEEC2ERKS3_
FN:740,_ZNK9__gnu_cxx17__normal_iteratorIPN5fasta7ResidueESt6vectorIS2_SaIS2_EEEdeEv
FN:740,_ZNK9__gnu_cxx17__normal_iteratorIPKN5fasta7ResidueESt6vectorIS2_SaIS2_EEEdeEv
FN:740,_ZNK9__gnu_cxx17__normal_iteratorIPSsSt6vectorISsSaISsEEEdeEv
FN:740,_ZNK9__gnu_cxx17__normal_iteratorIPKSsSt6vectorISsSaISsEEEdeEv
FN:748,_ZN9__gnu_cxx17__normal_iteratorIPN5fasta7ResidueESt6vectorIS2_SaIS2_EEEppEv
FN:748,_ZN9__gnu_cxx17__normal_iteratorIPKN5fasta7ResidueESt6vectorIS2_SaIS2_EEEppEv
FN:748,_ZN9__gnu_cxx17__normal_iteratorIPSsSt6vectorISsSaISsEEEppEv
FN:748,_ZN9__gnu_cxx17__normal_iteratorIPKSsSt6vectorISsSaISsEEEppEv
FN:760,_ZN9__gnu_cxx17__normal_iteratorIPN5fasta7ResidueESt6vectorIS2_SaIS2_EEEmmEv
FN:792,_ZNK9__gnu_cxx17__normal_iteratorIPKSsSt6vectorISsSaISsEEE4baseEv
FN:792,_ZNK9__gnu_cxx17__normal_iteratorIPSt6vectorIdSaIdEES1_IS3_SaIS3_EEE4baseEv
FN:792,_ZNK9__gnu_cxx17__normal_iteratorIPdSt6vectorIdSaIdEEE4baseEv
FN:792,_ZNK9__gnu_cxx17__normal_iteratorIPSsSt6vectorISsSaISsEEE4baseEv
FN:792,_ZNK9__gnu_cxx17__normal_iteratorIPN5fasta7ResidueESt6vectorIS2_SaIS2_EEE4baseEv
FN:792,_ZNK9__gnu_cxx17__normal_iteratorIPKdSt6vectorIdSaIdEEE4baseEv
FN:792,_ZNK9__gnu_cxx17__normal_iteratorIPKN5fasta7ResidueESt6vectorIS2_SaIS2_EEE4baseEv
FN:813,_ZN9__gnu_cxxeqIPN5fasta7ResidueESt6vectorIS2_SaIS2_EEEEbRKNS_17__normal_iteratorIT_T0_EESC_
FN:825,_ZN9__gnu_cxxneIPKN5fasta7ResidueESt6vectorIS2_SaIS2_EEEEbRKNS_17__normal_iteratorIT_T0_EESD_
FN:825,_ZN9__gnu_cxxneIPSsSt6vectorISsSaISsEEEEbRKNS_17__normal_iteratorIT_T0_EESA_
FN:825,_ZN9__gnu_cxxneIPKSsSt6vectorISsSaISsEEEEbRKNS_17__normal_iteratorIT_T0_EESB_
FN:838,_ZN9__gnu_cxxltIPN5fasta7ResidueESt6vectorIS2_SaIS2_EEEEbRKNS_17__normal_iteratorIT_T0_EESC_
FN:952,_ZNSt13move_iteratorIPiEC2ES0_
FN:952,_ZNSt13move_iteratorIPN5fasta7ResidueEEC2ES2_
FN:960,_ZNKSt13move_iteratorIPN5fasta7ResidueEE4baseEv
FN:960,_ZNKSt13move_iteratorIPiE4baseEv
FN:964,_ZNKSt13move_iteratorIPN5fasta7ResidueEEdeEv
FN:972,_ZNSt13move_iteratorIPN5fasta7ResidueEEppEv
FN:1039,_ZSteqIPN5fasta7ResidueEEbRKSt13move_iteratorIT_ES7_
FN:1051,_ZStneIPN5fasta7ResidueEEbRKSt13move_iteratorIT_ES7_
FN:1134,_ZSt32__make_move_if_noexcept_iteratorIPiSt13move_iteratorIS0_EET0_T_
FN:1134,_ZSt32__make_move_if_noexcept_iteratorIPN5fasta7ResidueESt13move_iteratorIS2_EET0_T_
FNDA:0,_ZN9__gnu_cxx17__normal_iteratorIPdSt6vectorIdSaIdEEEC2ERKS1_
FNDA:0,_ZN9__gnu_cxx17__normal_iteratorIPKdSt6vectorIdSaIdEEEC2ERKS2_
FNDA:0,_ZN9__gnu_cxx17__normal_iteratorIPSt6vectorIdSaIdEES1_IS3_SaIS3_EEEC2ERKS4_
FNDA:0,_ZN9__gnu_cxx17__normal_iteratorIPKN5fasta7ResidueESt6vectorIS2_SaIS2_EEEC2ERKS4_
FNDA:0,_ZN9__gnu_cxx17__normal_iteratorIPSsSt6vectorISsSaISsEEEC2ERKS1_
FNDA:0,_ZN9__gnu_cxx17__normal_iteratorIPN5fasta7ResidueESt6vectorIS2_SaIS2_EEEC2ERKS3_
FNDA:0,_ZN9__gnu_cxx17__normal_iteratorIPKSsSt6vectorISsSaISsEEEC2ERKS2_
FNDA:0,_ZNK9__gnu_cxx17__normal_iteratorIPKN5fasta7ResidueESt6vectorIS2_SaIS2_EEEdeEv
FNDA:0,_ZNK9__gnu_cxx17__normal_iteratorIPN5fasta7ResidueESt6vectorIS2_SaIS2_EEEdeEv
FNDA:0,_ZNK9__gnu_cxx17__normal_iteratorIPSsSt6vectorISsSaISsEEEdeEv
FNDA:0,_ZNK9__gnu_cxx17__normal_iteratorIPKSsSt6vectorISsSaISsEEEdeEv
FNDA:0,_ZN9__gnu_cxx17__normal_iteratorIPKN5fasta7ResidueESt6vectorIS2_SaIS2_EEEppEv
FNDA:0,_ZN9__gnu_cxx17__normal_iteratorIPSsSt6vectorISsSaISsEEEppEv
FNDA:0,_ZN9__gnu_cxx17__normal_iteratorIPN5fasta7ResidueESt6vectorIS2_SaIS2_EEEppEv
FNDA:0,_ZN9__gnu_cxx17__normal_iteratorIPKSsSt6vectorISsSaISsEEEppEv
FNDA:200,_ZN9__gnu_cxx17__normal_iteratorIPN5fasta7ResidueESt6vectorIS2_SaIS2_EEEmmEv
FNDA:0,_ZNK9__gnu_cxx17__normal_iteratorIPdSt6vectorIdSaIdEEE4baseEv
FNDA:0,_ZNK9__gnu_cxx17__normal_iteratorIPKdSt6vectorIdSaIdEEE4baseEv
FNDA:0,_ZNK9__gnu_cxx17__normal_iteratorIPKN5fasta7ResidueESt6vectorIS2_SaIS2_EEE4baseEv
FNDA:0,_ZNK9__gnu_cxx17__normal_iteratorIPSsSt6vectorISsSaISsEEE4baseEv
FNDA:0,_ZNK9__gnu_cxx17__normal_iteratorIPSt6vectorIdSaIdEES1_IS3_SaIS3_EEE4baseEv
FNDA:0,_ZNK9__gnu_cxx17__normal_iteratorIPN5fasta7ResidueESt6vectorIS2_SaIS2_EEE4baseEv
FNDA:0,_ZNK9__gnu_cxx17__normal_iteratorIPKSsSt6vectorISsSaISsEEE4baseEv
FNDA:40,_ZN9__gnu_cxxeqIPN5fasta7ResidueESt6vectorIS2_SaIS2_EEEEbRKNS_17__normal_iteratorIT_T0_EESC_
FNDA:0,_ZN9__gnu_cxxneIPKN5fasta7ResidueESt6vectorIS2_SaIS2_EEEEbRKNS_17__normal_iteratorIT_T0_EESD_
FNDA:0,_ZN9__gnu_cxxneIPSsSt6vectorISsSaISsEEEEbRKNS_17__normal_iteratorIT_T0_EESA_
FNDA:0,_ZN9__gnu_cxxneIPKSsSt6vectorISsSaISsEEEEbRKNS_17__normal_iteratorIT_T0_EESB_
FNDA:200,_ZN9__gnu_cxxltIPN5fasta7ResidueESt6vectorIS2_SaIS2_EEEEbRKNS_17__normal_iteratorIT_T0_EESC_
FNDA:0,_ZNSt13move_iteratorIPN5fasta7ResidueEEC2ES2_
FNDA:0,_ZNSt13move_iteratorIPiEC2ES0_
FNDA:0,_ZNKSt13move_iteratorIPiE4baseEv
FNDA:0,_ZNKSt13move_iteratorIPN5fasta7ResidueEE4baseEv
FNDA:0,_ZNKSt13move_iteratorIPN5fasta7ResidueEEdeEv
FNDA:0,_ZNSt13move_iteratorIPN5fasta7ResidueEEppEv
FNDA:0,_ZSteqIPN5fasta7ResidueEEbRKSt13move_iteratorIT_ES7_
FNDA:0,_ZStneIPN5fasta7ResidueEEbRKSt13move_iteratorIT_ES7_
FNDA:0,_ZSt32__make_move_if_noexcept_iteratorIPN5fasta7ResidueESt13move_iteratorIS2_EET0_T_
FNDA:0,_ZSt32__make_move_if_noexcept_iteratorIPiSt13move_iteratorIS0_EET0_T_
FNF:38
FNH:3
DA:728,0
DA:740,0
DA:741,0
DA:748,0
DA:750,0
DA:751,0
DA:760,200
DA:762,200
DA:763,200
DA:792,0
DA:793,0
DA:813,40
DA:815,40
DA:825,0
DA:827,0
DA:838,200
DA:840,200
DA:952,0
DA:953,0
DA:960,0
DA:961,0
DA:964,0
DA:965,0
DA:972,0
DA:974,0
DA:975,0
DA:1039,0
DA:1041,0
DA:1051,0
DA:1053,0
DA:1134,0
DA:1135,0
LF:32
LH:7
end_of_record
SF:/usr/include/c++/4.7.2/bits/stl_iterator_base_funcs.h
FN:90,_ZSt10__distanceIPKN5fasta8SequenceEENSt15iterator_traitsIT_E15difference_typeES5_S5_St26random_access_iterator_tag
FN:114,_ZSt8distanceIPKN5fasta8SequenceEENSt15iterator_traitsIT_E15difference_typeES5_S5_
FNDA:188,_ZSt10__distanceIPKN5fasta8SequenceEENSt15iterator_traitsIT_E15difference_typeES5_S5_St26random_access_iterator_tag
FNDA:188,_ZSt8distanceIPKN5fasta8SequenceEENSt15iterator_traitsIT_E15difference_typeES5_S5_
FNF:2
FNH:2
DA:90,188
DA:96,188
DA:114,188
DA:118,188
LF:4
LH:4
end_of_record
SF:/usr/include/c++/4.7.2/bits/stl_iterator_base_types.h
FN:202,_ZSt19__iterator_categoryIN9__gnu_cxx17__normal_iteratorIPN5fasta7ResidueESt6vectorIS3_SaIS3_EEEEENSt15iterator_traitsIT_E17iterator_categoryERKSA_
FN:202,_ZSt19__iterator_categoryIPKN5fasta8SequenceEENSt15iterator_traitsIT_E17iterator_categoryERKS5_
FN:213,_ZNSt10_Iter_baseIN9__gnu_cxx17__normal_iteratorIPKdSt6vectorIdSaIdEEEELb0EE7_S_baseES7_
FN:213,_ZNSt10_Iter_baseIPiLb0EE7_S_baseES0_
FN:213,_ZNSt10_Iter_baseIPSsLb0EE7_S_baseES0_
FN:213,_ZNSt10_Iter_baseIN9__gnu_cxx17__normal_iteratorIPKSsSt6vectorISsSaISsEEEELb0EE7_S_baseES7_
FN:213,_ZNSt10_Iter_baseIPdLb0EE7_S_baseES0_
FN:213,_ZNSt10_Iter_baseIPSt6vectorIdSaIdEELb0EE7_S_baseES3_
FN:221,_ZNSt10_Iter_baseIN9__gnu_cxx17__normal_iteratorIPSt6vectorIdSaIdEES2_IS4_SaIS4_EEEELb1EE7_S_baseES8_
FN:221,_ZNSt10_Iter_baseIN9__gnu_cxx17__normal_iteratorIPSsSt6vectorISsSaISsEEEELb1EE7_S_baseES6_
FN:221,_ZNSt10_Iter_baseISt13move_iteratorIPiELb1EE7_S_baseES2_
FN:221,_ZNSt10_Iter_baseIN9__gnu_cxx17__normal_iteratorIPKdSt6vectorIdSaIdEEEELb1EE7_S_baseES7_
FN:221,_ZNSt10_Iter_baseIN9__gnu_cxx17__normal_iteratorIPdSt6vectorIdSaIdEEEELb1EE7_S_baseES6_
FN:221,_ZNSt10_Iter_baseIN9__gnu_cxx17__normal_iteratorIPKSsSt6vectorISsSaISsEEEELb1EE7_S_baseES7_
FNDA:188,_ZSt19__iterator_categoryIPKN5fasta8SequenceEENSt15iterator_traitsIT_E17iterator_categoryERKS5_
FNDA:40,_ZSt19__iterator_categoryIN9__gnu_cxx17__normal_iteratorIPN5fasta7ResidueESt6vectorIS3_SaIS3_EEEEENSt15iterator_traitsIT_E17iterator_categoryERKSA_
FNDA:0,_ZNSt10_Iter_baseIPiLb0EE7_S_baseES0_
FNDA:0,_ZNSt10_Iter_baseIPdLb0EE7_S_baseES0_
FNDA:0,_ZNSt10_Iter_baseIN9__gnu_cxx17__normal_iteratorIPKdSt6vectorIdSaIdEEEELb0EE7_S_baseES7_
FNDA:0,_ZNSt10_Iter_baseIPSt6vectorIdSaIdEELb0EE7_S_baseES3_
FNDA:0,_ZNSt10_Iter_baseIPSsLb0EE7_S_baseES0_
FNDA:0,_ZNSt10_Iter_baseIN9__gnu_cxx17__normal_iteratorIPKSsSt6vectorISsSaISsEEEELb0EE7_S_baseES7_
FNDA:0,_ZNSt10_Iter_baseISt13move_iteratorIPiELb1EE7_S_baseES2_
FNDA:0,_ZNSt10_Iter_baseIN9__gnu_cxx17__normal_iteratorIPdSt6vectorIdSaIdEEEELb1EE7_S_baseES6_
FNDA:0,_ZNSt10_Iter_baseIN9__gnu_cxx17__normal_iteratorIPKdSt6vectorIdSaIdEEEELb1EE7_S_baseES7_
FNDA:0,_ZNSt10_Iter_baseIN9__gnu_cxx17__normal_iteratorIPSsSt6vectorISsSaISsEEEELb1EE7_S_baseES6_
FNDA:0,_ZNSt10_Iter_baseIN9__gnu_cxx17__normal_iteratorIPKSsSt6vectorISsSaISsEEEELb1EE7_S_baseES7_
FNDA:0,_ZNSt10_Iter_baseIN9__gnu_cxx17__normal_iteratorIPSt6vectorIdSaIdEES2_IS4_SaIS4_EEEELb1EE7_S_baseES8_
FNF:14
FNH:2
DA:202,228
DA:203,228
DA:213,0
DA:214,0
DA:221,0
DA:222,0
LF:6
LH:2
end_of_record
SF:/usr/include/c++/4.7.2/bits/stl_map.h
FN:323,_ZNKSt3mapIcSt6vectorIdSaIdEESt4lessIcESaISt4pairIKcS2_EEE5beginEv
FN:341,_ZNKSt3mapIcSt6vectorIdSaIdEESt4lessIcESaISt4pairIKcS2_EEE3endEv
FN:496,_ZNKSt3mapIcSt6vectorIdSaIdEESt4lessIcESaISt4pairIKcS2_EEE2atERS6_
FN:724,_ZNKSt3mapIcSt6vectorIdSaIdEESt4lessIcESaISt4pairIKcS2_EEE8key_compEv
FN:805,_ZNKSt3mapIcSt6vectorIdSaIdEESt4lessIcESaISt4pairIKcS2_EEE11lower_boundERS6_
FNDA:36,_ZNKSt3mapIcSt6vectorIdSaIdEESt4lessIcESaISt4pairIKcS2_EEE5beginEv
FNDA:0,_ZNKSt3mapIcSt6vectorIdSaIdEESt4lessIcESaISt4pairIKcS2_EEE3endEv
FNDA:0,_ZNKSt3mapIcSt6vectorIdSaIdEESt4lessIcESaISt4pairIKcS2_EEE2atERS6_
FNDA:0,_ZNKSt3mapIcSt6vectorIdSaIdEESt4lessIcESaISt4pairIKcS2_EEE8key_compEv
FNDA:0,_ZNKSt3mapIcSt6vectorIdSaIdEESt4lessIcESaISt4pairIKcS2_EEE11lower_boundERS6_
FNF:5
FNH:1
DA:323,36
DA:324,36
DA:341,0
DA:342,0
DA:496,0
DA:498,0
DA:499,0
DA:500,0
DA:501,0
DA:724,0
DA:725,0
DA:805,0
DA:806,0
LF:13
LH:2
end_of_record
SF:/usr/include/c++/4.7.2/bits/stl_stack.h
FN:95,_ZNSt5stackIN5boost10filesystem18directory_iteratorESt6vectorIS2_SaIS2_EEED2Ev
FNDA:0,_ZNSt5stackIN5boost10filesystem18directory_iteratorESt6vectorIS2_SaIS2_EEED2Ev
FNF:1
FNH:0
DA:95,0
LF:1
LH:0
end_of_record
SF:/usr/include/c++/4.7.2/bits/stl_tree.h
FN:246,_ZNSt23_Rb_tree_const_iteratorISt4pairIKcSt6vectorIdSaIdEEEEC2EPKSt13_Rb_tree_nodeIS5_E
FN:258,_ZNKSt23_Rb_tree_const_iteratorISt4pairIKcSt6vectorIdSaIdEEEEdeEv
FN:262,_ZNKSt23_Rb_tree_const_iteratorISt4pairIKcSt6vectorIdSaIdEEEEptEv
FN:297,_ZNKSt23_Rb_tree_const_iteratorISt4pairIKcSt6vectorIdSaIdEEEEeqERKS6_
FN:503,_ZNKSt8_Rb_treeIcSt4pairIKcSt6vectorIdSaIdEEESt10_Select1stIS5_ESt4lessIcESaIS5_EE8_M_beginEv
FN:514,_ZNKSt8_Rb_treeIcSt4pairIKcSt6vectorIdSaIdEEESt10_Select1stIS5_ESt4lessIcESaIS5_EE6_M_endEv
FN:518,_ZNSt8_Rb_treeIcSt4pairIKcSt6vectorIdSaIdEEESt10_Select1stIS5_ESt4lessIcESaIS5_EE8_S_valueEPKSt13_Rb_tree_nodeIS5_E
FN:522,_ZNSt8_Rb_treeIcSt4pairIKcSt6vectorIdSaIdEEESt10_Select1stIS5_ESt4lessIcESaIS5_EE6_S_keyEPKSt13_Rb_tree_nodeIS5_E
FN:530,_ZNSt8_Rb_treeIcSt4pairIKcSt6vectorIdSaIdEEESt10_Select1stIS5_ESt4lessIcESaIS5_EE7_S_leftEPKSt18_Rb_tree_node_base
FN:538,_ZNSt8_Rb_treeIcSt4pairIKcSt6vectorIdSaIdEEESt10_Select1stIS5_ESt4lessIcESaIS5_EE8_S_rightEPKSt18_Rb_tree_node_base
FN:653,_ZNKSt8_Rb_treeIcSt4pairIKcSt6vectorIdSaIdEEESt10_Select1stIS5_ESt4lessIcESaIS5_EE8key_compEv
FN:664,_ZNKSt8_Rb_treeIcSt4pairIKcSt6vectorIdSaIdEEESt10_Select1stIS5_ESt4lessIcESaIS5_EE5beginEv
FN:675,_ZNKSt8_Rb_treeIcSt4pairIKcSt6vectorIdSaIdEEESt10_Select1stIS5_ESt4lessIcESaIS5_EE3endEv
FN:838,_ZNKSt8_Rb_treeIcSt4pairIKcSt6vectorIdSaIdEEESt10_Select1stIS5_ESt4lessIcESaIS5_EE11lower_boundERS1_
FN:1109,_ZNKSt8_Rb_treeIcSt4pairIKcSt6vectorIdSaIdEEESt10_Select1stIS5_ESt4lessIcESaIS5_EE14_M_lower_boundEPKSt13_Rb_tree_nodeIS5_ESF_RS1_
FNDA:0,_ZNSt23_Rb_tree_const_iteratorISt4pairIKcSt6vectorIdSaIdEEEEC2EPKSt13_Rb_tree_nodeIS5_E
FNDA:0,_ZNKSt23_Rb_tree_const_iteratorISt4pairIKcSt6vectorIdSaIdEEEEdeEv
FNDA:36,_ZNKSt23_Rb_tree_const_iteratorISt4pairIKcSt6vectorIdSaIdEEEEptEv
FNDA:0,_ZNKSt23_Rb_tree_const_iteratorISt4pairIKcSt6vectorIdSaIdEEEEeqERKS6_
FNDA:0,_ZNKSt8_Rb_treeIcSt4pairIKcSt6vectorIdSaIdEEESt10_Select1stIS5_ESt4lessIcESaIS5_EE8_M_beginEv
FNDA:0,_ZNKSt8_Rb_treeIcSt4pairIKcSt6vectorIdSaIdEEESt10_Select1stIS5_ESt4lessIcESaIS5_EE6_M_endEv
FNDA:0,_ZNSt8_Rb_treeIcSt4pairIKcSt6vectorIdSaIdEEESt10_Select1stIS5_ESt4lessIcESaIS5_EE8_S_valueEPKSt13_Rb_tree_nodeIS5_E
FNDA:0,_ZNSt8_Rb_treeIcSt4pairIKcSt6vectorIdSaIdEEESt10_Select1stIS5_ESt4lessIcESaIS5_EE6_S_keyEPKSt13_Rb_tree_nodeIS5_E
FNDA:0,_ZNSt8_Rb_treeIcSt4pairIKcSt6vectorIdSaIdEEESt10_Select1stIS5_ESt4lessIcESaIS5_EE7_S_leftEPKSt18_Rb_tree_node_base
FNDA:0,_ZNSt8_Rb_treeIcSt4pairIKcSt6vectorIdSaIdEEESt10_Select1stIS5_ESt4lessIcESaIS5_EE8_S_rightEPKSt18_Rb_tree_node_base
FNDA:0,_ZNKSt8_Rb_treeIcSt4pairIKcSt6vectorIdSaIdEEESt10_Select1stIS5_ESt4lessIcESaIS5_EE8key_compEv
FNDA:36,_ZNKSt8_Rb_treeIcSt4pairIKcSt6vectorIdSaIdEEESt10_Select1stIS5_ESt4lessIcESaIS5_EE5beginEv
FNDA:0,_ZNKSt8_Rb_treeIcSt4pairIKcSt6vectorIdSaIdEEESt10_Select1stIS5_ESt4lessIcESaIS5_EE3endEv
FNDA:0,_ZNKSt8_Rb_treeIcSt4pairIKcSt6vectorIdSaIdEEESt10_Select1stIS5_ESt4lessIcESaIS5_EE11lower_boundERS1_
FNDA:0,_ZNKSt8_Rb_treeIcSt4pairIKcSt6vectorIdSaIdEEESt10_Select1stIS5_ESt4lessIcESaIS5_EE14_M_lower_boundEPKSt13_Rb_tree_nodeIS5_ESF_RS1_
FNF:15
FNH:2
DA:246,0
DA:247,0
DA:258,0
DA:259,0
DA:262,36
DA:264,36
DA:297,0
DA:298,0
DA:503,0
DA:506,0
DA:514,0
DA:515,0
DA:518,0
DA:519,0
DA:522,0
DA:523,0
DA:530,0
DA:531,0
DA:538,0
DA:539,0
DA:653,0
DA:654,0
DA:664,36
DA:667,36
DA:675,0
DA:678,0
DA:838,0
DA:839,0
DA:1109,0
DA:1113,0
DA:1114,0
DA:1115,0
DA:1117,0
DA:1118,0
LF:34
LH:4
end_of_record
SF:/usr/include/c++/4.7.2/bits/stl_uninitialized.h
FN:70,_ZNSt20__uninitialized_copyILb0EE13__uninit_copyIN9__gnu_cxx17__normal_iteratorIPKSsSt6vectorISsSaISsEEEEPSsEET0_T_SC_SB_
FN:70,_ZNSt20__uninitialized_copyILb0EE13__uninit_copyIN9__gnu_cxx17__normal_iteratorIPKN5fasta7ResidueESt6vectorIS5_SaIS5_EEEEPS5_EET0_T_SE_SD_
FN:70,_ZNSt20__uninitialized_copyILb0EE13__uninit_copyISt13move_iteratorIPN5fasta7ResidueEES5_EET0_T_S8_S7_
FN:70,_ZNSt20__uninitialized_copyILb0EE13__uninit_copyIPSsS2_EET0_T_S4_S3_
FN:70,_ZNSt20__uninitialized_copyILb0EE13__uninit_copyIPKN5fasta8SequenceEPS3_EET0_T_S8_S7_
FN:93,_ZNSt20__uninitialized_copyILb1EE13__uninit_copyISt13move_iteratorIPiES3_EET0_T_S6_S5_
FN:93,_ZNSt20__uninitialized_copyILb1EE13__uninit_copyIPdS2_EET0_T_S4_S3_
FN:93,_ZNSt20__uninitialized_copyILb1EE13__uninit_copyIN9__gnu_cxx17__normal_iteratorIPKdSt6vectorIdSaIdEEEEPdEET0_T_SC_SB_
FN:109,_ZSt18uninitialized_copyIPKN5fasta8SequenceEPS1_ET0_T_S6_S5_
FN:109,_ZSt18uninitialized_copyIPSsS0_ET0_T_S2_S1_
FN:109,_ZSt18uninitialized_copyIN9__gnu_cxx17__normal_iteratorIPKN5fasta7ResidueESt6vectorIS3_SaIS3_EEEEPS3_ET0_T_SC_SB_
FN:109,_ZSt18uninitialized_copyIN9__gnu_cxx17__normal_iteratorIPKSsSt6vectorISsSaISsEEEEPSsET0_T_SA_S9_
FN:109,_ZSt18uninitialized_copyISt13move_iteratorIPN5fasta7ResidueEES3_ET0_T_S6_S5_
FN:109,_ZSt18uninitialized_copyISt13move_iteratorIPiES1_ET0_T_S4_S3_
FN:109,_ZSt18uninitialized_copyIPdS0_ET0_T_S2_S1_
FN:109,_ZSt18uninitialized_copyIN9__gnu_cxx17__normal_iteratorIPKdSt6vectorIdSaIdEEEEPdET0_T_SA_S9_
FN:182,_ZNSt22__uninitialized_fill_nILb0EE15__uninit_fill_nIPSt6vectorIdSaIdEEmS4_EEvT_T0_RKT1_
FN:204,_ZNSt22__uninitialized_fill_nILb1EE15__uninit_fill_nIPdmdEEvT_T0_RKT1_
FN:220,_ZSt20uninitialized_fill_nIPdmdEvT_T0_RKT1_
FN:220,_ZSt20uninitialized_fill_nIPSt6vectorIdSaIdEEmS2_EvT_T0_RKT1_
FN:258,_ZSt22__uninitialized_copy_aISt13move_iteratorIPiES1_iET0_T_S4_S3_RSaIT1_E
FN:258,_ZSt22__uninitialized_copy_aIPdS0_dET0_T_S2_S1_RSaIT1_E
FN:258,_ZSt22__uninitialized_copy_aIPSsS0_SsET0_T_S2_S1_RSaIT1_E
FN:258,_ZSt22__uninitialized_copy_aIN9__gnu_cxx17__normal_iteratorIPKN5fasta7ResidueESt6vectorIS3_SaIS3_EEEEPS3_S3_ET0_T_SC_SB_RSaIT1_E
FN:258,_ZSt22__uninitialized_copy_aISt13move_iteratorIPN5fasta7ResidueEES3_S2_ET0_T_S6_S5_RSaIT1_E
FN:258,_ZSt22__uninitialized_copy_aIN9__gnu_cxx17__normal_iteratorIPKdSt6vectorIdSaIdEEEEPddET0_T_SA_S9_RSaIT1_E
FN:258,_ZSt22__uninitialized_copy_aIN9__gnu_cxx17__normal_iteratorIPKSsSt6vectorISsSaISsEEEEPSsSsET0_T_SA_S9_RSaIT1_E
FN:258,_ZSt22__uninitialized_copy_aIPKN5fasta8SequenceEPS1_S1_ET0_T_S6_S5_RSaIT1_E
FN:276,_ZSt34__uninitialized_move_if_noexcept_aIPiS0_SaIiEET0_T_S3_S2_RT1_
FN:276,_ZSt34__uninitialized_move_if_noexcept_aIPN5fasta7ResidueES2_SaIS1_EET0_T_S5_S4_RT1_
FN:334,_ZSt24__uninitialized_fill_n_aIPSt6vectorIdSaIdEEmS2_S2_EvT_T0_RKT1_RSaIT2_E
FN:334,_ZSt24__uninitialized_fill_n_aIPdmddEvT_T0_RKT1_RSaIT2_E
FNDA:0,_ZNSt20__uninitialized_copyILb0EE13__uninit_copyISt13move_iteratorIPN5fasta7ResidueEES5_EET0_T_S8_S7_
FNDA:188,_ZNSt20__uninitialized_copyILb0EE13__uninit_copyIPKN5fasta8SequenceEPS3_EET0_T_S8_S7_
FNDA:0,_ZNSt20__uninitialized_copyILb0EE13__uninit_copyIN9__gnu_cxx17__normal_iteratorIPKN5fasta7ResidueESt6vectorIS5_SaIS5_EEEEPS5_EET0_T_SE_SD_
FNDA:0,_ZNSt20__uninitialized_copyILb0EE13__uninit_copyIPSsS2_EET0_T_S4_S3_
FNDA:0,_ZNSt20__uninitialized_copyILb0EE13__uninit_copyIN9__gnu_cxx17__normal_iteratorIPKSsSt6vectorISsSaISsEEEEPSsEET0_T_SC_SB_
FNDA:0,_ZNSt20__uninitialized_copyILb1EE13__uninit_copyIN9__gnu_cxx17__normal_iteratorIPKdSt6vectorIdSaIdEEEEPdEET0_T_SC_SB_
FNDA:0,_ZNSt20__uninitialized_copyILb1EE13__uninit_copyIPdS2_EET0_T_S4_S3_
FNDA:0,_ZNSt20__uninitialized_copyILb1EE13__uninit_copyISt13move_iteratorIPiES3_EET0_T_S6_S5_
FNDA:0,_ZSt18uninitialized_copyIN9__gnu_cxx17__normal_iteratorIPKdSt6vectorIdSaIdEEEEPdET0_T_SA_S9_
FNDA:0,_ZSt18uninitialized_copyIPdS0_ET0_T_S2_S1_
FNDA:0,_ZSt18uninitialized_copyISt13move_iteratorIPN5fasta7ResidueEES3_ET0_T_S6_S5_
FNDA:0,_ZSt18uninitialized_copyISt13move_iteratorIPiES1_ET0_T_S4_S3_
FNDA:188,_ZSt18uninitialized_copyIPKN5fasta8SequenceEPS1_ET0_T_S6_S5_
FNDA:0,_ZSt18uninitialized_copyIN9__gnu_cxx17__normal_iteratorIPKN5fasta7ResidueESt6vectorIS3_SaIS3_EEEEPS3_ET0_T_SC_SB_
FNDA:0,_ZSt18uninitialized_copyIPSsS0_ET0_T_S2_S1_
FNDA:0,_ZSt18uninitialized_copyIN9__gnu_cxx17__normal_iteratorIPKSsSt6vectorISsSaISsEEEEPSsET0_T_SA_S9_
FNDA:60,_ZNSt22__uninitialized_fill_nILb0EE15__uninit_fill_nIPSt6vectorIdSaIdEEmS4_EEvT_T0_RKT1_
FNDA:0,_ZNSt22__uninitialized_fill_nILb1EE15__uninit_fill_nIPdmdEEvT_T0_RKT1_
FNDA:0,_ZSt20uninitialized_fill_nIPdmdEvT_T0_RKT1_
FNDA:60,_ZSt20uninitialized_fill_nIPSt6vectorIdSaIdEEmS2_EvT_T0_RKT1_
FNDA:0,_ZSt22__uninitialized_copy_aIN9__gnu_cxx17__normal_iteratorIPKdSt6vectorIdSaIdEEEEPddET0_T_SA_S9_RSaIT1_E
FNDA:0,_ZSt22__uninitialized_copy_aIPdS0_dET0_T_S2_S1_RSaIT1_E
FNDA:0,_ZSt22__uninitialized_copy_aISt13move_iteratorIPN5fasta7ResidueEES3_S2_ET0_T_S6_S5_RSaIT1_E
FNDA:0,_ZSt22__uninitialized_copy_aISt13move_iteratorIPiES1_iET0_T_S4_S3_RSaIT1_E
FNDA:188,_ZSt22__uninitialized_copy_aIPKN5fasta8SequenceEPS1_S1_ET0_T_S6_S5_RSaIT1_E
FNDA:0,_ZSt22__uninitialized_copy_aIN9__gnu_cxx17__normal_iteratorIPKN5fasta7ResidueESt6vectorIS3_SaIS3_EEEEPS3_S3_ET0_T_SC_SB_RSaIT1_E
FNDA:0,_ZSt22__uninitialized_copy_aIPSsS0_SsET0_T_S2_S1_RSaIT1_E
FNDA:0,_ZSt22__uninitialized_copy_aIN9__gnu_cxx17__normal_iteratorIPKSsSt6vectorISsSaISsEEEEPSsSsET0_T_SA_S9_RSaIT1_E
FNDA:0,_ZSt34__uninitialized_move_if_noexcept_aIPN5fasta7ResidueES2_SaIS1_EET0_T_S5_S4_RT1_
FNDA:0,_ZSt34__uninitialized_move_if_noexcept_aIPiS0_SaIiEET0_T_S3_S2_RT1_
FNDA:0,_ZSt24__uninitialized_fill_n_aIPdmddEvT_T0_RKT1_RSaIT2_E
FNDA:60,_ZSt24__uninitialized_fill_n_aIPSt6vectorIdSaIdEEmS2_S2_EvT_T0_RKT1_RSaIT2_E
FNF:32
FNH:6
DA:70,188
DA:73,188
DA:76,504
DA:77,316
DA:78,188
DA:80,0
DA:82,0
DA:83,0
DA:93,0
DA:95,0
DA:109,188
DA:119,188
DA:182,60
DA:185,60
DA:188,588
DA:189,528
DA:191,0
DA:193,0
DA:194,0
DA:196,60
DA:204,0
DA:206,0
DA:220,60
DA:225,60
DA:227,60
DA:258,188
DA:260,188
DA:276,0
DA:283,0
DA:334,60
DA:336,60
LF:31
LH:19
end_of_record
SF:/usr/include/c++/4.7.2/bits/stl_vector.h
FN:80,_ZNSt12_Vector_baseISt6vectorIdSaIdEESaIS2_EE12_Vector_implD2Ev
FN:80,_ZNSt12_Vector_baseIN5fasta8SequenceESaIS1_EE12_Vector_implD2Ev
FN:80,_ZNSt12_Vector_baseIdSaIdEE12_Vector_implD2Ev
FN:80,_ZNSt12_Vector_baseIN5boost10filesystem18directory_iteratorESaIS2_EE12_Vector_implD2Ev
FN:80,_ZNSt12_Vector_baseISsSaISsEE12_Vector_implD2Ev
FN:80,_ZNSt12_Vector_baseIiSaIiEE12_Vector_implD2Ev
FN:80,_ZNSt12_Vector_baseIN5fasta7ResidueESaIS1_EE12_Vector_implD2Ev
FN:87,_ZNSt12_Vector_baseIN5fasta7ResidueESaIS1_EE12_Vector_implC2Ev
FN:87,_ZNSt12_Vector_baseISt6vectorIdSaIdEESaIS2_EE12_Vector_implC2Ev
FN:87,_ZNSt12_Vector_baseIiSaIiEE12_Vector_implC2Ev
FN:87,_ZNSt12_Vector_baseISsSaISsEE12_Vector_implC2Ev
FN:91,_ZNSt12_Vector_baseISsSaISsEE12_Vector_implC2ERKS0_
FN:91,_ZNSt12_Vector_baseISt6vectorIdSaIdEESaIS2_EE12_Vector_implC2ERKS3_
FN:91,_ZNSt12_Vector_baseIN5fasta8SequenceESaIS1_EE12_Vector_implC2ERKS2_
FN:91,_ZNSt12_Vector_baseIN5fasta7ResidueESaIS1_EE12_Vector_implC2ERKS2_
FN:91,_ZNSt12_Vector_baseIdSaIdEE12_Vector_implC2ERKS0_
FN:96,_ZNSt12_Vector_baseIN5fasta7ResidueESaIS1_EE12_Vector_implC2EOS2_
FN:96,_ZNSt12_Vector_baseISsSaISsEE12_Vector_implC2EOS0_
FN:102,_ZNSt12_Vector_baseISsSaISsEE12_Vector_impl12_M_swap_dataERS2_
FN:102,_ZNSt12_Vector_baseIN5fasta7ResidueESaIS1_EE12_Vector_impl12_M_swap_dataERS4_
FN:102,_ZNSt12_Vector_baseISt6vectorIdSaIdEESaIS2_EE12_Vector_impl12_M_swap_dataERS5_
FN:114,_ZNSt12_Vector_baseIN5fasta8SequenceESaIS1_EE19_M_get_Tp_allocatorEv
FN:114,_ZNSt12_Vector_baseIN5fasta7ResidueESaIS1_EE19_M_get_Tp_allocatorEv
FN:114,_ZNSt12_Vector_baseIN5boost10filesystem18directory_iteratorESaIS2_EE19_M_get_Tp_allocatorEv
FN:114,_ZNSt12_Vector_baseIiSaIiEE19_M_get_Tp_allocatorEv
FN:114,_ZNSt12_Vector_baseIdSaIdEE19_M_get_Tp_allocatorEv
FN:114,_ZNSt12_Vector_baseISt6vectorIdSaIdEESaIS2_EE19_M_get_Tp_allocatorEv
FN:114,_ZNSt12_Vector_baseISsSaISsEE19_M_get_Tp_allocatorEv
FN:118,_ZNKSt12_Vector_baseISsSaISsEE19_M_get_Tp_allocatorEv
FN:118,_ZNKSt12_Vector_baseIdSaIdEE19_M_get_Tp_allocatorEv
FN:118,_ZNKSt12_Vector_baseIiSaIiEE19_M_get_Tp_allocatorEv
FN:118,_ZNKSt12_Vector_baseIN5fasta7ResidueESaIS1_EE19_M_get_Tp_allocatorEv
FN:125,_ZNSt12_Vector_baseIiSaIiEEC2Ev
FN:125,_ZNSt12_Vector_baseISt6vectorIdSaIdEESaIS2_EEC2Ev
FN:125,_ZNSt12_Vector_baseISsSaISsEEC2Ev
FN:125,_ZNSt12_Vector_baseIN5fasta7ResidueESaIS1_EEC2Ev
FN:128,_ZNSt12_Vector_baseIN5fasta8SequenceESaIS1_EEC2ERKS2_
FN:128,_ZNSt12_Vector_baseIdSaIdEEC2ERKS0_
FN:135,_ZNSt12_Vector_baseISsSaISsEEC2EmRKS0_
FN:135,_ZNSt12_Vector_baseIdSaIdEEC2EmRKS0_
FN:135,_ZNSt12_Vector_baseISt6vectorIdSaIdEESaIS2_EEC2EmRKS3_
FN:135,_ZNSt12_Vector_baseIN5fasta7ResidueESaIS1_EEC2EmRKS2_
FN:143,_ZNSt12_Vector_baseIN5fasta7ResidueESaIS1_EEC2EOS3_
FN:143,_ZNSt12_Vector_baseISsSaISsEEC2EOS1_
FN:160,_ZNSt12_Vector_baseIN5fasta7ResidueESaIS1_EED2Ev
FN:160,_ZNSt12_Vector_baseISsSaISsEED2Ev
FN:160,_ZNSt12_Vector_baseIN5boost10filesystem18directory_iteratorESaIS2_EED2Ev
FN:160,_ZNSt12_Vector_baseIdSaIdEED2Ev
FN:160,_ZNSt12_Vector_baseISt6vectorIdSaIdEESaIS2_EED2Ev
FN:160,_ZNSt12_Vector_baseIN5fasta8SequenceESaIS1_EED2Ev
FN:160,_ZNSt12_Vector_baseIiSaIiEED2Ev
FN:168,_ZNSt12_Vector_baseIiSaIiEE11_M_allocateEm
FN:168,_ZNSt12_Vector_baseISsSaISsEE11_M_allocateEm
FN:168,_ZNSt12_Vector_baseIN5fasta7ResidueESaIS1_EE11_M_allocateEm
FN:168,_ZNSt12_Vector_baseISt6vectorIdSaIdEESaIS2_EE11_M_allocateEm
FN:168,_ZNSt12_Vector_baseIdSaIdEE11_M_allocateEm
FN:168,_ZNSt12_Vector_baseIN5fasta8SequenceESaIS1_EE11_M_allocateEm
FN:172,_ZNSt12_Vector_baseISt6vectorIdSaIdEESaIS2_EE13_M_deallocateEPS2_m
FN:172,_ZNSt12_Vector_baseIiSaIiEE13_M_deallocateEPim
FN:172,_ZNSt12_Vector_baseIN5fasta7ResidueESaIS1_EE13_M_deallocateEPS1_m
FN:172,_ZNSt12_Vector_baseIN5fasta8SequenceESaIS1_EE13_M_deallocateEPS1_m
FN:172,_ZNSt12_Vector_baseISsSaISsEE13_M_deallocateEPSsm
FN:172,_ZNSt12_Vector_baseIdSaIdEE13_M_deallocateEPdm
FN:172,_ZNSt12_Vector_baseIN5boost10filesystem18directory_iteratorESaIS2_EE13_M_deallocateEPS2_m
FN:180,_ZNSt12_Vector_baseISsSaISsEE17_M_create_storageEm
FN:180,_ZNSt12_Vector_baseIN5fasta7ResidueESaIS1_EE17_M_create_storageEm
FN:180,_ZNSt12_Vector_baseIdSaIdEE17_M_create_storageEm
FN:180,_ZNSt12_Vector_baseISt6vectorIdSaIdEESaIS2_EE17_M_create_storageEm
FN:246,_ZNSt6vectorISsSaISsEEC2Ev
FN:246,_ZNSt6vectorIN5fasta7ResidueESaIS1_EEC2Ev
FN:246,_ZNSt6vectorIiSaIiEEC2Ev
FN:246,_ZNSt6vectorIS_IdSaIdEESaIS1_EEC2Ev
FN:278,_ZNSt6vectorIS_IdSaIdEESaIS1_EEC2EmRKS1_RKS2_
FN:307,_ZNSt6vectorIdSaIdEEC2ERKS1_
FN:307,_ZNSt6vectorISsSaISsEEC2ERKS1_
FN:307,_ZNSt6vectorIN5fasta7ResidueESaIS1_EEC2ERKS3_
FN:324,_ZNSt6vectorIN5fasta7ResidueESaIS1_EEC2EOS3_
FN:324,_ZNSt6vectorISsSaISsEEC2EOS1_
FN:361,_ZNSt6vectorIN5fasta8SequenceESaIS1_EEC2ESt16initializer_listIS1_ERKS2_
FN:387,_ZNSt6vectorIdSaIdEEC2IiEET_S3_RKS0_
FN:402,_ZNSt6vectorIS_IdSaIdEESaIS1_EED2Ev
FN:402,_ZNSt6vectorIiSaIiEED2Ev
FN:402,_ZNSt6vectorISsSaISsEED2Ev
FN:402,_ZNSt6vectorIdSaIdEED2Ev
FN:402,_ZNSt6vectorIN5boost10filesystem18directory_iteratorESaIS2_EED2Ev
FN:402,_ZNSt6vectorIN5fasta7ResidueESaIS1_EED2Ev
FN:427,_ZNSt6vectorISsSaISsEEaSEOS1_
FN:427,_ZNSt6vectorIN5fasta7ResidueESaIS1_EEaSEOS3_
FN:467,_ZNSt6vectorIS_IdSaIdEESaIS1_EE6assignEmRKS1_
FN:518,_ZNSt6vectorIS_IdSaIdEESaIS1_EE5beginEv
FN:518,_ZNSt6vectorIdSaIdEE5beginEv
FN:518,_ZNSt6vectorIN5fasta7ResidueESaIS1_EE5beginEv
FN:518,_ZNSt6vectorISsSaISsEE5beginEv
FN:527,_ZNKSt6vectorIN5fasta7ResidueESaIS1_EE5beginEv
FN:527,_ZNKSt6vectorISsSaISsEE5beginEv
FN:527,_ZNKSt6vectorIdSaIdEE5beginEv
FN:536,_ZNSt6vectorIN5fasta7ResidueESaIS1_EE3endEv
FN:536,_ZNSt6vectorIS_IdSaIdEESaIS1_EE3endEv
FN:536,_ZNSt6vectorIdSaIdEE3endEv
FN:536,_ZNSt6vectorISsSaISsEE3endEv
FN:545,_ZNKSt6vectorIN5fasta7ResidueESaIS1_EE3endEv
FN:545,_ZNKSt6vectorIdSaIdEE3endEv
FN:545,_ZNKSt6vectorISsSaISsEE3endEv
FN:625,_ZNKSt6vectorISsSaISsEE4sizeEv
FN:625,_ZNKSt6vectorIiSaIiEE4sizeEv
FN:625,_ZNKSt6vectorIN5fasta7ResidueESaIS1_EE4sizeEv
FN:625,_ZNKSt6vectorIdSaIdEE4sizeEv
FN:625,_ZNKSt6vectorIS_IdSaIdEESaIS1_EE4sizeEv
FN:630,_ZNKSt6vectorIN5fasta7ResidueESaIS1_EE8max_sizeEv
FN:630,_ZNKSt6vectorIiSaIiEE8max_sizeEv
FN:705,_ZNKSt6vectorISsSaISsEE8capacityEv
FN:705,_ZNKSt6vectorIS_IdSaIdEESaIS1_EE8capacityEv
FN:705,_ZNKSt6vectorIdSaIdEE8capacityEv
FN:750,_ZNSt6vectorIiSaIiEEixEm
FN:750,_ZNSt6vectorIS_IdSaIdEESaIS1_EEixEm
FN:750,_ZNSt6vectorIdSaIdEEixEm
FN:750,_ZNSt6vectorIN5fasta7ResidueESaIS1_EEixEm
FN:765,_ZNKSt6vectorIN5fasta7ResidueESaIS1_EEixEm
FN:765,_ZNKSt6vectorIdSaIdEEixEm
FN:881,_ZNSt6vectorIiSaIiEE9push_backERKi
FN:881,_ZNSt6vectorIN5fasta7ResidueESaIS1_EE9push_backERKS1_
FN:1079,_ZNSt6vectorIS_IdSaIdEESaIS1_EE4swapERS3_
FN:1096,_ZNSt6vectorISsSaISsEE5clearEv
FN:1096,_ZNSt6vectorIdSaIdEE5clearEv
FN:1106,_ZNSt6vectorIdSaIdEE20_M_allocate_and_copyIN9__gnu_cxx17__normal_iteratorIPKdS1_EEEEPdmT_S9_
FN:1106,_ZNSt6vectorISsSaISsEE20_M_allocate_and_copyIN9__gnu_cxx17__normal_iteratorIPKSsS1_EEEEPSsmT_S9_
FN:1132,_ZNSt6vectorIdSaIdEE22_M_initialize_dispatchIiEEvT_S3_St11__true_type
FN:1164,_ZNSt6vectorIN5fasta8SequenceESaIS1_EE19_M_range_initializeIPKS1_EEvT_S7_St20forward_iterator_tag
FN:1179,_ZNSt6vectorIS_IdSaIdEESaIS1_EE18_M_fill_initializeEmRKS1_
FN:1179,_ZNSt6vectorIdSaIdEE18_M_fill_initializeEmRKd
FN:1303,_ZNKSt6vectorIiSaIiEE12_M_check_lenEmPKc
FN:1303,_ZNKSt6vectorIN5fasta7ResidueESaIS1_EE12_M_check_lenEmPKc
FN:1317,_ZNSt6vectorIdSaIdEE15_M_erase_at_endEPd
FN:1317,_ZNSt6vectorIS_IdSaIdEESaIS1_EE15_M_erase_at_endEPS1_
FN:1317,_ZNSt6vectorISsSaISsEE15_M_erase_at_endEPSs
FN:1329,_ZNSt6vectorISsSaISsEE14_M_move_assignEOS1_St17integral_constantIbLb1EE
FN:1329,_ZNSt6vectorIN5fasta7ResidueESaIS1_EE14_M_move_assignEOS3_St17integral_constantIbLb1EE
FNDA:0,_ZNSt12_Vector_baseIN5fasta8SequenceESaIS1_EE12_Vector_implD2Ev
FNDA:0,_ZNSt12_Vector_baseIN5fasta7ResidueESaIS1_EE12_Vector_implD2Ev
FNDA:0,_ZNSt12_Vector_baseIiSaIiEE12_Vector_implD2Ev
FNDA:0,_ZNSt12_Vector_baseIdSaIdEE12_Vector_implD2Ev
FNDA:120,_ZNSt12_Vector_baseISt6vectorIdSaIdEESaIS2_EE12_Vector_implD2Ev
FNDA:0,_ZNSt12_Vector_baseIN5boost10filesystem18directory_iteratorESaIS2_EE12_Vector_implD2Ev
FNDA:0,_ZNSt12_Vector_baseISsSaISsEE12_Vector_implD2Ev
FNDA:0,_ZNSt12_Vector_baseIN5fasta7ResidueESaIS1_EE12_Vector_implC2Ev
FNDA:0,_ZNSt12_Vector_baseIiSaIiEE12_Vector_implC2Ev
FNDA:60,_ZNSt12_Vector_baseISt6vectorIdSaIdEESaIS2_EE12_Vector_implC2Ev
FNDA:0,_ZNSt12_Vector_baseISsSaISsEE12_Vector_implC2Ev
FNDA:60,_ZNSt12_Vector_baseISt6vectorIdSaIdEESaIS2_EE12_Vector_implC2ERKS3_
FNDA:276,_ZNSt12_Vector_baseIN5fasta8SequenceESaIS1_EE12_Vector_implC2ERKS2_
FNDA:0,_ZNSt12_Vector_baseIN5fasta7ResidueESaIS1_EE12_Vector_implC2ERKS2_
FNDA:0,_ZNSt12_Vector_baseIdSaIdEE12_Vector_implC2ERKS0_
FNDA:0,_ZNSt12_Vector_baseISsSaISsEE12_Vector_implC2ERKS0_
FNDA:0,_ZNSt12_Vector_baseISsSaISsEE12_Vector_implC2EOS0_
FNDA:0,_ZNSt12_Vector_baseIN5fasta7ResidueESaIS1_EE12_Vector_implC2EOS2_
FNDA:0,_ZNSt12_Vector_baseISsSaISsEE12_Vector_impl12_M_swap_dataERS2_
FNDA:60,_ZNSt12_Vector_baseISt6vectorIdSaIdEESaIS2_EE12_Vector_impl12_M_swap_dataERS5_
FNDA:0,_ZNSt12_Vector_baseIN5fasta7ResidueESaIS1_EE12_Vector_impl12_M_swap_dataERS4_
FNDA:0,_ZNSt12_Vector_baseIN5fasta8SequenceESaIS1_EE19_M_get_Tp_allocatorEv
FNDA:0,_ZNSt12_Vector_baseIN5fasta7ResidueESaIS1_EE19_M_get_Tp_allocatorEv
FNDA:0,_ZNSt12_Vector_baseIiSaIiEE19_M_get_Tp_allocatorEv
FNDA:0,_ZNSt12_Vector_baseIdSaIdEE19_M_get_Tp_allocatorEv
FNDA:360,_ZNSt12_Vector_baseISt6vectorIdSaIdEESaIS2_EE19_M_get_Tp_allocatorEv
FNDA:0,_ZNSt12_Vector_baseIN5boost10filesystem18directory_iteratorESaIS2_EE19_M_get_Tp_allocatorEv
FNDA:0,_ZNSt12_Vector_baseISsSaISsEE19_M_get_Tp_allocatorEv
FNDA:0,_ZNKSt12_Vector_baseIdSaIdEE19_M_get_Tp_allocatorEv
FNDA:0,_ZNKSt12_Vector_baseIiSaIiEE19_M_get_Tp_allocatorEv
FNDA:0,_ZNKSt12_Vector_baseIN5fasta7ResidueESaIS1_EE19_M_get_Tp_allocatorEv
FNDA:0,_ZNKSt12_Vector_baseISsSaISsEE19_M_get_Tp_allocatorEv
FNDA:0,_ZNSt12_Vector_baseIN5fasta7ResidueESaIS1_EEC2Ev
FNDA:0,_ZNSt12_Vector_baseIiSaIiEEC2Ev
FNDA:60,_ZNSt12_Vector_baseISt6vectorIdSaIdEESaIS2_EEC2Ev
FNDA:0,_ZNSt12_Vector_baseISsSaISsEEC2Ev
FNDA:188,_ZNSt12_Vector_baseIN5fasta8SequenceESaIS1_EEC2ERKS2_
FNDA:0,_ZNSt12_Vector_baseIdSaIdEEC2ERKS0_
FNDA:0,_ZNSt12_Vector_baseIdSaIdEEC2EmRKS0_
FNDA:60,_ZNSt12_Vector_baseISt6vectorIdSaIdEESaIS2_EEC2EmRKS3_
FNDA:0,_ZNSt12_Vector_baseIN5fasta7ResidueESaIS1_EEC2EmRKS2_
FNDA:0,_ZNSt12_Vector_baseISsSaISsEEC2EmRKS0_
FNDA:0,_ZNSt12_Vector_baseISsSaISsEEC2EOS1_
FNDA:0,_ZNSt12_Vector_baseIN5fasta7ResidueESaIS1_EEC2EOS3_
FNDA:0,_ZNSt12_Vector_baseIN5fasta8SequenceESaIS1_EED2Ev
FNDA:0,_ZNSt12_Vector_baseIN5fasta7ResidueESaIS1_EED2Ev
FNDA:0,_ZNSt12_Vector_baseIiSaIiEED2Ev
FNDA:0,_ZNSt12_Vector_baseIdSaIdEED2Ev
FNDA:120,_ZNSt12_Vector_baseISt6vectorIdSaIdEESaIS2_EED2Ev
FNDA:0,_ZNSt12_Vector_baseIN5boost10filesystem18directory_iteratorESaIS2_EED2Ev
FNDA:0,_ZNSt12_Vector_baseISsSaISsEED2Ev
FNDA:60,_ZNSt12_Vector_baseISt6vectorIdSaIdEESaIS2_EE11_M_allocateEm
FNDA:0,_ZNSt12_Vector_baseIN5fasta8SequenceESaIS1_EE11_M_allocateEm
FNDA:0,_ZNSt12_Vector_baseISsSaISsEE11_M_allocateEm
FNDA:0,_ZNSt12_Vector_baseIN5fasta7ResidueESaIS1_EE11_M_allocateEm
FNDA:0,_ZNSt12_Vector_baseIiSaIiEE11_M_allocateEm
FNDA:0,_ZNSt12_Vector_baseIdSaIdEE11_M_allocateEm
FNDA:0,_ZNSt12_Vector_baseIN5fasta8SequenceESaIS1_EE13_M_deallocateEPS1_m
FNDA:0,_ZNSt12_Vector_baseIN5fasta7ResidueESaIS1_EE13_M_deallocateEPS1_m
FNDA:0,_ZNSt12_Vector_baseIiSaIiEE13_M_deallocateEPim
FNDA:0,_ZNSt12_Vector_baseIdSaIdEE13_M_deallocateEPdm
FNDA:120,_ZNSt12_Vector_baseISt6vectorIdSaIdEESaIS2_EE13_M_deallocateEPS2_m
FNDA:0,_ZNSt12_Vector_baseIN5boost10filesystem18directory_iteratorESaIS2_EE13_M_deallocateEPS2_m
FNDA:0,_ZNSt12_Vector_baseISsSaISsEE13_M_deallocateEPSsm
FNDA:0,_ZNSt12_Vector_baseIdSaIdEE17_M_create_storageEm
FNDA:60,_ZNSt12_Vector_baseISt6vectorIdSaIdEESaIS2_EE17_M_create_storageEm
FNDA:0,_ZNSt12_Vector_baseIN5fasta7ResidueESaIS1_EE17_M_create_storageEm
FNDA:0,_ZNSt12_Vector_baseISsSaISsEE17_M_create_storageEm
FNDA:0,_ZNSt6vectorIN5fasta7ResidueESaIS1_EEC2Ev
FNDA:0,_ZNSt6vectorIiSaIiEEC2Ev
FNDA:60,_ZNSt6vectorIS_IdSaIdEESaIS1_EEC2Ev
FNDA:0,_ZNSt6vectorISsSaISsEEC2Ev
FNDA:60,_ZNSt6vectorIS_IdSaIdEESaIS1_EEC2EmRKS1_RKS2_
FNDA:0,_ZNSt6vectorIdSaIdEEC2ERKS1_
FNDA:776,_ZNSt6vectorIN5fasta7ResidueESaIS1_EEC2ERKS3_
FNDA:0,_ZNSt6vectorISsSaISsEEC2ERKS1_
FNDA:0,_ZNSt6vectorISsSaISsEEC2EOS1_
FNDA:0,_ZNSt6vectorIN5fasta7ResidueESaIS1_EEC2EOS3_
FNDA:188,_ZNSt6vectorIN5fasta8SequenceESaIS1_EEC2ESt16initializer_listIS1_ERKS2_
FNDA:20,_ZNSt6vectorIdSaIdEEC2IiEET_S3_RKS0_
FNDA:0,_ZNSt6vectorIN5fasta7ResidueESaIS1_EED2Ev
FNDA:0,_ZNSt6vectorIiSaIiEED2Ev
FNDA:0,_ZNSt6vectorIdSaIdEED2Ev
FNDA:120,_ZNSt6vectorIS_IdSaIdEESaIS1_EED2Ev
FNDA:0,_ZNSt6vectorIN5boost10filesystem18directory_iteratorESaIS2_EED2Ev
FNDA:0,_ZNSt6vectorISsSaISsEED2Ev
FNDA:324,_ZNSt6vectorISsSaISsEEaSEOS1_
FNDA:0,_ZNSt6vectorIN5fasta7ResidueESaIS1_EEaSEOS3_
FNDA:60,_ZNSt6vectorIS_IdSaIdEESaIS1_EE6assignEmRKS1_
FNDA:0,_ZNSt6vectorIdSaIdEE5beginEv
FNDA:0,_ZNSt6vectorIS_IdSaIdEESaIS1_EE5beginEv
FNDA:0,_ZNSt6vectorISsSaISsEE5beginEv
FNDA:0,_ZNSt6vectorIN5fasta7ResidueESaIS1_EE5beginEv
FNDA:0,_ZNKSt6vectorIdSaIdEE5beginEv
FNDA:0,_ZNKSt6vectorIN5fasta7ResidueESaIS1_EE5beginEv
FNDA:0,_ZNKSt6vectorISsSaISsEE5beginEv
FNDA:0,_ZNSt6vectorIdSaIdEE3endEv
FNDA:0,_ZNSt6vectorIS_IdSaIdEESaIS1_EE3endEv
FNDA:0,_ZNSt6vectorISsSaISsEE3endEv
FNDA:0,_ZNSt6vectorIN5fasta7ResidueESaIS1_EE3endEv
FNDA:0,_ZNKSt6vectorIdSaIdEE3endEv
FNDA:0,_ZNKSt6vectorIN5fasta7ResidueESaIS1_EE3endEv
FNDA:0,_ZNKSt6vectorISsSaISsEE3endEv
FNDA:0,_ZNKSt6vectorIiSaIiEE4sizeEv
FNDA:0,_ZNKSt6vectorISsSaISsEE4sizeEv
FNDA:0,_ZNKSt6vectorIN5fasta7ResidueESaIS1_EE4sizeEv
FNDA:0,_ZNKSt6vectorIdSaIdEE4sizeEv
FNDA:708,_ZNKSt6vectorIS_IdSaIdEESaIS1_EE4sizeEv
FNDA:0,_ZNKSt6vectorIN5fasta7ResidueESaIS1_EE8max_sizeEv
FNDA:0,_ZNKSt6vectorIiSaIiEE8max_sizeEv
FNDA:0,_ZNKSt6vectorIdSaIdEE8capacityEv
FNDA:60,_ZNKSt6vectorIS_IdSaIdEESaIS1_EE8capacityEv
FNDA:0,_ZNKSt6vectorISsSaISsEE8capacityEv
FNDA:1208,_ZNSt6vectorIN5fasta7ResidueESaIS1_EEixEm
FNDA:80,_ZNSt6vectorIiSaIiEEixEm
FNDA:0,_ZNSt6vectorIdSaIdEEixEm
FNDA:15608,_ZNSt6vectorIS_IdSaIdEESaIS1_EEixEm
FNDA:0,_ZNKSt6vectorIdSaIdEEixEm
FNDA:0,_ZNKSt6vectorIN5fasta7ResidueESaIS1_EEixEm
FNDA:0,_ZNSt6vectorIN5fasta7ResidueESaIS1_EE9push_backERKS1_
FNDA:40,_ZNSt6vectorIiSaIiEE9push_backERKi
FNDA:60,_ZNSt6vectorIS_IdSaIdEESaIS1_EE4swapERS3_
FNDA:0,_ZNSt6vectorIdSaIdEE5clearEv
FNDA:0,_ZNSt6vectorISsSaISsEE5clearEv
FNDA:0,_ZNSt6vectorIdSaIdEE20_M_allocate_and_copyIN9__gnu_cxx17__normal_iteratorIPKdS1_EEEEPdmT_S9_
FNDA:0,_ZNSt6vectorISsSaISsEE20_M_allocate_and_copyIN9__gnu_cxx17__normal_iteratorIPKSsS1_EEEEPSsmT_S9_
FNDA:20,_ZNSt6vectorIdSaIdEE22_M_initialize_dispatchIiEEvT_S3_St11__true_type
FNDA:188,_ZNSt6vectorIN5fasta8SequenceESaIS1_EE19_M_range_initializeIPKS1_EEvT_S7_St20forward_iterator_tag
FNDA:60,_ZNSt6vectorIS_IdSaIdEESaIS1_EE18_M_fill_initializeEmRKS1_
FNDA:0,_ZNSt6vectorIdSaIdEE18_M_fill_initializeEmRKd
FNDA:0,_ZNKSt6vectorIN5fasta7ResidueESaIS1_EE12_M_check_lenEmPKc
FNDA:0,_ZNKSt6vectorIiSaIiEE12_M_check_lenEmPKc
FNDA:0,_ZNSt6vectorIdSaIdEE15_M_erase_at_endEPd
FNDA:0,_ZNSt6vectorISsSaISsEE15_M_erase_at_endEPSs
FNDA:0,_ZNSt6vectorIS_IdSaIdEESaIS1_EE15_M_erase_at_endEPS1_
FNDA:324,_ZNSt6vectorISsSaISsEE14_M_move_assignEOS1_St17integral_constantIbLb1EE
FNDA:0,_ZNSt6vectorIN5fasta7ResidueESaIS1_EE14_M_move_assignEOS3_St17integral_constantIbLb1EE
FNF:137
FNH:32
DA:80,120
DA:87,60
DA:88,60
DA:89,60
DA:91,336
DA:92,336
DA:93,336
DA:96,0
DA:98,0
DA:99,0
DA:102,60
DA:104,60
DA:105,60
DA:106,60
DA:107,60
DA:114,360
DA:115,360
DA:118,0
DA:119,0
DA:125,60
DA:126,60
DA:128,188
DA:129,188
DA:135,60
DA:136,60
DA:137,60
DA:143,0
DA:144,0
DA:145,0
DA:160,120
DA:161,120
DA:162,120
DA:168,60
DA:169,60
DA:172,120
DA:174,120
DA:175,60
DA:176,120
DA:180,60
DA:182,60
DA:183,60
DA:184,60
DA:185,60
DA:246,60
DA:247,60
DA:278,60
DA:280,60
DA:281,60
DA:307,776
DA:309,776
DA:310,776
DA:314,776
DA:324,0
DA:325,0
DA:361,188
DA:363,188
DA:365,188
DA:367,188
DA:387,20
DA:389,20
DA:393,20
DA:394,20
DA:402,120
DA:403,120
DA:404,120
DA:427,324
DA:431,324
DA:432,324
DA:434,324
DA:467,60
DA:468,60
DA:518,0
DA:519,0
DA:527,0
DA:528,0
DA:536,0
DA:537,0
DA:545,0
DA:546,0
DA:625,708
DA:626,708
DA:630,0
DA:631,0
DA:705,60
DA:707,60
DA:750,16896
DA:751,16896
DA:765,0
DA:766,0
DA:881,40
DA:883,40
DA:885,0
DA:887,0
DA:891,40
DA:895,40
DA:1079,60
DA:1084,60
DA:1085,60
DA:1087,60
DA:1096,0
DA:1097,0
DA:1106,0
DA:1109,0
DA:1112,0
DA:1114,0
DA:1116,0
DA:1118,0
DA:1119,0
DA:1132,20
DA:1134,20
DA:1135,20
DA:1137,20
DA:1138,20
DA:1164,188
DA:1167,188
DA:1168,188
DA:1169,188
DA:1170,188
DA:1174,188
DA:1179,60
DA:1181,60
DA:1183,60
DA:1184,60
DA:1303,0
DA:1305,0
DA:1306,0
DA:1308,0
DA:1309,0
DA:1317,0
DA:1319,0
DA:1320,0
DA:1321,0
DA:1329,324
DA:1331,324
DA:1332,324
DA:1333,324
DA:1334,0
DA:1336,324
LF:138
LH:95
end_of_record
SF:/usr/include/c++/4.7.2/bits/vector.tcc
FN:161,_ZNSt6vectorISsSaISsEEaSERKS1_
FN:161,_ZNSt6vectorIdSaIdEEaSERKS1_
FN:216,_ZNSt6vectorIS_IdSaIdEESaIS1_EE14_M_fill_assignEmRKS1_
FN:397,_ZNSt6vectorIN5fasta7ResidueESaIS1_EE19_M_emplace_back_auxIIRKS1_EEEvDpOT_
FN:397,_ZNSt6vectorIiSaIiEE19_M_emplace_back_auxIIRKiEEEvDpOT_
FNDA:0,_ZNSt6vectorIdSaIdEEaSERKS1_
FNDA:0,_ZNSt6vectorISsSaISsEEaSERKS1_
FNDA:60,_ZNSt6vectorIS_IdSaIdEESaIS1_EE14_M_fill_assignEmRKS1_
FNDA:0,_ZNSt6vectorIN5fasta7ResidueESaIS1_EE19_M_emplace_back_auxIIRKS1_EEEvDpOT_
FNDA:40,_ZNSt6vectorIiSaIiEE19_M_emplace_back_auxIIRKiEEEvDpOT_
FNF:5
FNH:2
DA:161,0
DA:164,0
DA:167,0
DA:169,0
DA:173,0
DA:174,0
DA:178,0
DA:182,0
DA:183,0
DA:186,0
DA:187,0
DA:189,0
DA:192,0
DA:193,0
DA:195,0
DA:197,0
DA:202,0
DA:204,0
DA:209,0
DA:211,0
DA:216,60
DA:219,60
DA:221,60
DA:222,60
DA:224,0
DA:226,0
DA:227,0
DA:230,0
DA:233,0
DA:234,60
DA:397,40
DA:401,40
DA:402,40
DA:403,40
DA:406,40
DA:408,40
DA:410,40
DA:415,40
DA:417,0
DA:419,0
DA:420,0
DA:422,0
DA:423,0
DA:424,0
DA:426,40
DA:428,40
DA:431,40
DA:432,40
DA:433,40
DA:434,40
LF:50
LH:19
end_of_record
SF:/usr/include/c++/4.7.2/exception
FN:62,_ZNSt9exceptionC2ERKS_
FNDA:0,_ZNSt9exceptionC2ERKS_
FNF:1
FNH:0
DA:62,0
LF:1
LH:0
end_of_record
SF:/usr/include/c++/4.7.2/ext/alloc_traits.h
FN:153,_ZN9__gnu_cxx14__alloc_traitsISaIN5fasta7ResidueEEE17_S_select_on_copyERKS3_
FN:153,_ZN9__gnu_cxx14__alloc_traitsISaISsEE17_S_select_on_copyERKS1_
FN:153,_ZN9__gnu_cxx14__alloc_traitsISaIdEE17_S_select_on_copyERKS1_
FN:156,_ZN9__gnu_cxx14__alloc_traitsISaISt6vectorIdSaIdEEEE10_S_on_swapERS4_S6_
FN:159,_ZN9__gnu_cxx14__alloc_traitsISaIdEE27_S_propagate_on_copy_assignEv
FN:159,_ZN9__gnu_cxx14__alloc_traitsISaISsEE27_S_propagate_on_copy_assignEv
FN:162,_ZN9__gnu_cxx14__alloc_traitsISaISsEE27_S_propagate_on_move_assignEv
FN:162,_ZN9__gnu_cxx14__alloc_traitsISaIN5fasta7ResidueEEE27_S_propagate_on_move_assignEv
FN:168,_ZN9__gnu_cxx14__alloc_traitsISaISsEE15_S_always_equalEv
FN:168,_ZN9__gnu_cxx14__alloc_traitsISaIdEE15_S_always_equalEv
FNDA:0,_ZN9__gnu_cxx14__alloc_traitsISaIdEE17_S_select_on_copyERKS1_
FNDA:776,_ZN9__gnu_cxx14__alloc_traitsISaIN5fasta7ResidueEEE17_S_select_on_copyERKS3_
FNDA:0,_ZN9__gnu_cxx14__alloc_traitsISaISsEE17_S_select_on_copyERKS1_
FNDA:60,_ZN9__gnu_cxx14__alloc_traitsISaISt6vectorIdSaIdEEEE10_S_on_swapERS4_S6_
FNDA:0,_ZN9__gnu_cxx14__alloc_traitsISaIdEE27_S_propagate_on_copy_assignEv
FNDA:0,_ZN9__gnu_cxx14__alloc_traitsISaISsEE27_S_propagate_on_copy_assignEv
FNDA:324,_ZN9__gnu_cxx14__alloc_traitsISaISsEE27_S_propagate_on_move_assignEv
FNDA:0,_ZN9__gnu_cxx14__alloc_traitsISaIN5fasta7ResidueEEE27_S_propagate_on_move_assignEv
FNDA:0,_ZN9__gnu_cxx14__alloc_traitsISaIdEE15_S_always_equalEv
FNDA:0,_ZN9__gnu_cxx14__alloc_traitsISaISsEE15_S_always_equalEv
FNF:10
FNH:3
DA:153,776
DA:154,776
DA:156,60
DA:157,60
DA:159,0
DA:160,0
DA:162,324
DA:163,324
DA:168,0
DA:169,0
LF:10
LH:6
end_of_record
SF:/usr/include/c++/4.7.2/ext/atomicity.h
FN:47,_ZN9__gnu_cxxL18__exchange_and_addEPVii
FN:64,_ZN9__gnu_cxxL25__exchange_and_add_singleEPii
FN:77,_ZN9__gnu_cxxL27__exchange_and_add_dispatchEPii
FNDA:0,_ZN9__gnu_cxxL18__exchange_and_addEPVii
FNDA:0,_ZN9__gnu_cxxL25__exchange_and_add_singleEPii
FNDA:0,_ZN9__gnu_cxxL27__exchange_and_add_dispatchEPii
FNF:3
FNH:0
DA:47,0
DA:48,0
DA:64,0
DA:66,0
DA:67,0
DA:68,0
DA:77,0
DA:80,0
DA:81,0
DA:83,0
LF:10
LH:0
end_of_record
SF:/usr/include/c++/4.7.2/ext/concurrence.h
FN:68,_ZN9__gnu_cxx24__concurrence_lock_errorD2Ev
FN:68,_ZN9__gnu_cxx24__concurrence_lock_errorD0Ev
FN:72,_ZNK9__gnu_cxx24__concurrence_lock_error4whatEv
FN:76,_ZN9__gnu_cxx26__concurrence_unlock_errorD0Ev
FN:76,_ZN9__gnu_cxx26__concurrence_unlock_errorD2Ev
FN:80,_ZNK9__gnu_cxx26__concurrence_unlock_error4whatEv
FN:84,_ZN9__gnu_cxx29__concurrence_broadcast_errorD0Ev
FN:84,_ZN9__gnu_cxx29__concurrence_broadcast_errorD2Ev
FN:88,_ZNK9__gnu_cxx29__concurrence_broadcast_error4whatEv
FN:92,_ZN9__gnu_cxx24__concurrence_wait_errorD0Ev
FN:92,_ZN9__gnu_cxx24__concurrence_wait_errorD2Ev
FN:96,_ZNK9__gnu_cxx24__concurrence_wait_error4whatEv
FNDA:0,_ZN9__gnu_cxx24__concurrence_lock_errorD0Ev
FNDA:0,_ZN9__gnu_cxx24__concurrence_lock_errorD2Ev
FNDA:0,_ZNK9__gnu_cxx24__concurrence_lock_error4whatEv
FNDA:0,_ZN9__gnu_cxx26__concurrence_unlock_errorD0Ev
FNDA:0,_ZN9__gnu_cxx26__concurrence_unlock_errorD2Ev
FNDA:0,_ZNK9__gnu_cxx26__concurrence_unlock_error4whatEv
FNDA:0,_ZN9__gnu_cxx29__concurrence_broadcast_errorD0Ev
FNDA:0,_ZN9__gnu_cxx29__concurrence_broadcast_errorD2Ev
FNDA:0,_ZNK9__gnu_cxx29__concurrence_broadcast_error4whatEv
FNDA:0,_ZN9__gnu_cxx24__concurrence_wait_errorD0Ev
FNDA:0,_ZN9__gnu_cxx24__concurrence_wait_errorD2Ev
FNDA:0,_ZNK9__gnu_cxx24__concurrence_wait_error4whatEv
FNF:12
FNH:0
DA:68,0
DA:72,0
DA:73,0
DA:76,0
DA:80,0
DA:81,0
DA:84,0
DA:88,0
DA:89,0
DA:92,0
DA:96,0
DA:97,0
LF:12
LH:0
end_of_record
SF:/usr/include/c++/4.7.2/ext/new_allocator.h
FN:69,_ZN9__gnu_cxx13new_allocatorIN5fasta7ResidueEEC2Ev
FN:69,_ZN9__gnu_cxx13new_allocatorISt6vectorIdSaIdEEEC2Ev
FN:69,_ZN9__gnu_cxx13new_allocatorISsEC2Ev
FN:69,_ZN9__gnu_cxx13new_allocatorIcEC2Ev
FN:69,_ZN9__gnu_cxx13new_allocatorIdEC2Ev
FN:69,_ZN9__gnu_cxx13new_allocatorIN5fasta8SequenceEEC2Ev
FN:69,_ZN9__gnu_cxx13new_allocatorIiEC2Ev
FN:71,_ZN9__gnu_cxx13new_allocatorIdEC2ERKS1_
FN:71,_ZN9__gnu_cxx13new_allocatorISsEC2ERKS1_
FN:71,_ZN9__gnu_cxx13new_allocatorIN5fasta7ResidueEEC2ERKS3_
FN:71,_ZN9__gnu_cxx13new_allocatorIN5fasta8SequenceEEC2ERKS3_
FN:71,_ZN9__gnu_cxx13new_allocatorIcEC2ERKS1_
FN:71,_ZN9__gnu_cxx13new_allocatorISt6vectorIdSaIdEEEC2ERKS4_
FN:76,_ZN9__gnu_cxx13new_allocatorIN5fasta7ResidueEED2Ev
FN:76,_ZN9__gnu_cxx13new_allocatorIiED2Ev
FN:76,_ZN9__gnu_cxx13new_allocatorISt6vectorIdSaIdEEED2Ev
FN:76,_ZN9__gnu_cxx13new_allocatorIdED2Ev
FN:76,_ZN9__gnu_cxx13new_allocatorIcED2Ev
FN:76,_ZN9__gnu_cxx13new_allocatorIN5boost10filesystem18directory_iteratorEED2Ev
FN:76,_ZN9__gnu_cxx13new_allocatorIN5fasta8SequenceEED2Ev
FN:76,_ZN9__gnu_cxx13new_allocatorISsED2Ev
FN:89,_ZN9__gnu_cxx13new_allocatorIN5fasta7ResidueEE8allocateEmPKv
FN:89,_ZN9__gnu_cxx13new_allocatorISsE8allocateEmPKv
FN:89,_ZN9__gnu_cxx13new_allocatorIiE8allocateEmPKv
FN:89,_ZN9__gnu_cxx13new_allocatorISt6vectorIdSaIdEEE8allocateEmPKv
FN:89,_ZN9__gnu_cxx13new_allocatorIN5fasta8SequenceEE8allocateEmPKv
FN:89,_ZN9__gnu_cxx13new_allocatorIdE8allocateEmPKv
FN:99,_ZN9__gnu_cxx13new_allocatorIdE10deallocateEPdm
FN:99,_ZN9__gnu_cxx13new_allocatorISsE10deallocateEPSsm
FN:99,_ZN9__gnu_cxx13new_allocatorISt6vectorIdSaIdEEE10deallocateEPS3_m
FN:99,_ZN9__gnu_cxx13new_allocatorIN5fasta7ResidueEE10deallocateEPS2_m
FN:99,_ZN9__gnu_cxx13new_allocatorIN5boost10filesystem18directory_iteratorEE10deallocateEPS3_m
FN:99,_ZN9__gnu_cxx13new_allocatorIiE10deallocateEPim
FN:99,_ZN9__gnu_cxx13new_allocatorIN5fasta8SequenceEE10deallocateEPS2_m
FN:103,_ZNK9__gnu_cxx13new_allocatorIN5fasta8SequenceEE8max_sizeEv
FN:103,_ZNK9__gnu_cxx13new_allocatorIdE8max_sizeEv
FN:103,_ZNK9__gnu_cxx13new_allocatorISt6vectorIdSaIdEEE8max_sizeEv
FN:103,_ZNK9__gnu_cxx13new_allocatorISsE8max_sizeEv
FN:103,_ZNK9__gnu_cxx13new_allocatorIN5fasta7ResidueEE8max_sizeEv
FN:103,_ZNK9__gnu_cxx13new_allocatorIiE8max_sizeEv
FN:109,_ZN9__gnu_cxx13new_allocatorIN5fasta7ResidueEE9constructIS2_IRKS2_EEEvPT_DpOT0_
FN:109,_ZN9__gnu_cxx13new_allocatorIiE9constructIiIRKiEEEvPT_DpOT0_
FN:114,_ZN9__gnu_cxx13new_allocatorIiE7destroyIiEEvPT_
FN:114,_ZN9__gnu_cxx13new_allocatorIN5fasta7ResidueEE7destroyIS2_EEvPT_
FNDA:0,_ZN9__gnu_cxx13new_allocatorIN5fasta7ResidueEEC2Ev
FNDA:0,_ZN9__gnu_cxx13new_allocatorIiEC2Ev
FNDA:60,_ZN9__gnu_cxx13new_allocatorISt6vectorIdSaIdEEEC2Ev
FNDA:0,_ZN9__gnu_cxx13new_allocatorISsEC2Ev
FNDA:0,_ZN9__gnu_cxx13new_allocatorIN5fasta8SequenceEEC2Ev
FNDA:0,_ZN9__gnu_cxx13new_allocatorIdEC2Ev
FNDA:0,_ZN9__gnu_cxx13new_allocatorIcEC2Ev
FNDA:60,_ZN9__gnu_cxx13new_allocatorISt6vectorIdSaIdEEEC2ERKS4_
FNDA:392,_ZN9__gnu_cxx13new_allocatorIN5fasta8SequenceEEC2ERKS3_
FNDA:0,_ZN9__gnu_cxx13new_allocatorIdEC2ERKS1_
FNDA:0,_ZN9__gnu_cxx13new_allocatorIN5fasta7ResidueEEC2ERKS3_
FNDA:0,_ZN9__gnu_cxx13new_allocatorISsEC2ERKS1_
FNDA:0,_ZN9__gnu_cxx13new_allocatorIcEC2ERKS1_
FNDA:0,_ZN9__gnu_cxx13new_allocatorIiED2Ev
FNDA:120,_ZN9__gnu_cxx13new_allocatorISt6vectorIdSaIdEEED2Ev
FNDA:0,_ZN9__gnu_cxx13new_allocatorIN5boost10filesystem18directory_iteratorEED2Ev
FNDA:0,_ZN9__gnu_cxx13new_allocatorIN5fasta7ResidueEED2Ev
FNDA:0,_ZN9__gnu_cxx13new_allocatorISsED2Ev
FNDA:0,_ZN9__gnu_cxx13new_allocatorIN5fasta8SequenceEED2Ev
FNDA:0,_ZN9__gnu_cxx13new_allocatorIdED2Ev
FNDA:0,_ZN9__gnu_cxx13new_allocatorIcED2Ev
FNDA:60,_ZN9__gnu_cxx13new_allocatorISt6vectorIdSaIdEEE8allocateEmPKv
FNDA:0,_ZN9__gnu_cxx13new_allocatorIN5fasta8SequenceEE8allocateEmPKv
FNDA:0,_ZN9__gnu_cxx13new_allocatorISsE8allocateEmPKv
FNDA:0,_ZN9__gnu_cxx13new_allocatorIN5fasta7ResidueEE8allocateEmPKv
FNDA:0,_ZN9__gnu_cxx13new_allocatorIiE8allocateEmPKv
FNDA:0,_ZN9__gnu_cxx13new_allocatorIdE8allocateEmPKv
FNDA:0,_ZN9__gnu_cxx13new_allocatorIN5fasta8SequenceEE10deallocateEPS2_m
FNDA:0,_ZN9__gnu_cxx13new_allocatorIN5fasta7ResidueEE10deallocateEPS2_m
FNDA:0,_ZN9__gnu_cxx13new_allocatorIiE10deallocateEPim
FNDA:0,_ZN9__gnu_cxx13new_allocatorIdE10deallocateEPdm
FNDA:60,_ZN9__gnu_cxx13new_allocatorISt6vectorIdSaIdEEE10deallocateEPS3_m
FNDA:0,_ZN9__gnu_cxx13new_allocatorIN5boost10filesystem18directory_iteratorEE10deallocateEPS3_m
FNDA:0,_ZN9__gnu_cxx13new_allocatorISsE10deallocateEPSsm
FNDA:60,_ZNK9__gnu_cxx13new_allocatorISt6vectorIdSaIdEEE8max_sizeEv
FNDA:0,_ZNK9__gnu_cxx13new_allocatorIN5fasta8SequenceEE8max_sizeEv
FNDA:0,_ZNK9__gnu_cxx13new_allocatorISsE8max_sizeEv
FNDA:0,_ZNK9__gnu_cxx13new_allocatorIN5fasta7ResidueEE8max_sizeEv
FNDA:0,_ZNK9__gnu_cxx13new_allocatorIiE8max_sizeEv
FNDA:0,_ZNK9__gnu_cxx13new_allocatorIdE8max_sizeEv
FNDA:0,_ZN9__gnu_cxx13new_allocatorIN5fasta7ResidueEE9constructIS2_IRKS2_EEEvPT_DpOT0_
FNDA:40,_ZN9__gnu_cxx13new_allocatorIiE9constructIiIRKiEEEvPT_DpOT0_
FNDA:0,_ZN9__gnu_cxx13new_allocatorIN5fasta7ResidueEE7destroyIS2_EEvPT_
FNDA:0,_ZN9__gnu_cxx13new_allocatorIiE7destroyIiEEvPT_
FNF:44
FNH:8
DA:69,60
DA:71,452
DA:76,120
DA:89,60
DA:91,60
DA:92,0
DA:94,60
DA:99,60
DA:100,60
DA:103,60
DA:104,60
DA:109,40
DA:110,40
DA:114,0
LF:14
LH:12
end_of_record
SF:/usr/include/c++/4.7.2/initializer_list
FN:71,_ZNKSt16initializer_listIN5fasta8SequenceEE4sizeEv
FN:75,_ZNKSt16initializer_listIN5fasta8SequenceEE5beginEv
FN:79,_ZNKSt16initializer_listIN5fasta8SequenceEE3endEv
FNDA:188,_ZNKSt16initializer_listIN5fasta8SequenceEE4sizeEv
FNDA:376,_ZNKSt16initializer_listIN5fasta8SequenceEE5beginEv
FNDA:188,_ZNKSt16initializer_listIN5fasta8SequenceEE3endEv
FNF:3
FNH:3
DA:71,188
DA:75,376
DA:79,188
LF:3
LH:3
end_of_record
SF:/usr/include/c++/4.7.2/iostream
DA:75,4
LF:1
LH:1
end_of_record
SF:/usr/include/c++/4.7.2/new
FN:111,_ZnwmPv
FN:117,_ZdlPvS_
FNDA:0,_ZnwmPv
FNDA:0,_ZdlPvS_
FNF:2
FNH:0
DA:111,0
DA:112,0
DA:117,0
LF:3
LH:0
end_of_record
SF:/usr/include/c++/4.7.2/x86_64-redhat-linux/bits/gthr-default.h
FN:259,_ZL18__gthread_active_pv
FNDA:0,_ZL18__gthread_active_pv
FNF:1
FNH:0
DA:259,0
DA:270,0
LF:2
LH:0
end_of_record
SF:/home/joanna/cmbi/kman/src/fasta.h
FN:11,_ZN5fasta7ResidueC2ERKS0_
FN:11,_ZN5fasta7ResidueaSERKS0_
FN:11,_ZN5fasta7ResidueD2Ev
FN:11,_ZN5fasta7ResidueC2EOS0_
FN:11,_ZN5fasta7ResidueaSEOS0_
FN:12,_ZN5fasta7ResidueC2ESsSt6vectorISsSaISsEE
FN:16,_ZN5fasta7ResidueC2Ev
FN:22,_ZN5fasta8SequenceC2Ev
FN:22,_ZN5fasta8SequenceD2Ev
FN:22,_ZN5fasta8SequenceC2ERKS0_
FN:22,_ZN5fasta8SequenceaSEOS0_
FNDA:320,_ZN5fasta7ResidueaSEOS0_
FNDA:0,_ZN5fasta7ResidueC2EOS0_
FNDA:0,_ZN5fasta7ResidueaSERKS0_
FNDA:0,_ZN5fasta7ResidueC2ERKS0_
FNDA:0,_ZN5fasta7ResidueD2Ev
FNDA:0,_ZN5fasta7ResidueC2ESsSt6vectorISsSaISsEE
FNDA:40,_ZN5fasta7ResidueC2Ev
FNDA:776,_ZN5fasta8SequenceC2ERKS0_
FNDA:92,_ZN5fasta8SequenceaSEOS0_
FNDA:0,_ZN5fasta8SequenceD2Ev
FNDA:0,_ZN5fasta8SequenceC2Ev
FNF:11
FNH:4
DA:11,320
DA:12,0
DA:14,0
DA:16,40
DA:22,868
LF:5
LH:3
end_of_record
SF:/home/joanna/cmbi/kman/src/scoring_matrix.cpp
FN:8,_ZN13ScoringMatrixC2Eiiddd
FN:27,_ZN13ScoringMatrix16calculate_scoresERKN5fasta8SequenceERKSt3mapIcSt6vectorIdSaIdEESt4lessIcESaISt4pairIKcS7_EEERK13FeatureScoresi
FN:74,_ZN13ScoringMatrix15find_best_scoreEv
FN:114,_ZN13ScoringMatrix24backtrace_alignment_pathERKN5fasta8SequenceERKSt3mapIcSt6vectorIdSaIdEESt4lessIcESaISt4pairIKcS7_EEERK13FeatureScoresi
FN:198,_Z41__static_initialization_and_destruction_0ii
FN:198,_GLOBAL__sub_I__ZN13ScoringMatrixC2Eiiddd
FNDA:20,_ZN13ScoringMatrixC2Eiiddd
FNDA:20,_ZN13ScoringMatrix16calculate_scoresERKN5fasta8SequenceERKSt3mapIcSt6vectorIdSaIdEESt4lessIcESaISt4pairIKcS7_EEERK13FeatureScoresi
FNDA:20,_ZN13ScoringMatrix15find_best_scoreEv
FNDA:20,_ZN13ScoringMatrix24backtrace_alignment_pathERKN5fasta8SequenceERKSt3mapIcSt6vectorIdSaIdEESt4lessIcESaISt4pairIKcS7_EEERK13FeatureScoresi
FNDA:4,_GLOBAL__sub_I__ZN13ScoringMatrixC2Eiiddd
FNDA:4,_Z41__static_initialization_and_destruction_0ii
FNF:6
FNH:6
DA:8,20
DA:14,20
DA:18,20
DA:21,20
DA:22,20
DA:23,20
DA:24,20
DA:27,20
DA:31,20
DA:32,20
DA:34,176
DA:35,156
DA:36,156
DA:37,156
DA:39,176
DA:40,156
DA:41,156
DA:42,156
DA:44,20
DA:45,176
DA:46,1376
DA:49,1220
DA:50,1220
DA:51,1348
DA:52,128
DA:55,1220
DA:56,1220
DA:57,1220
DA:59,1220
DA:60,1220
DA:62,1220
DA:63,1220
DA:64,1220
DA:66,1220
DA:67,1220
DA:68,1220
DA:71,20
DA:74,20
DA:75,20
DA:76,20
DA:77,20
DA:78,20
DA:79,20
DA:80,20
DA:82,20
DA:83,176
DA:86,156
DA:87,156
DA:88,20
DA:89,20
DA:90,20
DA:93,176
DA:94,156
DA:97,156
DA:98,20
DA:99,20
DA:100,20
DA:103,20
DA:104,20
DA:105,0
DA:106,0
DA:108,20
DA:109,20
DA:111,20
DA:114,20
DA:120,20
DA:121,20
DA:122,20
DA:123,40
DA:124,60
DA:126,20
DA:127,20
DA:128,20
DA:129,20
DA:132,20
DA:133,60
DA:134,40
DA:135,20
DA:136,20
DA:137,20
DA:138,0
DA:139,0
DA:141,40
DA:142,20
DA:143,20
DA:146,20
DA:148,20
DA:149,20
DA:150,20
DA:151,20
DA:154,196
DA:155,156
DA:156,136
DA:157,136
DA:159,136
DA:160,136
DA:161,152
DA:162,16
DA:164,136
DA:165,136
DA:166,60
DA:167,40
DA:168,20
DA:169,0
DA:170,0
DA:171,0
DA:174,136
DA:175,136
DA:176,20
DA:177,20
DA:178,20
DA:179,20
DA:180,20
DA:181,20
DA:182,0
DA:183,0
DA:184,0
DA:185,0
DA:186,0
DA:188,0
DA:190,156
DA:191,156
DA:195,20
DA:196,20
DA:197,20
DA:198,12
LF:126
LH:113
end_of_record
TN:
SF:/home/joanna/include/boost/algorithm/string/classification.hpp
FN:203,_ZN5boost9algorithm9is_any_ofIA3_cEENS0_6detail10is_any_ofFINS_11range_valueIT_E4typeEEERKS6_
FNDA:388,_ZN5boost9algorithm9is_any_ofIA3_cEENS0_6detail10is_any_ofFINS_11range_valueIT_E4typeEEERKS6_
FNF:1
FNH:1
DA:203,388
DA:205,388
DA:206,388
LF:3
LH:3
end_of_record
SF:/home/joanna/include/boost/algorithm/string/detail/classification.hpp
FN:80,_ZN5boost9algorithm6detail10is_any_ofFIcEC2INS_14iterator_rangeIPKcEEEERKT_
FN:107,_ZN5boost9algorithm6detail10is_any_ofFIcEC2ERKS3_
FN:133,_ZN5boost9algorithm6detail10is_any_ofFIcED2Ev
FN:216,_ZNK5boost9algorithm6detail10is_any_ofFIcEclIcEEbT_
FN:227,_ZN5boost9algorithm6detail10is_any_ofFIcE17use_fixed_storageEm
FNDA:388,_ZN5boost9algorithm6detail10is_any_ofFIcEC2INS_14iterator_rangeIPKcEEEERKT_
FNDA:8148,_ZN5boost9algorithm6detail10is_any_ofFIcEC2ERKS3_
FNDA:8536,_ZN5boost9algorithm6detail10is_any_ofFIcED2Ev
FNDA:6584,_ZNK5boost9algorithm6detail10is_any_ofFIcEclIcEEbT_
FNDA:23656,_ZN5boost9algorithm6detail10is_any_ofFIcE17use_fixed_storageEm
FNF:5
FNH:5
DA:80,388
DA:83,388
DA:85,388
DA:86,388
DA:87,388
DA:89,388
DA:92,388
DA:97,0
DA:98,0
DA:102,388
DA:103,388
DA:104,388
DA:107,8148
DA:110,8148
DA:111,8148
DA:112,8148
DA:114,8148
DA:117,8148
DA:118,8148
DA:123,0
DA:124,0
DA:125,0
DA:129,8148
DA:130,8148
DA:133,8536
DA:135,8536
DA:137,0
DA:139,8536
DA:216,6584
DA:221,6584
DA:223,6584
DA:227,23656
DA:229,23656
LF:33
LH:27
end_of_record
SF:/home/joanna/include/boost/algorithm/string/detail/find_iterator.hpp
FN:43,_ZN5boost9algorithm6detail18find_iterator_baseIN9__gnu_cxx17__normal_iteratorIPcSsEEEC2Ev
FN:45,_ZN5boost9algorithm6detail18find_iterator_baseIN9__gnu_cxx17__normal_iteratorIPcSsEEEC2ERKS7_
FN:50,_ZN5boost9algorithm6detail18find_iterator_baseIN9__gnu_cxx17__normal_iteratorIPcSsEEEC2INS1_13token_finderFINS1_10is_any_ofFIcEEEEEET_i
FN:54,_ZN5boost9algorithm6detail18find_iterator_baseIN9__gnu_cxx17__normal_iteratorIPcSsEEED2Ev
FN:57,_ZNK5boost9algorithm6detail18find_iterator_baseIN9__gnu_cxx17__normal_iteratorIPcSsEEE7do_findES6_S6_
FN:72,_ZNK5boost9algorithm6detail18find_iterator_baseIN9__gnu_cxx17__normal_iteratorIPcSsEEE7is_nullEv
FNDA:388,_ZN5boost9algorithm6detail18find_iterator_baseIN9__gnu_cxx17__normal_iteratorIPcSsEEEC2Ev
FNDA:3104,_ZN5boost9algorithm6detail18find_iterator_baseIN9__gnu_cxx17__normal_iteratorIPcSsEEEC2ERKS7_
FNDA:388,_ZN5boost9algorithm6detail18find_iterator_baseIN9__gnu_cxx17__normal_iteratorIPcSsEEEC2INS1_13token_finderFINS1_10is_any_ofFIcEEEEEET_i
FNDA:3880,_ZN5boost9algorithm6detail18find_iterator_baseIN9__gnu_cxx17__normal_iteratorIPcSsEEED2Ev
FNDA:1164,_ZNK5boost9algorithm6detail18find_iterator_baseIN9__gnu_cxx17__normal_iteratorIPcSsEEE7do_findES6_S6_
FNDA:2328,_ZNK5boost9algorithm6detail18find_iterator_baseIN9__gnu_cxx17__normal_iteratorIPcSsEEE7is_nullEv
FNF:6
FNH:6
DA:43,388
DA:45,3104
DA:46,3104
DA:50,388
DA:51,388
DA:54,3880
DA:57,1164
DA:61,1164
DA:63,1164
DA:67,0
DA:72,2328
DA:74,2328
LF:12
LH:11
end_of_record
SF:/home/joanna/include/boost/algorithm/string/detail/finder.hpp
FN:548,_ZN5boost9algorithm6detail13token_finderFINS1_10is_any_ofFIcEEEC2ERKS5_
FN:548,_ZN5boost9algorithm6detail13token_finderFINS1_10is_any_ofFIcEEED2Ev
FN:551,_ZN5boost9algorithm6detail13token_finderFINS1_10is_any_ofFIcEEEC2ES4_NS0_24token_compress_mode_typeE
FN:559,_ZNK5boost9algorithm6detail13token_finderFINS1_10is_any_ofFIcEEEclIN9__gnu_cxx17__normal_iteratorIPcSsEEEENS_14iterator_rangeIT_EESC_SC_
FNDA:4656,_ZN5boost9algorithm6detail13token_finderFINS1_10is_any_ofFIcEEEC2ERKS5_
FNDA:5044,_ZN5boost9algorithm6detail13token_finderFINS1_10is_any_ofFIcEEED2Ev
FNDA:388,_ZN5boost9algorithm6detail13token_finderFINS1_10is_any_ofFIcEEEC2ES4_NS0_24token_compress_mode_typeE
FNDA:1164,_ZNK5boost9algorithm6detail13token_finderFINS1_10is_any_ofFIcEEEclIN9__gnu_cxx17__normal_iteratorIPcSsEEEENS_14iterator_rangeIT_EESC_SC_
FNF:4
FNH:4
DA:548,9700
DA:551,388
DA:554,388
DA:559,1164
DA:565,1164
DA:567,1164
DA:569,776
DA:573,388
DA:575,388
DA:578,0
DA:583,388
DA:586,388
LF:12
LH:11
end_of_record
SF:/home/joanna/include/boost/algorithm/string/detail/util.hpp
FN:95,_ZNK5boost9algorithm6detail20copy_iterator_rangeFISsN9__gnu_cxx17__normal_iteratorIPcSsEEEclERKNS_14iterator_rangeIS6_EE
FNDA:776,_ZNK5boost9algorithm6detail20copy_iterator_rangeFISsN9__gnu_cxx17__normal_iteratorIPcSsEEEclERKNS_14iterator_rangeIS6_EE
FNF:1
FNH:1
DA:95,776
DA:97,776
LF:2
LH:2
end_of_record
SF:/home/joanna/include/boost/algorithm/string/find_iterator.hpp
FN:206,_ZN5boost9algorithm14split_iteratorIN9__gnu_cxx17__normal_iteratorIPcSsEEED2Ev
FN:233,_ZN5boost9algorithm14split_iteratorIN9__gnu_cxx17__normal_iteratorIPcSsEEEC2Ev
FN:238,_ZN5boost9algorithm14split_iteratorIN9__gnu_cxx17__normal_iteratorIPcSsEEEC2ERKS6_
FN:252,_ZN5boost9algorithm14split_iteratorIN9__gnu_cxx17__normal_iteratorIPcSsEEEC2INS0_6detail13token_finderFINS8_10is_any_ofFIcEEEEEES5_S5_T_
FN:297,_ZNK5boost9algorithm14split_iteratorIN9__gnu_cxx17__normal_iteratorIPcSsEEE11dereferenceEv
FN:303,_ZN5boost9algorithm14split_iteratorIN9__gnu_cxx17__normal_iteratorIPcSsEEE9incrementEv
FN:321,_ZNK5boost9algorithm14split_iteratorIN9__gnu_cxx17__normal_iteratorIPcSsEEE5equalERKS6_
FN:343,_ZNK5boost9algorithm14split_iteratorIN9__gnu_cxx17__normal_iteratorIPcSsEEE3eofEv
FNDA:3880,_ZN5boost9algorithm14split_iteratorIN9__gnu_cxx17__normal_iteratorIPcSsEEED2Ev
FNDA:388,_ZN5boost9algorithm14split_iteratorIN9__gnu_cxx17__normal_iteratorIPcSsEEEC2Ev
FNDA:3104,_ZN5boost9algorithm14split_iteratorIN9__gnu_cxx17__normal_iteratorIPcSsEEEC2ERKS6_
FNDA:388,_ZN5boost9algorithm14split_iteratorIN9__gnu_cxx17__normal_iteratorIPcSsEEEC2INS0_6detail13token_finderFINS8_10is_any_ofFIcEEEEEES5_S5_T_
FNDA:776,_ZNK5boost9algorithm14split_iteratorIN9__gnu_cxx17__normal_iteratorIPcSsEEE11dereferenceEv
FNDA:1164,_ZN5boost9algorithm14split_iteratorIN9__gnu_cxx17__normal_iteratorIPcSsEEE9incrementEv
FNDA:1164,_ZNK5boost9algorithm14split_iteratorIN9__gnu_cxx17__normal_iteratorIPcSsEEE5equalERKS6_
FNDA:2328,_ZNK5boost9algorithm14split_iteratorIN9__gnu_cxx17__normal_iteratorIPcSsEEE3eofEv
FNF:8
FNH:8
DA:206,3880
DA:233,388
DA:238,3104
DA:243,3104
DA:244,3104
DA:252,388
DA:260,388
DA:263,388
DA:265,388
DA:267,388
DA:297,776
DA:299,776
DA:303,1164
DA:305,1164
DA:307,1164
DA:309,776
DA:312,388
DA:316,1164
DA:317,1164
DA:318,1164
DA:321,1164
DA:323,1164
DA:324,1164
DA:331,1164
DA:343,2328
DA:345,2328
LF:26
LH:26
end_of_record
SF:/home/joanna/include/boost/algorithm/string/finder.hpp
FN:218,_ZN5boost9algorithm12token_finderINS0_6detail10is_any_ofFIcEEEENS2_13token_finderFIT_EES6_NS0_24token_compress_mode_typeE
FNDA:388,_ZN5boost9algorithm12token_finderINS0_6detail10is_any_ofFIcEEEENS2_13token_finderFIT_EES6_NS0_24token_compress_mode_typeE
FNF:1
FNH:1
DA:218,388
DA:222,388
LF:2
LH:2
end_of_record
SF:/home/joanna/include/boost/algorithm/string/iter_find.hpp
FN:143,_ZN5boost9algorithm10iter_splitISt6vectorISsSaISsEESsNS0_6detail13token_finderFINS5_10is_any_ofFIcEEEEEERT_SB_RT0_T1_
FNDA:388,_ZN5boost9algorithm10iter_splitISt6vectorISsSaISsEESsNS0_6detail13token_finderFINS5_10is_any_ofFIcEEEEEERT_SB_RT0_T1_
FNF:1
FNH:1
DA:143,388
DA:153,388
DA:163,388
DA:171,388
DA:176,388
DA:178,388
DA:180,388
DA:181,388
LF:8
LH:8
end_of_record
SF:/home/joanna/include/boost/algorithm/string/predicate_facade.hpp
FN:36,_ZN5boost9algorithm16predicate_facadeINS0_6detail10is_any_ofFIcEEEC2Ev
FNDA:8536,_ZN5boost9algorithm16predicate_facadeINS0_6detail10is_any_ofFIcEEEC2Ev
FNF:1
FNH:1
DA:36,8536
LF:1
LH:1
end_of_record
SF:/home/joanna/include/boost/algorithm/string/split.hpp
FN:140,_ZN5boost9algorithm5splitISt6vectorISsSaISsEESsNS0_6detail10is_any_ofFIcEEEERT_S9_RT0_T1_NS0_24token_compress_mode_typeE
FNDA:388,_ZN5boost9algorithm5splitISt6vectorISsSaISsEESsNS0_6detail10is_any_ofFIcEEEERT_S9_RT0_T1_NS0_24token_compress_mode_typeE
FNF:1
FNH:1
DA:140,388
DA:149,388
LF:2
LH:2
end_of_record
SF:/home/joanna/include/boost/core/addressof.hpp
DA:29,388
DA:30,388
DA:41,388
DA:116,776
LF:4
LH:4
end_of_record
SF:/home/joanna/include/boost/core/checked_delete.hpp
FN:29,_ZN5boost14checked_deleteINS_10filesystem6detail17recur_dir_itr_impEEEvPT_
FN:29,_ZN5boost14checked_deleteINS_10filesystem16filesystem_error5m_impEEEvPT_
FN:29,_ZN5boost14checked_deleteINS_10filesystem6detail11dir_itr_impEEEvPT_
FN:29,_ZN5boost14checked_deleteINS_13match_resultsIN9__gnu_cxx17__normal_iteratorIPKcSsEESaINS_9sub_matchIS6_EEEEEEEvPT_
FNDA:0,_ZN5boost14checked_deleteINS_10filesystem16filesystem_error5m_impEEEvPT_
FNDA:70360,_ZN5boost14checked_deleteINS_13match_resultsIN9__gnu_cxx17__normal_iteratorIPKcSsEESaINS_9sub_matchIS6_EEEEEEEvPT_
FNDA:0,_ZN5boost14checked_deleteINS_10filesystem6detail17recur_dir_itr_impEEEvPT_
FNDA:0,_ZN5boost14checked_deleteINS_10filesystem6detail11dir_itr_impEEEvPT_
FNF:4
FNH:1
DA:29,70360
DA:34,70360
DA:35,70360
LF:3
LH:3
end_of_record
SF:/home/joanna/include/boost/exception/exception.hpp
FN:27,_ZN5boost16exception_detail12refcount_ptrINS0_20error_info_containerEEC2Ev
FN:32,_ZN5boost16exception_detail12refcount_ptrINS0_20error_info_containerEED2Ev
FN:37,_ZN5boost16exception_detail12refcount_ptrINS0_20error_info_containerEEC2ERKS3_
FN:44,_ZN5boost16exception_detail12refcount_ptrINS0_20error_info_containerEEaSERKS3_
FN:51,_ZN5boost16exception_detail12refcount_ptrINS0_20error_info_containerEE5adoptEPS2_
FN:59,_ZNK5boost16exception_detail12refcount_ptrINS0_20error_info_containerEE3getEv
FN:69,_ZN5boost16exception_detail12refcount_ptrINS0_20error_info_containerEE7add_refEv
FN:76,_ZN5boost16exception_detail12refcount_ptrINS0_20error_info_containerEE7releaseEv
FN:208,_ZN5boost9exceptionC2ERKS0_
FN:218,_ZN5boost9exceptionC2Ev
FN:281,_ZN5boost9exceptionD0Ev
FN:281,_ZN5boost9exceptionD2Ev
FN:326,_ZN5boost16exception_detail19error_info_injectorISt14overflow_errorEC2ERKS3_
FN:326,_ZN5boost16exception_detail19error_info_injectorINS_12bad_weak_ptrEEC2ERKS3_
FN:326,_ZN5boost16exception_detail19error_info_injectorISt11logic_errorEC2ERKS3_
FN:326,_ZN5boost16exception_detail19error_info_injectorINS_17bad_function_callEEC2ERKS3_
FN:331,_ZN5boost16exception_detail19error_info_injectorINS_17bad_function_callEEC2ERKS2_
FN:331,_ZN5boost16exception_detail19error_info_injectorISt11logic_errorEC2ERKS2_
FN:336,_ZN5boost16exception_detail19error_info_injectorINS_17bad_function_callEED0Ev
FN:336,_ZN5boost16exception_detail19error_info_injectorINS_17bad_function_callEED2Ev
FN:336,_ZN5boost16exception_detail19error_info_injectorINS_12bad_weak_ptrEED0Ev
FN:336,_ZN5boost16exception_detail19error_info_injectorISt14overflow_errorED0Ev
FN:336,_ZN5boost16exception_detail19error_info_injectorISt14overflow_errorED2Ev
FN:336,_ZN5boost16exception_detail19error_info_injectorINS_12bad_weak_ptrEED2Ev
FN:336,_ZN5boost16exception_detail19error_info_injectorISt11logic_errorED0Ev
FN:336,_ZN5boost16exception_detail19error_info_injectorISt11logic_errorED2Ev
FN:381,_ZN5boost17enable_error_infoINS_17bad_function_callEEENS_16exception_detail29enable_error_info_return_typeIT_E4typeERKS4_
FN:381,_ZN5boost17enable_error_infoISt11logic_errorEENS_16exception_detail29enable_error_info_return_typeIT_E4typeERKS4_
FN:398,_ZN5boost16exception_detail10clone_baseC2ERKS1_
FN:398,_ZN5boost16exception_detail10clone_baseC2Ev
FN:406,_ZN5boost16exception_detail10clone_baseD2Ev
FN:406,_ZN5boost16exception_detail10clone_baseD0Ev
FN:418,_ZN5boost16exception_detail20copy_boost_exceptionEPNS_9exceptionEPKS1_
FN:437,_ZN5boost16exception_detail10clone_implINS0_19error_info_injectorISt11logic_errorEEEC1ERKS5_
FN:437,_ZN5boost16exception_detail10clone_implINS0_19error_info_injectorINS_12bad_weak_ptrEEEEC1ERKS5_
FN:437,_ZN5boost16exception_detail10clone_implINS0_19error_info_injectorISt14overflow_errorEEEC1ERKS5_
FN:437,_ZN5boost16exception_detail10clone_implINS0_19error_info_injectorINS_17bad_function_callEEEEC1ERKS5_
FN:442,_ZN5boost16exception_detail10clone_implINS0_19error_info_injectorINS_12bad_weak_ptrEEEEC1ERKS5_NS5_9clone_tagE
FN:442,_ZN5boost16exception_detail10clone_implINS0_19error_info_injectorISt11logic_errorEEEC1ERKS5_NS5_9clone_tagE
FN:442,_ZN5boost16exception_detail10clone_implINS0_19error_info_injectorISt14overflow_errorEEEC1ERKS5_NS5_9clone_tagE
FN:442,_ZN5boost16exception_detail10clone_implINS0_19error_info_injectorINS_17bad_function_callEEEEC1ERKS5_NS5_9clone_tagE
FN:451,_ZN5boost16exception_detail10clone_implINS0_19error_info_injectorINS_17bad_function_callEEEEC1ERKS4_
FN:451,_ZN5boost16exception_detail10clone_implINS0_19error_info_injectorISt11logic_errorEEEC1ERKS4_
FN:457,_ZN5boost16exception_detail10clone_implINS0_19error_info_injectorINS_17bad_function_callEEEED0Ev
FN:457,_ZN5boost16exception_detail10clone_implINS0_19error_info_injectorISt11logic_errorEEED1Ev
FN:457,_ZN5boost16exception_detail10clone_implINS0_19error_info_injectorISt11logic_errorEEED0Ev
FN:457,_ZN5boost16exception_detail10clone_implINS0_19error_info_injectorINS_17bad_function_callEEEED1Ev
FN:457,_ZN5boost16exception_detail10clone_implINS0_19error_info_injectorISt14overflow_errorEEED1Ev
FN:457,_ZN5boost16exception_detail10clone_implINS0_19error_info_injectorINS_12bad_weak_ptrEEEED0Ev
FN:457,_ZN5boost16exception_detail10clone_implINS0_19error_info_injectorINS_12bad_weak_ptrEEEED1Ev
FN:457,_ZN5boost16exception_detail10clone_implINS0_19error_info_injectorISt14overflow_errorEEED0Ev
FN:464,_ZNK5boost16exception_detail10clone_implINS0_19error_info_injectorISt11logic_errorEEE5cloneEv
FN:464,_ZNK5boost16exception_detail10clone_implINS0_19error_info_injectorISt14overflow_errorEEE5cloneEv
FN:464,_ZNK5boost16exception_detail10clone_implINS0_19error_info_injectorINS_12bad_weak_ptrEEEE5cloneEv
FN:464,_ZNK5boost16exception_detail10clone_implINS0_19error_info_injectorINS_17bad_function_callEEEE5cloneEv
FN:470,_ZNK5boost16exception_detail10clone_implINS0_19error_info_injectorISt14overflow_errorEEE7rethrowEv
FN:470,_ZNK5boost16exception_detail10clone_implINS0_19error_info_injectorISt11logic_errorEEE7rethrowEv
FN:470,_ZNK5boost16exception_detail10clone_implINS0_19error_info_injectorINS_12bad_weak_ptrEEEE7rethrowEv
FN:470,_ZNK5boost16exception_detail10clone_implINS0_19error_info_injectorINS_17bad_function_callEEEE7rethrowEv
FN:480,_ZN5boost24enable_current_exceptionINS_16exception_detail19error_info_injectorINS_17bad_function_callEEEEENS1_10clone_implIT_EERKS6_
FN:480,_ZN5boost24enable_current_exceptionINS_16exception_detail19error_info_injectorISt11logic_errorEEEENS1_10clone_implIT_EERKS6_
FNDA:0,_ZN5boost16exception_detail12refcount_ptrINS0_20error_info_containerEEC2Ev
FNDA:0,_ZN5boost16exception_detail12refcount_ptrINS0_20error_info_containerEED2Ev
FNDA:0,_ZN5boost16exception_detail12refcount_ptrINS0_20error_info_containerEEC2ERKS3_
FNDA:0,_ZN5boost16exception_detail12refcount_ptrINS0_20error_info_containerEEaSERKS3_
FNDA:0,_ZN5boost16exception_detail12refcount_ptrINS0_20error_info_containerEE5adoptEPS2_
FNDA:0,_ZNK5boost16exception_detail12refcount_ptrINS0_20error_info_containerEE3getEv
FNDA:0,_ZN5boost16exception_detail12refcount_ptrINS0_20error_info_containerEE7add_refEv
FNDA:0,_ZN5boost16exception_detail12refcount_ptrINS0_20error_info_containerEE7releaseEv
FNDA:0,_ZN5boost9exceptionC2ERKS0_
FNDA:0,_ZN5boost9exceptionC2Ev
FNDA:0,_ZN5boost9exceptionD0Ev
FNDA:0,_ZN5boost9exceptionD2Ev
FNDA:0,_ZN5boost16exception_detail19error_info_injectorISt11logic_errorEC2ERKS3_
FNDA:0,_ZN5boost16exception_detail19error_info_injectorINS_17bad_function_callEEC2ERKS3_
FNDA:0,_ZN5boost16exception_detail19error_info_injectorISt14overflow_errorEC2ERKS3_
FNDA:0,_ZN5boost16exception_detail19error_info_injectorINS_12bad_weak_ptrEEC2ERKS3_
FNDA:0,_ZN5boost16exception_detail19error_info_injectorISt11logic_errorEC2ERKS2_
FNDA:0,_ZN5boost16exception_detail19error_info_injectorINS_17bad_function_callEEC2ERKS2_
FNDA:0,_ZN5boost16exception_detail19error_info_injectorISt11logic_errorED0Ev
FNDA:0,_ZN5boost16exception_detail19error_info_injectorISt11logic_errorED2Ev
FNDA:0,_ZN5boost16exception_detail19error_info_injectorINS_17bad_function_callEED0Ev
FNDA:0,_ZN5boost16exception_detail19error_info_injectorINS_17bad_function_callEED2Ev
FNDA:0,_ZN5boost16exception_detail19error_info_injectorISt14overflow_errorED0Ev
FNDA:0,_ZN5boost16exception_detail19error_info_injectorISt14overflow_errorED2Ev
FNDA:0,_ZN5boost16exception_detail19error_info_injectorINS_12bad_weak_ptrEED0Ev
FNDA:0,_ZN5boost16exception_detail19error_info_injectorINS_12bad_weak_ptrEED2Ev
FNDA:0,_ZN5boost17enable_error_infoISt11logic_errorEENS_16exception_detail29enable_error_info_return_typeIT_E4typeERKS4_
FNDA:0,_ZN5boost17enable_error_infoINS_17bad_function_callEEENS_16exception_detail29enable_error_info_return_typeIT_E4typeERKS4_
FNDA:0,_ZN5boost16exception_detail10clone_baseC2Ev
FNDA:0,_ZN5boost16exception_detail10clone_baseC2ERKS1_
FNDA:0,_ZN5boost16exception_detail10clone_baseD0Ev
FNDA:0,_ZN5boost16exception_detail10clone_baseD2Ev
FNDA:0,_ZN5boost16exception_detail20copy_boost_exceptionEPNS_9exceptionEPKS1_
FNDA:0,_ZN5boost16exception_detail10clone_implINS0_19error_info_injectorISt11logic_errorEEEC1ERKS5_
FNDA:0,_ZN5boost16exception_detail10clone_implINS0_19error_info_injectorINS_17bad_function_callEEEEC1ERKS5_
FNDA:0,_ZN5boost16exception_detail10clone_implINS0_19error_info_injectorISt14overflow_errorEEEC1ERKS5_
FNDA:0,_ZN5boost16exception_detail10clone_implINS0_19error_info_injectorINS_12bad_weak_ptrEEEEC1ERKS5_
FNDA:0,_ZN5boost16exception_detail10clone_implINS0_19error_info_injectorINS_12bad_weak_ptrEEEEC1ERKS5_NS5_9clone_tagE
FNDA:0,_ZN5boost16exception_detail10clone_implINS0_19error_info_injectorISt14overflow_errorEEEC1ERKS5_NS5_9clone_tagE
FNDA:0,_ZN5boost16exception_detail10clone_implINS0_19error_info_injectorINS_17bad_function_callEEEEC1ERKS5_NS5_9clone_tagE
FNDA:0,_ZN5boost16exception_detail10clone_implINS0_19error_info_injectorISt11logic_errorEEEC1ERKS5_NS5_9clone_tagE
FNDA:0,_ZN5boost16exception_detail10clone_implINS0_19error_info_injectorISt11logic_errorEEEC1ERKS4_
FNDA:0,_ZN5boost16exception_detail10clone_implINS0_19error_info_injectorINS_17bad_function_callEEEEC1ERKS4_
FNDA:0,_ZN5boost16exception_detail10clone_implINS0_19error_info_injectorISt11logic_errorEEED0Ev
FNDA:0,_ZN5boost16exception_detail10clone_implINS0_19error_info_injectorISt11logic_errorEEED1Ev
FNDA:0,_ZN5boost16exception_detail10clone_implINS0_19error_info_injectorINS_17bad_function_callEEEED0Ev
FNDA:0,_ZN5boost16exception_detail10clone_implINS0_19error_info_injectorINS_17bad_function_callEEEED1Ev
FNDA:0,_ZN5boost16exception_detail10clone_implINS0_19error_info_injectorISt14overflow_errorEEED0Ev
FNDA:0,_ZN5boost16exception_detail10clone_implINS0_19error_info_injectorISt14overflow_errorEEED1Ev
FNDA:0,_ZN5boost16exception_detail10clone_implINS0_19error_info_injectorINS_12bad_weak_ptrEEEED0Ev
FNDA:0,_ZN5boost16exception_detail10clone_implINS0_19error_info_injectorINS_12bad_weak_ptrEEEED1Ev
FNDA:0,_ZNK5boost16exception_detail10clone_implINS0_19error_info_injectorINS_12bad_weak_ptrEEEE5cloneEv
FNDA:0,_ZNK5boost16exception_detail10clone_implINS0_19error_info_injectorISt14overflow_errorEEE5cloneEv
FNDA:0,_ZNK5boost16exception_detail10clone_implINS0_19error_info_injectorINS_17bad_function_callEEEE5cloneEv
FNDA:0,_ZNK5boost16exception_detail10clone_implINS0_19error_info_injectorISt11logic_errorEEE5cloneEv
FNDA:0,_ZNK5boost16exception_detail10clone_implINS0_19error_info_injectorINS_12bad_weak_ptrEEEE7rethrowEv
FNDA:0,_ZNK5boost16exception_detail10clone_implINS0_19error_info_injectorISt14overflow_errorEEE7rethrowEv
FNDA:0,_ZNK5boost16exception_detail10clone_implINS0_19error_info_injectorINS_17bad_function_callEEEE7rethrowEv
FNDA:0,_ZNK5boost16exception_detail10clone_implINS0_19error_info_injectorISt11logic_errorEEE7rethrowEv
FNDA:0,_ZN5boost24enable_current_exceptionINS_16exception_detail19error_info_injectorISt11logic_errorEEEENS1_10clone_implIT_EERKS6_
FNDA:0,_ZN5boost24enable_current_exceptionINS_16exception_detail19error_info_injectorINS_17bad_function_callEEEEENS1_10clone_implIT_EERKS6_
FNF:61
FNH:0
DA:27,0
DA:28,0
DA:30,0
DA:32,0
DA:34,0
DA:35,0
DA:37,0
DA:38,0
DA:40,0
DA:41,0
DA:44,0
DA:46,0
DA:47,0
DA:51,0
DA:53,0
DA:54,0
DA:55,0
DA:56,0
DA:59,0
DA:61,0
DA:69,0
DA:71,0
DA:72,0
DA:73,0
DA:76,0
DA:78,0
DA:79,0
DA:80,0
DA:208,0
DA:218,0
DA:221,0
DA:223,0
DA:281,0
DA:282,0
DA:284,0
DA:326,0
DA:331,0
DA:332,0
DA:334,0
DA:336,0
DA:338,0
DA:381,0
DA:384,0
DA:398,0
DA:406,0
DA:407,0
DA:408,0
DA:418,0
DA:420,0
DA:421,0
DA:422,0
DA:423,0
DA:424,0
DA:425,0
DA:426,0
DA:427,0
DA:437,0
DA:442,0
DA:443,0
DA:445,0
DA:446,0
DA:451,0
DA:452,0
DA:454,0
DA:455,0
DA:457,0
DA:459,0
DA:464,0
DA:466,0
DA:470,0
DA:472,0
DA:480,0
DA:482,0
LF:73
LH:0
end_of_record
SF:/home/joanna/include/boost/filesystem/operations.hpp
FN:114,_ZN5boost10filesystem16filesystem_errorD2Ev
FN:114,_ZN5boost10filesystem16filesystem_errorD0Ev
FN:127,_ZNK5boost10filesystem16filesystem_error4whatEv
FN:159,_ZN5boost10filesystem16filesystem_error5m_impD2Ev
FN:264,_ZNK5boost10filesystem11file_status4typeEv
FN:284,_ZN5boost10filesystem6existsENS0_11file_statusE
FN:404,_ZN5boost10filesystem6existsERKNS0_4pathE
FN:683,_ZN5boost10filesystem15directory_entryD2Ev
FN:769,_ZN5boost10filesystem6detail11dir_itr_impD2Ev
FN:812,_ZN5boost10filesystem18directory_iteratorD2Ev
FN:898,_ZN5boost10filesystem6detail17recur_dir_itr_impD2Ev
FNDA:0,_ZN5boost10filesystem16filesystem_errorD0Ev
FNDA:0,_ZN5boost10filesystem16filesystem_errorD2Ev
FNDA:0,_ZNK5boost10filesystem16filesystem_error4whatEv
FNDA:0,_ZN5boost10filesystem16filesystem_error5m_impD2Ev
FNDA:8,_ZNK5boost10filesystem11file_status4typeEv
FNDA:4,_ZN5boost10filesystem6existsENS0_11file_statusE
FNDA:4,_ZN5boost10filesystem6existsERKNS0_4pathE
FNDA:0,_ZN5boost10filesystem15directory_entryD2Ev
FNDA:0,_ZN5boost10filesystem6detail11dir_itr_impD2Ev
FNDA:0,_ZN5boost10filesystem18directory_iteratorD2Ev
FNDA:0,_ZN5boost10filesystem6detail17recur_dir_itr_impD2Ev
FNF:11
FNH:3
DA:114,0
DA:127,0
DA:129,0
DA:130,0
DA:134,0
DA:136,0
DA:137,0
DA:139,0
DA:140,0
DA:141,0
DA:143,0
DA:145,0
DA:146,0
DA:147,0
DA:150,0
DA:152,0
DA:154,0
DA:159,0
DA:264,8
DA:284,4
DA:285,4
DA:404,4
DA:683,0
DA:769,0
DA:770,0
DA:775,0
DA:776,0
DA:812,0
DA:898,0
LF:29
LH:4
end_of_record
SF:/home/joanna/include/boost/filesystem/path.hpp
FN:55,_ZN5boost10filesystem4pathD2Ev
FN:146,_ZN5boost10filesystem4pathC2ERSs
FN:419,_ZNK5boost10filesystem4path6stringEv
FN:484,_ZNK5boost10filesystem4path5emptyEv
FNDA:4,_ZN5boost10filesystem4pathD2Ev
FNDA:4,_ZN5boost10filesystem4pathC2ERSs
FNDA:0,_ZNK5boost10filesystem4path6stringEv
FNDA:0,_ZNK5boost10filesystem4path5emptyEv
FNF:4
FNH:2
DA:55,4
DA:146,4
DA:419,0
DA:484,0
LF:4
LH:2
end_of_record
SF:/home/joanna/include/boost/function/function_base.hpp
FN:369,_ZN5boost6detail8function15functor_managerINS_9algorithm6detail13token_finderFINS4_10is_any_ofFIcEEEEE7managerERKNS1_15function_bufferERSA_NS1_30functor_manager_operation_typeEN4mpl_5bool_ILb0EEE
FN:409,_ZN5boost6detail8function15functor_managerINS_9algorithm6detail13token_finderFINS4_10is_any_ofFIcEEEEE7managerERKNS1_15function_bufferERSA_NS1_30functor_manager_operation_typeENS1_16function_obj_tagE
FN:428,_ZN5boost6detail8function15functor_managerINS_9algorithm6detail13token_finderFINS4_10is_any_ofFIcEEEEE6manageERKNS1_15function_bufferERSA_NS1_30functor_manager_operation_typeE
FN:633,_ZN5boost13function_baseC2Ev
FN:636,_ZNK5boost13function_base5emptyEv
FN:719,_ZNK5boost13function_base28has_trivial_copy_and_destroyEv
FN:731,_ZN5boost17bad_function_callD2Ev
FN:731,_ZN5boost17bad_function_callC2ERKS0_
FN:731,_ZN5boost17bad_function_callD0Ev
FN:734,_ZN5boost17bad_function_callC2Ev
FN:886,_ZN5boost6detail8function16has_empty_targetEz
FNDA:3492,_ZN5boost6detail8function15functor_managerINS_9algorithm6detail13token_finderFINS4_10is_any_ofFIcEEEEE7managerERKNS1_15function_bufferERSA_NS1_30functor_manager_operation_typeEN4mpl_5bool_ILb0EEE
FNDA:3492,_ZN5boost6detail8function15functor_managerINS_9algorithm6detail13token_finderFINS4_10is_any_ofFIcEEEEE7managerERKNS1_15function_bufferERSA_NS1_30functor_manager_operation_typeENS1_16function_obj_tagE
FNDA:3492,_ZN5boost6detail8function15functor_managerINS_9algorithm6detail13token_finderFINS4_10is_any_ofFIcEEEEE6manageERKNS1_15function_bufferERSA_NS1_30functor_manager_operation_typeE
FNDA:3880,_ZN5boost13function_baseC2Ev
FNDA:7760,_ZNK5boost13function_base5emptyEv
FNDA:3492,_ZNK5boost13function_base28has_trivial_copy_and_destroyEv
FNDA:0,_ZN5boost17bad_function_callC2ERKS0_
FNDA:0,_ZN5boost17bad_function_callD0Ev
FNDA:0,_ZN5boost17bad_function_callD2Ev
FNDA:0,_ZN5boost17bad_function_callC2Ev
FNDA:388,_ZN5boost6detail8function16has_empty_targetEz
FNF:11
FNH:7
DA:369,3492
DA:372,3492
DA:379,1552
DA:380,1552
DA:381,1552
DA:382,1940
DA:383,0
DA:384,0
DA:385,1940
DA:388,1940
DA:389,1940
DA:390,1940
DA:391,0
DA:393,0
DA:394,0
DA:395,0
DA:397,0
DA:399,0
DA:400,0
DA:401,0
DA:403,3492
DA:409,3492
DA:412,3492
DA:414,3492
DA:428,3492
DA:432,3492
DA:434,0
DA:435,0
DA:436,0
DA:437,0
DA:440,3492
DA:441,3492
DA:633,3880
DA:636,7760
DA:719,3492
DA:720,3492
DA:731,0
DA:734,0
DA:886,388
DA:888,388
LF:40
LH:24
end_of_record
SF:/home/joanna/include/boost/function/function_template.hpp
FN:123,_ZN5boost6detail8function21function_obj_invoker2INS_9algorithm6detail13token_finderFINS4_10is_any_ofFIcEEEENS_14iterator_rangeIN9__gnu_cxx17__normal_iteratorIPcSsEEEESD_SD_E6invokeERNS1_15function_bufferESD_SD_
FN:489,_ZNK5boost6detail8function13basic_vtable2INS_14iterator_rangeIN9__gnu_cxx17__normal_iteratorIPcSsEEEES7_S7_E9assign_toINS_9algorithm6detail13token_finderFINSC_10is_any_ofFIcEEEEEEbT_RNS1_15function_bufferE
FN:501,_ZNK5boost6detail8function13basic_vtable2INS_14iterator_rangeIN9__gnu_cxx17__normal_iteratorIPcSsEEEES7_S7_E5clearERNS1_15function_bufferE
FN:578,_ZNK5boost6detail8function13basic_vtable2INS_14iterator_rangeIN9__gnu_cxx17__normal_iteratorIPcSsEEEES7_S7_E14assign_functorINS_9algorithm6detail13token_finderFINSC_10is_any_ofFIcEEEEEEvT_RNS1_15function_bufferEN4mpl_5bool_ILb0EEE
FN:599,_ZNK5boost6detail8function13basic_vtable2INS_14iterator_rangeIN9__gnu_cxx17__normal_iteratorIPcSsEEEES7_S7_E9assign_toINS_9algorithm6detail13token_finderFINSC_10is_any_ofFIcEEEEEEbT_RNS1_15function_bufferENS1_16function_obj_tagE
FN:678,_ZNK5boost9function2INS_14iterator_rangeIN9__gnu_cxx17__normal_iteratorIPcSsEEEES5_S5_E10get_vtableEv
FN:707,_ZN5boost9function2INS_14iterator_rangeIN9__gnu_cxx17__normal_iteratorIPcSsEEEES5_S5_EC2Ev
FN:712,_ZN5boost9function2INS_14iterator_rangeIN9__gnu_cxx17__normal_iteratorIPcSsEEEES5_S5_EC2INS_9algorithm6detail13token_finderFINSA_10is_any_ofFIcEEEEEET_NS_11enable_if_cIXsrNS_11type_traits7ice_notIXsrNS_11is_integralISF_EE5valueEEE5valueEiE4typeE
FN:747,_ZN5boost9function2INS_14iterator_rangeIN9__gnu_cxx17__normal_iteratorIPcSsEEEES5_S5_EC2ERKS7_
FN:759,_ZN5boost9function2INS_14iterator_rangeIN9__gnu_cxx17__normal_iteratorIPcSsEEEES5_S5_ED2Ev
FN:761,_ZNK5boost9function2INS_14iterator_rangeIN9__gnu_cxx17__normal_iteratorIPcSsEEEES5_S5_EclES5_S5_
FN:873,_ZN5boost9function2INS_14iterator_rangeIN9__gnu_cxx17__normal_iteratorIPcSsEEEES5_S5_E5clearEv
FN:902,_ZN5boost9function2INS_14iterator_rangeIN9__gnu_cxx17__normal_iteratorIPcSsEEEES5_S5_E13assign_to_ownERKS7_
FN:915,_ZN5boost9function2INS_14iterator_rangeIN9__gnu_cxx17__normal_iteratorIPcSsEEEES5_S5_E9assign_toINS_9algorithm6detail13token_finderFINSA_10is_any_ofFIcEEEEEEvT_
FNDA:1164,_ZN5boost6detail8function21function_obj_invoker2INS_9algorithm6detail13token_finderFINS4_10is_any_ofFIcEEEENS_14iterator_rangeIN9__gnu_cxx17__normal_iteratorIPcSsEEEESD_SD_E6invokeERNS1_15function_bufferESD_SD_
FNDA:388,_ZNK5boost6detail8function13basic_vtable2INS_14iterator_rangeIN9__gnu_cxx17__normal_iteratorIPcSsEEEES7_S7_E9assign_toINS_9algorithm6detail13token_finderFINSC_10is_any_ofFIcEEEEEEbT_RNS1_15function_bufferE
FNDA:1940,_ZNK5boost6detail8function13basic_vtable2INS_14iterator_rangeIN9__gnu_cxx17__normal_iteratorIPcSsEEEES7_S7_E5clearERNS1_15function_bufferE
FNDA:388,_ZNK5boost6detail8function13basic_vtable2INS_14iterator_rangeIN9__gnu_cxx17__normal_iteratorIPcSsEEEES7_S7_E14assign_functorINS_9algorithm6detail13token_finderFINSC_10is_any_ofFIcEEEEEEvT_RNS1_15function_bufferEN4mpl_5bool_ILb0EEE
FNDA:388,_ZNK5boost6detail8function13basic_vtable2INS_14iterator_rangeIN9__gnu_cxx17__normal_iteratorIPcSsEEEES7_S7_E9assign_toINS_9algorithm6detail13token_finderFINSC_10is_any_ofFIcEEEEEEbT_RNS1_15function_bufferENS1_16function_obj_tagE
FNDA:4656,_ZNK5boost9function2INS_14iterator_rangeIN9__gnu_cxx17__normal_iteratorIPcSsEEEES5_S5_E10get_vtableEv
FNDA:388,_ZN5boost9function2INS_14iterator_rangeIN9__gnu_cxx17__normal_iteratorIPcSsEEEES5_S5_EC2Ev
FNDA:388,_ZN5boost9function2INS_14iterator_rangeIN9__gnu_cxx17__normal_iteratorIPcSsEEEES5_S5_EC2INS_9algorithm6detail13token_finderFINSA_10is_any_ofFIcEEEEEET_NS_11enable_if_cIXsrNS_11type_traits7ice_notIXsrNS_11is_integralISF_EE5valueEEE5valueEiE4typeE
FNDA:3104,_ZN5boost9function2INS_14iterator_rangeIN9__gnu_cxx17__normal_iteratorIPcSsEEEES5_S5_EC2ERKS7_
FNDA:3880,_ZN5boost9function2INS_14iterator_rangeIN9__gnu_cxx17__normal_iteratorIPcSsEEEES5_S5_ED2Ev
FNDA:1164,_ZNK5boost9function2INS_14iterator_rangeIN9__gnu_cxx17__normal_iteratorIPcSsEEEES5_S5_EclES5_S5_
FNDA:3880,_ZN5boost9function2INS_14iterator_rangeIN9__gnu_cxx17__normal_iteratorIPcSsEEEES5_S5_E5clearEv
FNDA:3104,_ZN5boost9function2INS_14iterator_rangeIN9__gnu_cxx17__normal_iteratorIPcSsEEEES5_S5_E13assign_to_ownERKS7_
FNDA:388,_ZN5boost9function2INS_14iterator_rangeIN9__gnu_cxx17__normal_iteratorIPcSsEEEES5_S5_E9assign_toINS_9algorithm6detail13token_finderFINSA_10is_any_ofFIcEEEEEEvT_
FNF:14
FNH:14
DA:123,1164
DA:131,1164
DA:132,1164
DA:489,388
DA:492,388
DA:501,1940
DA:503,1940
DA:504,1940
DA:505,1940
DA:578,388
DA:580,388
DA:581,388
DA:599,388
DA:601,388
DA:602,388
DA:604,388
DA:606,0
DA:678,4656
DA:680,4656
DA:707,388
DA:712,388
DA:720,388
DA:722,388
DA:723,388
DA:747,3104
DA:749,3104
DA:750,3104
DA:759,3880
DA:761,1164
DA:763,1164
DA:764,0
DA:767,1164
DA:873,3880
DA:875,3880
DA:876,1940
DA:877,1940
DA:878,1940
DA:880,3880
DA:902,3104
DA:904,3104
DA:905,1552
DA:906,1552
DA:907,0
DA:909,1552
DA:912,3104
DA:915,388
DA:936,388
DA:937,388
DA:943,388
DA:945,0
DA:946,388
LF:51
LH:47
end_of_record
SF:/home/joanna/include/boost/iterator/iterator_adaptor.hpp
FN:251,_ZN5boost9iterators16iterator_adaptorINS0_18transform_iteratorINS_9algorithm6detail20copy_iterator_rangeFISsN9__gnu_cxx17__normal_iteratorIPcSsEEEENS3_14split_iteratorIS9_EENS0_11use_defaultESD_EESC_SsSD_SsSD_EC2ERKSF_
FN:251,_ZN5boost9iterators16iterator_adaptorINS0_18transform_iteratorINS_9algorithm6detail20copy_iterator_rangeFISsN9__gnu_cxx17__normal_iteratorIPcSsEEEENS3_14split_iteratorIS9_EENS0_11use_defaultESD_EESC_SsSD_SsSD_ED2Ev
FN:265,_ZN5boost9iterators16iterator_adaptorINS0_18transform_iteratorINS_9algorithm6detail20copy_iterator_rangeFISsN9__gnu_cxx17__normal_iteratorIPcSsEEEENS3_14split_iteratorIS9_EENS0_11use_defaultESD_EESC_SsSD_SsSD_EC2ERKSC_
FN:272,_ZNK5boost9iterators16iterator_adaptorINS0_18transform_iteratorINS_9algorithm6detail20copy_iterator_rangeFISsN9__gnu_cxx17__normal_iteratorIPcSsEEEENS3_14split_iteratorIS9_EENS0_11use_defaultESD_EESC_SsSD_SsSD_E4baseEv
FN:301,_ZNK5boost9iterators16iterator_adaptorINS0_18transform_iteratorINS_9algorithm6detail20copy_iterator_rangeFISsN9__gnu_cxx17__normal_iteratorIPcSsEEEENS3_14split_iteratorIS9_EENS0_11use_defaultESD_EESC_SsSD_SsSD_E5equalISE_SC_SsSD_SsSD_EEbRKNS1_IT_T0_T1_T2_T3_T4_EE
FN:323,_ZN5boost9iterators16iterator_adaptorINS0_18transform_iteratorINS_9algorithm6detail20copy_iterator_rangeFISsN9__gnu_cxx17__normal_iteratorIPcSsEEEENS3_14split_iteratorIS9_EENS0_11use_defaultESD_EESC_SsSD_SsSD_E9incrementEv
FNDA:2328,_ZN5boost9iterators16iterator_adaptorINS0_18transform_iteratorINS_9algorithm6detail20copy_iterator_rangeFISsN9__gnu_cxx17__normal_iteratorIPcSsEEEENS3_14split_iteratorIS9_EENS0_11use_defaultESD_EESC_SsSD_SsSD_EC2ERKSF_
FNDA:3104,_ZN5boost9iterators16iterator_adaptorINS0_18transform_iteratorINS_9algorithm6detail20copy_iterator_rangeFISsN9__gnu_cxx17__normal_iteratorIPcSsEEEENS3_14split_iteratorIS9_EENS0_11use_defaultESD_EESC_SsSD_SsSD_ED2Ev
FNDA:776,_ZN5boost9iterators16iterator_adaptorINS0_18transform_iteratorINS_9algorithm6detail20copy_iterator_rangeFISsN9__gnu_cxx17__normal_iteratorIPcSsEEEENS3_14split_iteratorIS9_EENS0_11use_defaultESD_EESC_SsSD_SsSD_EC2ERKSC_
FNDA:1940,_ZNK5boost9iterators16iterator_adaptorINS0_18transform_iteratorINS_9algorithm6detail20copy_iterator_rangeFISsN9__gnu_cxx17__normal_iteratorIPcSsEEEENS3_14split_iteratorIS9_EENS0_11use_defaultESD_EESC_SsSD_SsSD_E4baseEv
FNDA:1164,_ZNK5boost9iterators16iterator_adaptorINS0_18transform_iteratorINS_9algorithm6detail20copy_iterator_rangeFISsN9__gnu_cxx17__normal_iteratorIPcSsEEEENS3_14split_iteratorIS9_EENS0_11use_defaultESD_EESC_SsSD_SsSD_E5equalISE_SC_SsSD_SsSD_EEbRKNS1_IT_T0_T1_T2_T3_T4_EE
FNDA:776,_ZN5boost9iterators16iterator_adaptorINS0_18transform_iteratorINS_9algorithm6detail20copy_iterator_rangeFISsN9__gnu_cxx17__normal_iteratorIPcSsEEEENS3_14split_iteratorIS9_EENS0_11use_defaultESD_EESC_SsSD_SsSD_E9incrementEv
FNF:6
FNH:6
DA:251,5432
DA:265,776
DA:266,776
DA:268,776
DA:272,1940
DA:273,1940
DA:301,1164
DA:307,1164
DA:323,776
LF:9
LH:9
end_of_record
SF:/home/joanna/include/boost/iterator/iterator_facade.hpp
FN:538,_ZN5boost9iterators20iterator_core_access11dereferenceINS_9algorithm14split_iteratorIN9__gnu_cxx17__normal_iteratorIPcSsEEEEEENT_9referenceERKSA_
FN:538,_ZN5boost9iterators20iterator_core_access11dereferenceINS0_18transform_iteratorINS_9algorithm6detail20copy_iterator_rangeFISsN9__gnu_cxx17__normal_iteratorIPcSsEEEENS4_14split_iteratorISA_EENS0_11use_defaultESE_EEEENT_9referenceERKSG_
FN:544,_ZN5boost9iterators20iterator_core_access9incrementINS_9algorithm14split_iteratorIN9__gnu_cxx17__normal_iteratorIPcSsEEEEEEvRT_
FN:544,_ZN5boost9iterators20iterator_core_access9incrementINS0_18transform_iteratorINS_9algorithm6detail20copy_iterator_rangeFISsN9__gnu_cxx17__normal_iteratorIPcSsEEEENS4_14split_iteratorISA_EENS0_11use_defaultESE_EEEEvRT_
FN:556,_ZN5boost9iterators20iterator_core_access5equalINS0_18transform_iteratorINS_9algorithm6detail20copy_iterator_rangeFISsN9__gnu_cxx17__normal_iteratorIPcSsEEEENS4_14split_iteratorISA_EENS0_11use_defaultESE_EESF_EEbRKT_RKT0_N4mpl_5bool_ILb1EEE
FN:556,_ZN5boost9iterators20iterator_core_access5equalINS_9algorithm14split_iteratorIN9__gnu_cxx17__normal_iteratorIPcSsEEEES9_EEbRKT_RKT0_N4mpl_5bool_ILb1EEE
FN:616,_ZN5boost9iterators6detail20iterator_facade_baseINS_9algorithm14split_iteratorIN9__gnu_cxx17__normal_iteratorIPcSsEEEEKNS_14iterator_rangeIS8_EENS0_21forward_traversal_tagERSC_lLb0ELb0EEC2Ev
FN:616,_ZN5boost9iterators6detail20iterator_facade_baseINS0_18transform_iteratorINS_9algorithm6detail20copy_iterator_rangeFISsN9__gnu_cxx17__normal_iteratorIPcSsEEEENS4_14split_iteratorISA_EENS0_11use_defaultESE_EESsNS0_21forward_traversal_tagESslLb0ELb0EEC2Ev
FN:644,_ZNK5boost9iterators6detail20iterator_facade_baseINS_9algorithm14split_iteratorIN9__gnu_cxx17__normal_iteratorIPcSsEEEEKNS_14iterator_rangeIS8_EENS0_21forward_traversal_tagERSC_lLb0ELb0EEdeEv
FN:644,_ZNK5boost9iterators6detail20iterator_facade_baseINS0_18transform_iteratorINS_9algorithm6detail20copy_iterator_rangeFISsN9__gnu_cxx17__normal_iteratorIPcSsEEEENS4_14split_iteratorISA_EENS0_11use_defaultESE_EESsNS0_21forward_traversal_tagESslLb0ELb0EEdeEv
FN:654,_ZN5boost9iterators6detail20iterator_facade_baseINS_9algorithm14split_iteratorIN9__gnu_cxx17__normal_iteratorIPcSsEEEEKNS_14iterator_rangeIS8_EENS0_21forward_traversal_tagERSC_lLb0ELb0EEppEv
FN:654,_ZN5boost9iterators6detail20iterator_facade_baseINS0_18transform_iteratorINS_9algorithm6detail20copy_iterator_rangeFISsN9__gnu_cxx17__normal_iteratorIPcSsEEEENS4_14split_iteratorISA_EENS0_11use_defaultESE_EESsNS0_21forward_traversal_tagESslLb0ELb0EEppEv
FN:664,_ZN5boost9iterators6detail20iterator_facade_baseINS0_18transform_iteratorINS_9algorithm6detail20copy_iterator_rangeFISsN9__gnu_cxx17__normal_iteratorIPcSsEEEENS4_14split_iteratorISA_EENS0_11use_defaultESE_EESsNS0_21forward_traversal_tagESslLb0ELb0EE7derivedEv
FN:664,_ZN5boost9iterators6detail20iterator_facade_baseINS_9algorithm14split_iteratorIN9__gnu_cxx17__normal_iteratorIPcSsEEEEKNS_14iterator_rangeIS8_EENS0_21forward_traversal_tagERSC_lLb0ELb0EE7derivedEv
FN:669,_ZNK5boost9iterators6detail20iterator_facade_baseINS_9algorithm14split_iteratorIN9__gnu_cxx17__normal_iteratorIPcSsEEEEKNS_14iterator_rangeIS8_EENS0_21forward_traversal_tagERSC_lLb0ELb0EE7derivedEv
FN:669,_ZNK5boost9iterators6detail20iterator_facade_baseINS0_18transform_iteratorINS_9algorithm6detail20copy_iterator_rangeFISsN9__gnu_cxx17__normal_iteratorIPcSsEEEENS4_14split_iteratorISA_EENS0_11use_defaultESE_EESsNS0_21forward_traversal_tagESslLb0ELb0EE7derivedEv
FN:763,_ZN5boost9iterators15iterator_facadeINS0_18transform_iteratorINS_9algorithm6detail20copy_iterator_rangeFISsN9__gnu_cxx17__normal_iteratorIPcSsEEEENS3_14split_iteratorIS9_EENS0_11use_defaultESD_EESsNS0_21forward_traversal_tagESslEC2Ev
FN:763,_ZN5boost9iterators15iterator_facadeINS_9algorithm14split_iteratorIN9__gnu_cxx17__normal_iteratorIPcSsEEEEKNS_14iterator_rangeIS7_EENS0_21forward_traversal_tagERSB_lEC2Ev
FN:890,_ZN5boost9iteratorseqINS_9algorithm14split_iteratorIN9__gnu_cxx17__normal_iteratorIPcSsEEEEKNS_14iterator_rangeIS7_EENS0_21forward_traversal_tagERSB_lS8_SB_SC_SD_lEENS0_6detail23enable_if_interoperableIT_T4_NS_3mpl6apply2INSE_12always_bool2ESG_SH_E4typeEE4typeERKNS0_15iterator_facadeISG_T0_T1_T2_T3_EERKNSP_ISH_T5_T6_T7_T8_EE
FN:891,_ZN5boost9iteratorsneINS0_18transform_iteratorINS_9algorithm6detail20copy_iterator_rangeFISsN9__gnu_cxx17__normal_iteratorIPcSsEEEENS3_14split_iteratorIS9_EENS0_11use_defaultESD_EESsNS0_21forward_traversal_tagESslSE_SsSF_SslEENS0_6detail23enable_if_interoperableIT_T4_NS_3mpl6apply2INSG_12always_bool2ESI_SJ_E4typeEE4typeERKNS0_15iterator_facadeISI_T0_T1_T2_T3_EERKNSR_ISJ_T5_T6_T7_T8_EE
FNDA:776,_ZN5boost9iterators20iterator_core_access11dereferenceINS_9algorithm14split_iteratorIN9__gnu_cxx17__normal_iteratorIPcSsEEEEEENT_9referenceERKSA_
FNDA:776,_ZN5boost9iterators20iterator_core_access11dereferenceINS0_18transform_iteratorINS_9algorithm6detail20copy_iterator_rangeFISsN9__gnu_cxx17__normal_iteratorIPcSsEEEENS4_14split_iteratorISA_EENS0_11use_defaultESE_EEEENT_9referenceERKSG_
FNDA:776,_ZN5boost9iterators20iterator_core_access9incrementINS_9algorithm14split_iteratorIN9__gnu_cxx17__normal_iteratorIPcSsEEEEEEvRT_
FNDA:776,_ZN5boost9iterators20iterator_core_access9incrementINS0_18transform_iteratorINS_9algorithm6detail20copy_iterator_rangeFISsN9__gnu_cxx17__normal_iteratorIPcSsEEEENS4_14split_iteratorISA_EENS0_11use_defaultESE_EEEEvRT_
FNDA:1164,_ZN5boost9iterators20iterator_core_access5equalINS_9algorithm14split_iteratorIN9__gnu_cxx17__normal_iteratorIPcSsEEEES9_EEbRKT_RKT0_N4mpl_5bool_ILb1EEE
FNDA:1164,_ZN5boost9iterators20iterator_core_access5equalINS0_18transform_iteratorINS_9algorithm6detail20copy_iterator_rangeFISsN9__gnu_cxx17__normal_iteratorIPcSsEEEENS4_14split_iteratorISA_EENS0_11use_defaultESE_EESF_EEbRKT_RKT0_N4mpl_5bool_ILb1EEE
FNDA:776,_ZN5boost9iterators6detail20iterator_facade_baseINS0_18transform_iteratorINS_9algorithm6detail20copy_iterator_rangeFISsN9__gnu_cxx17__normal_iteratorIPcSsEEEENS4_14split_iteratorISA_EENS0_11use_defaultESE_EESsNS0_21forward_traversal_tagESslLb0ELb0EEC2Ev
FNDA:3880,_ZN5boost9iterators6detail20iterator_facade_baseINS_9algorithm14split_iteratorIN9__gnu_cxx17__normal_iteratorIPcSsEEEEKNS_14iterator_rangeIS8_EENS0_21forward_traversal_tagERSC_lLb0ELb0EEC2Ev
FNDA:776,_ZNK5boost9iterators6detail20iterator_facade_baseINS_9algorithm14split_iteratorIN9__gnu_cxx17__normal_iteratorIPcSsEEEEKNS_14iterator_rangeIS8_EENS0_21forward_traversal_tagERSC_lLb0ELb0EEdeEv
FNDA:776,_ZNK5boost9iterators6detail20iterator_facade_baseINS0_18transform_iteratorINS_9algorithm6detail20copy_iterator_rangeFISsN9__gnu_cxx17__normal_iteratorIPcSsEEEENS4_14split_iteratorISA_EENS0_11use_defaultESE_EESsNS0_21forward_traversal_tagESslLb0ELb0EEdeEv
FNDA:776,_ZN5boost9iterators6detail20iterator_facade_baseINS_9algorithm14split_iteratorIN9__gnu_cxx17__normal_iteratorIPcSsEEEEKNS_14iterator_rangeIS8_EENS0_21forward_traversal_tagERSC_lLb0ELb0EEppEv
FNDA:776,_ZN5boost9iterators6detail20iterator_facade_baseINS0_18transform_iteratorINS_9algorithm6detail20copy_iterator_rangeFISsN9__gnu_cxx17__normal_iteratorIPcSsEEEENS4_14split_iteratorISA_EENS0_11use_defaultESE_EESsNS0_21forward_traversal_tagESslLb0ELb0EEppEv
FNDA:1552,_ZN5boost9iterators6detail20iterator_facade_baseINS_9algorithm14split_iteratorIN9__gnu_cxx17__normal_iteratorIPcSsEEEEKNS_14iterator_rangeIS8_EENS0_21forward_traversal_tagERSC_lLb0ELb0EE7derivedEv
FNDA:1552,_ZN5boost9iterators6detail20iterator_facade_baseINS0_18transform_iteratorINS_9algorithm6detail20copy_iterator_rangeFISsN9__gnu_cxx17__normal_iteratorIPcSsEEEENS4_14split_iteratorISA_EENS0_11use_defaultESE_EESsNS0_21forward_traversal_tagESslLb0ELb0EE7derivedEv
FNDA:776,_ZNK5boost9iterators6detail20iterator_facade_baseINS_9algorithm14split_iteratorIN9__gnu_cxx17__normal_iteratorIPcSsEEEEKNS_14iterator_rangeIS8_EENS0_21forward_traversal_tagERSC_lLb0ELb0EE7derivedEv
FNDA:776,_ZNK5boost9iterators6detail20iterator_facade_baseINS0_18transform_iteratorINS_9algorithm6detail20copy_iterator_rangeFISsN9__gnu_cxx17__normal_iteratorIPcSsEEEENS4_14split_iteratorISA_EENS0_11use_defaultESE_EESsNS0_21forward_traversal_tagESslLb0ELb0EE7derivedEv
FNDA:776,_ZN5boost9iterators15iterator_facadeINS0_18transform_iteratorINS_9algorithm6detail20copy_iterator_rangeFISsN9__gnu_cxx17__normal_iteratorIPcSsEEEENS3_14split_iteratorIS9_EENS0_11use_defaultESD_EESsNS0_21forward_traversal_tagESslEC2Ev
FNDA:3880,_ZN5boost9iterators15iterator_facadeINS_9algorithm14split_iteratorIN9__gnu_cxx17__normal_iteratorIPcSsEEEEKNS_14iterator_rangeIS7_EENS0_21forward_traversal_tagERSB_lEC2Ev
FNDA:1164,_ZN5boost9iteratorseqINS_9algorithm14split_iteratorIN9__gnu_cxx17__normal_iteratorIPcSsEEEEKNS_14iterator_rangeIS7_EENS0_21forward_traversal_tagERSB_lS8_SB_SC_SD_lEENS0_6detail23enable_if_interoperableIT_T4_NS_3mpl6apply2INSE_12always_bool2ESG_SH_E4typeEE4typeERKNS0_15iterator_facadeISG_T0_T1_T2_T3_EERKNSP_ISH_T5_T6_T7_T8_EE
FNDA:1164,_ZN5boost9iteratorsneINS0_18transform_iteratorINS_9algorithm6detail20copy_iterator_rangeFISsN9__gnu_cxx17__normal_iteratorIPcSsEEEENS3_14split_iteratorIS9_EENS0_11use_defaultESD_EESsNS0_21forward_traversal_tagESslSE_SsSF_SslEENS0_6detail23enable_if_interoperableIT_T4_NS_3mpl6apply2INSG_12always_bool2ESI_SJ_E4typeEE4typeERKNS0_15iterator_facadeISI_T0_T1_T2_T3_EERKNSR_ISJ_T5_T6_T7_T8_EE
FNF:20
FNH:20
DA:538,1552
DA:540,1552
DA:544,1552
DA:546,1552
DA:547,1552
DA:556,2328
DA:558,2328
DA:616,4656
DA:644,1552
DA:646,1552
DA:654,1552
DA:656,1552
DA:657,1552
DA:664,3104
DA:666,3104
DA:669,1552
DA:671,1552
DA:763,4656
DA:890,1164
DA:891,1164
LF:20
LH:20
end_of_record
SF:/home/joanna/include/boost/iterator/transform_iterator.hpp
FN:75,_ZN5boost9iterators18transform_iteratorINS_9algorithm6detail20copy_iterator_rangeFISsN9__gnu_cxx17__normal_iteratorIPcSsEEEENS2_14split_iteratorIS8_EENS0_11use_defaultESC_EC2ERKSD_
FN:75,_ZN5boost9iterators18transform_iteratorINS_9algorithm6detail20copy_iterator_rangeFISsN9__gnu_cxx17__normal_iteratorIPcSsEEEENS2_14split_iteratorIS8_EENS0_11use_defaultESC_ED2Ev
FN:87,_ZN5boost9iterators18transform_iteratorINS_9algorithm6detail20copy_iterator_rangeFISsN9__gnu_cxx17__normal_iteratorIPcSsEEEENS2_14split_iteratorIS8_EENS0_11use_defaultESC_EC2ERKSB_S9_
FN:121,_ZNK5boost9iterators18transform_iteratorINS_9algorithm6detail20copy_iterator_rangeFISsN9__gnu_cxx17__normal_iteratorIPcSsEEEENS2_14split_iteratorIS8_EENS0_11use_defaultESC_E11dereferenceEv
FN:131,_ZN5boost9iterators23make_transform_iteratorINS_9algorithm6detail20copy_iterator_rangeFISsN9__gnu_cxx17__normal_iteratorIPcSsEEEENS2_14split_iteratorIS8_EEEENS0_18transform_iteratorIT_T0_NS0_11use_defaultESF_EESE_SD_
FNDA:2328,_ZN5boost9iterators18transform_iteratorINS_9algorithm6detail20copy_iterator_rangeFISsN9__gnu_cxx17__normal_iteratorIPcSsEEEENS2_14split_iteratorIS8_EENS0_11use_defaultESC_EC2ERKSD_
FNDA:3104,_ZN5boost9iterators18transform_iteratorINS_9algorithm6detail20copy_iterator_rangeFISsN9__gnu_cxx17__normal_iteratorIPcSsEEEENS2_14split_iteratorIS8_EENS0_11use_defaultESC_ED2Ev
FNDA:776,_ZN5boost9iterators18transform_iteratorINS_9algorithm6detail20copy_iterator_rangeFISsN9__gnu_cxx17__normal_iteratorIPcSsEEEENS2_14split_iteratorIS8_EENS0_11use_defaultESC_EC2ERKSB_S9_
FNDA:776,_ZNK5boost9iterators18transform_iteratorINS_9algorithm6detail20copy_iterator_rangeFISsN9__gnu_cxx17__normal_iteratorIPcSsEEEENS2_14split_iteratorIS8_EENS0_11use_defaultESC_E11dereferenceEv
FNDA:776,_ZN5boost9iterators23make_transform_iteratorINS_9algorithm6detail20copy_iterator_rangeFISsN9__gnu_cxx17__normal_iteratorIPcSsEEEENS2_14split_iteratorIS8_EEEENS0_18transform_iteratorIT_T0_NS0_11use_defaultESF_EESE_SD_
FNF:5
FNH:5
DA:75,5432
DA:87,776
DA:88,776
DA:121,776
DA:122,776
DA:131,776
DA:133,776
LF:7
LH:7
end_of_record
SF:/home/joanna/include/boost/range/algorithm/equal.hpp
FN:105,_ZN5boost12range_detail10equal_implIN9__gnu_cxx17__normal_iteratorIPcSsEES5_EEbT_S6_T0_S7_St26random_access_iterator_tagS8_
FN:133,_ZN5boost12range_detail5equalIN9__gnu_cxx17__normal_iteratorIPcSsEES5_EEbT_S6_T0_S7_
FN:172,_ZN5boost5range5equalINS_14iterator_rangeIN9__gnu_cxx17__normal_iteratorIPcSsEEEES7_EEbRKT_RKT0_
FNDA:0,_ZN5boost12range_detail10equal_implIN9__gnu_cxx17__normal_iteratorIPcSsEES5_EEbT_S6_T0_S7_St26random_access_iterator_tagS8_
FNDA:0,_ZN5boost12range_detail5equalIN9__gnu_cxx17__normal_iteratorIPcSsEES5_EEbT_S6_T0_S7_
FNDA:0,_ZN5boost5range5equalINS_14iterator_rangeIN9__gnu_cxx17__normal_iteratorIPcSsEEEES7_EEbRKT_RKT0_
FNF:3
FNH:0
DA:105,0
DA:113,0
DA:133,0
DA:141,0
DA:172,0
DA:179,0
LF:6
LH:0
end_of_record
SF:/home/joanna/include/boost/range/as_literal.hpp
FN:36,_ZN5boost12range_detail6lengthEPKc
FN:59,_ZN5boost12range_detail11is_char_ptrEPKc
FN:77,_ZN5boost12range_detail11is_char_ptrISsEElRKT_
FN:84,_ZN5boost12range_detail10make_rangeIKcEENS_14iterator_rangeIPT_EES5_b
FN:91,_ZN5boost12range_detail10make_rangeISsEENS_14iterator_rangeINS_14range_iteratorIT_vE4typeEEERS4_l
FN:100,_ZN5boost10as_literalISsEENS_14iterator_rangeINS_14range_iteratorIT_vE4typeEEERS3_
FN:119,_ZN5boost10as_literalIcLm3EEENS_14iterator_rangeIPKT_EERAT0__S3_
FNDA:388,_ZN5boost12range_detail6lengthEPKc
FNDA:388,_ZN5boost12range_detail11is_char_ptrEPKc
FNDA:388,_ZN5boost12range_detail11is_char_ptrISsEElRKT_
FNDA:388,_ZN5boost12range_detail10make_rangeIKcEENS_14iterator_rangeIPT_EES5_b
FNDA:388,_ZN5boost12range_detail10make_rangeISsEENS_14iterator_rangeINS_14range_iteratorIT_vE4typeEEERS4_l
FNDA:388,_ZN5boost10as_literalISsEENS_14iterator_rangeINS_14range_iteratorIT_vE4typeEEERS3_
FNDA:388,_ZN5boost10as_literalIcLm3EEENS_14iterator_rangeIPKT_EERAT0__S3_
FNF:7
FNH:7
DA:36,388
DA:38,388
DA:59,388
DA:61,388
DA:77,388
DA:79,388
DA:84,388
DA:86,388
DA:91,388
DA:93,388
DA:100,388
DA:102,388
DA:119,388
DA:121,388
LF:14
LH:14
end_of_record
SF:/home/joanna/include/boost/range/begin.hpp
FN:40,_ZN5boost12range_detail11range_beginINS_14iterator_rangeIN9__gnu_cxx17__normal_iteratorIPcSsEEEEEENS_14range_iteratorIT_vE4typeERS9_
FN:40,_ZN5boost12range_detail11range_beginISsEENS_14range_iteratorIT_vE4typeERS3_
FN:40,_ZN5boost12range_detail11range_beginIKNS_14iterator_rangeIN9__gnu_cxx17__normal_iteratorIPcSsEEEEEENS_14range_iteratorIT_vE4typeERSA_
FN:40,_ZN5boost12range_detail11range_beginIKNS_14iterator_rangeIPKcEEEENS_14range_iteratorIT_vE4typeERS8_
FN:97,_ZN5boost17range_adl_barrier5beginISsEENS_14range_iteratorIT_vE4typeERS3_
FN:97,_ZN5boost17range_adl_barrier5beginINS_14iterator_rangeIN9__gnu_cxx17__normal_iteratorIPcSsEEEEEENS_14range_iteratorIT_vE4typeERS9_
FN:106,_ZN5boost17range_adl_barrier5beginINS_14iterator_rangeIPKcEEEENS_14range_iteratorIKT_vE4typeERS8_
FN:106,_ZN5boost17range_adl_barrier5beginINS_14iterator_rangeIN9__gnu_cxx17__normal_iteratorIPcSsEEEEEENS_14range_iteratorIKT_vE4typeERSA_
FNDA:776,_ZN5boost12range_detail11range_beginIKNS_14iterator_rangeIN9__gnu_cxx17__normal_iteratorIPcSsEEEEEENS_14range_iteratorIT_vE4typeERSA_
FNDA:388,_ZN5boost12range_detail11range_beginISsEENS_14range_iteratorIT_vE4typeERS3_
FNDA:388,_ZN5boost12range_detail11range_beginINS_14iterator_rangeIN9__gnu_cxx17__normal_iteratorIPcSsEEEEEENS_14range_iteratorIT_vE4typeERS9_
FNDA:776,_ZN5boost12range_detail11range_beginIKNS_14iterator_rangeIPKcEEEENS_14range_iteratorIT_vE4typeERS8_
FNDA:388,_ZN5boost17range_adl_barrier5beginISsEENS_14range_iteratorIT_vE4typeERS3_
FNDA:388,_ZN5boost17range_adl_barrier5beginINS_14iterator_rangeIN9__gnu_cxx17__normal_iteratorIPcSsEEEEEENS_14range_iteratorIT_vE4typeERS9_
FNDA:776,_ZN5boost17range_adl_barrier5beginINS_14iterator_rangeIN9__gnu_cxx17__normal_iteratorIPcSsEEEEEENS_14range_iteratorIKT_vE4typeERSA_
FNDA:776,_ZN5boost17range_adl_barrier5beginINS_14iterator_rangeIPKcEEEENS_14range_iteratorIKT_vE4typeERS8_
FNF:8
FNH:8
DA:40,2328
DA:47,2328
DA:97,776
DA:102,776
DA:106,1552
DA:111,1552
LF:6
LH:6
end_of_record
SF:/home/joanna/include/boost/range/distance.hpp
FN:27,_ZN5boost8distanceINS_14iterator_rangeIPKcEEEENS_16range_differenceIT_E4typeERKS6_
FNDA:388,_ZN5boost8distanceINS_14iterator_rangeIPKcEEEENS_16range_differenceIT_E4typeERKS6_
FNF:1
FNH:1
DA:27,388
DA:29,388
LF:2
LH:2
end_of_record
SF:/home/joanna/include/boost/range/end.hpp
FN:41,_ZN5boost12range_detail9range_endINS_14iterator_rangeIN9__gnu_cxx17__normal_iteratorIPcSsEEEEEENS_14range_iteratorIT_vE4typeERS9_
FN:41,_ZN5boost12range_detail9range_endISsEENS_14range_iteratorIT_vE4typeERS3_
FN:41,_ZN5boost12range_detail9range_endIKNS_14iterator_rangeIN9__gnu_cxx17__normal_iteratorIPcSsEEEEEENS_14range_iteratorIT_vE4typeERSA_
FN:41,_ZN5boost12range_detail9range_endIKNS_14iterator_rangeIPKcEEEENS_14range_iteratorIT_vE4typeERS8_
FN:91,_ZN5boost17range_adl_barrier3endINS_14iterator_rangeIN9__gnu_cxx17__normal_iteratorIPcSsEEEEEENS_14range_iteratorIT_vE4typeERS9_
FN:91,_ZN5boost17range_adl_barrier3endISsEENS_14range_iteratorIT_vE4typeERS3_
FN:100,_ZN5boost17range_adl_barrier3endINS_14iterator_rangeIN9__gnu_cxx17__normal_iteratorIPcSsEEEEEENS_14range_iteratorIKT_vE4typeERSA_
FN:100,_ZN5boost17range_adl_barrier3endINS_14iterator_rangeIPKcEEEENS_14range_iteratorIKT_vE4typeERS8_
FNDA:776,_ZN5boost12range_detail9range_endIKNS_14iterator_rangeIN9__gnu_cxx17__normal_iteratorIPcSsEEEEEENS_14range_iteratorIT_vE4typeERSA_
FNDA:388,_ZN5boost12range_detail9range_endISsEENS_14range_iteratorIT_vE4typeERS3_
FNDA:388,_ZN5boost12range_detail9range_endINS_14iterator_rangeIN9__gnu_cxx17__normal_iteratorIPcSsEEEEEENS_14range_iteratorIT_vE4typeERS9_
FNDA:776,_ZN5boost12range_detail9range_endIKNS_14iterator_rangeIPKcEEEENS_14range_iteratorIT_vE4typeERS8_
FNDA:388,_ZN5boost17range_adl_barrier3endISsEENS_14range_iteratorIT_vE4typeERS3_
FNDA:388,_ZN5boost17range_adl_barrier3endINS_14iterator_rangeIN9__gnu_cxx17__normal_iteratorIPcSsEEEEEENS_14range_iteratorIT_vE4typeERS9_
FNDA:776,_ZN5boost17range_adl_barrier3endINS_14iterator_rangeIN9__gnu_cxx17__normal_iteratorIPcSsEEEEEENS_14range_iteratorIKT_vE4typeERSA_
FNDA:776,_ZN5boost17range_adl_barrier3endINS_14iterator_rangeIPKcEEEENS_14range_iteratorIKT_vE4typeERS8_
FNF:8
FNH:8
DA:41,2328
DA:48,2328
DA:91,776
DA:96,776
DA:100,1552
DA:105,1552
LF:6
LH:6
end_of_record
SF:/home/joanna/include/boost/range/iterator_range_core.hpp
FN:67,_ZN5boost21iterator_range_detail19iterator_range_implIN9__gnu_cxx17__normal_iteratorIPcSsEEE9adl_beginISsEES5_RT_
FN:73,_ZN5boost21iterator_range_detail19iterator_range_implIN9__gnu_cxx17__normal_iteratorIPcSsEEE7adl_endISsEES5_RT_
FN:122,_ZN5boost21iterator_range_detail18iterator_range_tagC2Ev
FN:207,_ZN5boost21iterator_range_detail19iterator_range_baseIN9__gnu_cxx17__normal_iteratorIPcSsEENS_9iterators27incrementable_traversal_tagEEC2Ev
FN:214,_ZN5boost21iterator_range_detail19iterator_range_baseIPKcNS_9iterators27incrementable_traversal_tagEEC2IS3_EET_S8_
FN:214,_ZN5boost21iterator_range_detail19iterator_range_baseIN9__gnu_cxx17__normal_iteratorIPcSsEENS_9iterators27incrementable_traversal_tagEEC2IS5_EET_SA_
FN:221,_ZNK5boost21iterator_range_detail19iterator_range_baseIN9__gnu_cxx17__normal_iteratorIPcSsEENS_9iterators27incrementable_traversal_tagEE5beginEv
FN:221,_ZNK5boost21iterator_range_detail19iterator_range_baseIPKcNS_9iterators27incrementable_traversal_tagEE5beginEv
FN:226,_ZNK5boost21iterator_range_detail19iterator_range_baseIPKcNS_9iterators27incrementable_traversal_tagEE3endEv
FN:226,_ZNK5boost21iterator_range_detail19iterator_range_baseIN9__gnu_cxx17__normal_iteratorIPcSsEENS_9iterators27incrementable_traversal_tagEE3endEv
FN:306,_ZN5boost21iterator_range_detail19iterator_range_baseIN9__gnu_cxx17__normal_iteratorIPcSsEENS_9iterators27bidirectional_traversal_tagEEC2Ev
FN:311,_ZN5boost21iterator_range_detail19iterator_range_baseIPKcNS_9iterators27bidirectional_traversal_tagEEC2IS3_EET_S8_
FN:311,_ZN5boost21iterator_range_detail19iterator_range_baseIN9__gnu_cxx17__normal_iteratorIPcSsEENS_9iterators27bidirectional_traversal_tagEEC2IS5_EET_SA_
FN:375,_ZN5boost21iterator_range_detail19iterator_range_baseIN9__gnu_cxx17__normal_iteratorIPcSsEENS_9iterators27random_access_traversal_tagEEC2Ev
FN:380,_ZN5boost21iterator_range_detail19iterator_range_baseIN9__gnu_cxx17__normal_iteratorIPcSsEENS_9iterators27random_access_traversal_tagEEC2IS5_EET_SA_
FN:380,_ZN5boost21iterator_range_detail19iterator_range_baseIPKcNS_9iterators27random_access_traversal_tagEEC2IS3_EET_S8_
FN:463,_ZN5boost14iterator_rangeIN9__gnu_cxx17__normal_iteratorIPcSsEEEC2Ev
FN:468,_ZN5boost14iterator_rangeIPKcEC2IS2_EET_S5_
FN:468,_ZN5boost14iterator_rangeIN9__gnu_cxx17__normal_iteratorIPcSsEEEC2IS4_EET_S7_
FN:503,_ZN5boost14iterator_rangeIN9__gnu_cxx17__normal_iteratorIPcSsEEEC2ISsEERT_NS_21iterator_range_detail9range_tagE
FN:629,_ZN5boosteqIN9__gnu_cxx17__normal_iteratorIPcSsEES4_EEbRKNS_14iterator_rangeIT_EERKNS5_IT0_EE
FN:775,_ZN5boost19make_iterator_rangeISsEENS_14iterator_rangeINS_14range_iteratorIT_vE4typeEEERS3_
FN:857,_ZN5boost10copy_rangeISsNS_14iterator_rangeIN9__gnu_cxx17__normal_iteratorIPcSsEEEEEET_RKT0_
FNDA:388,_ZN5boost21iterator_range_detail19iterator_range_implIN9__gnu_cxx17__normal_iteratorIPcSsEEE9adl_beginISsEES5_RT_
FNDA:388,_ZN5boost21iterator_range_detail19iterator_range_implIN9__gnu_cxx17__normal_iteratorIPcSsEEE7adl_endISsEES5_RT_
FNDA:3880,_ZN5boost21iterator_range_detail18iterator_range_tagC2Ev
FNDA:388,_ZN5boost21iterator_range_detail19iterator_range_baseIN9__gnu_cxx17__normal_iteratorIPcSsEENS_9iterators27incrementable_traversal_tagEEC2Ev
FNDA:3104,_ZN5boost21iterator_range_detail19iterator_range_baseIN9__gnu_cxx17__normal_iteratorIPcSsEENS_9iterators27incrementable_traversal_tagEEC2IS5_EET_SA_
FNDA:388,_ZN5boost21iterator_range_detail19iterator_range_baseIPKcNS_9iterators27incrementable_traversal_tagEEC2IS3_EET_S8_
FNDA:3492,_ZNK5boost21iterator_range_detail19iterator_range_baseIN9__gnu_cxx17__normal_iteratorIPcSsEENS_9iterators27incrementable_traversal_tagEE5beginEv
FNDA:776,_ZNK5boost21iterator_range_detail19iterator_range_baseIPKcNS_9iterators27incrementable_traversal_tagEE5beginEv
FNDA:3880,_ZNK5boost21iterator_range_detail19iterator_range_baseIN9__gnu_cxx17__normal_iteratorIPcSsEENS_9iterators27incrementable_traversal_tagEE3endEv
FNDA:776,_ZNK5boost21iterator_range_detail19iterator_range_baseIPKcNS_9iterators27incrementable_traversal_tagEE3endEv
FNDA:388,_ZN5boost21iterator_range_detail19iterator_range_baseIN9__gnu_cxx17__normal_iteratorIPcSsEENS_9iterators27bidirectional_traversal_tagEEC2Ev
FNDA:3104,_ZN5boost21iterator_range_detail19iterator_range_baseIN9__gnu_cxx17__normal_iteratorIPcSsEENS_9iterators27bidirectional_traversal_tagEEC2IS5_EET_SA_
FNDA:388,_ZN5boost21iterator_range_detail19iterator_range_baseIPKcNS_9iterators27bidirectional_traversal_tagEEC2IS3_EET_S8_
FNDA:388,_ZN5boost21iterator_range_detail19iterator_range_baseIN9__gnu_cxx17__normal_iteratorIPcSsEENS_9iterators27random_access_traversal_tagEEC2Ev
FNDA:3104,_ZN5boost21iterator_range_detail19iterator_range_baseIN9__gnu_cxx17__normal_iteratorIPcSsEENS_9iterators27random_access_traversal_tagEEC2IS5_EET_SA_
FNDA:388,_ZN5boost21iterator_range_detail19iterator_range_baseIPKcNS_9iterators27random_access_traversal_tagEEC2IS3_EET_S8_
FNDA:388,_ZN5boost14iterator_rangeIN9__gnu_cxx17__normal_iteratorIPcSsEEEC2Ev
FNDA:2716,_ZN5boost14iterator_rangeIN9__gnu_cxx17__normal_iteratorIPcSsEEEC2IS4_EET_S7_
FNDA:388,_ZN5boost14iterator_rangeIPKcEC2IS2_EET_S5_
FNDA:388,_ZN5boost14iterator_rangeIN9__gnu_cxx17__normal_iteratorIPcSsEEEC2ISsEERT_NS_21iterator_range_detail9range_tagE
FNDA:0,_ZN5boosteqIN9__gnu_cxx17__normal_iteratorIPcSsEES4_EEbRKNS_14iterator_rangeIT_EERKNS5_IT0_EE
FNDA:388,_ZN5boost19make_iterator_rangeISsEENS_14iterator_rangeINS_14range_iteratorIT_vE4typeEEERS3_
FNDA:776,_ZN5boost10copy_rangeISsNS_14iterator_rangeIN9__gnu_cxx17__normal_iteratorIPcSsEEEEEET_RKT0_
FNF:23
FNH:22
DA:67,388
DA:69,388
DA:73,388
DA:75,388
DA:122,3880
DA:207,388
DA:209,388
DA:211,388
DA:214,3492
DA:216,3492
DA:218,3492
DA:221,4268
DA:223,4268
DA:226,4656
DA:228,4656
DA:306,388
DA:307,388
DA:308,388
DA:311,3492
DA:312,3492
DA:314,3492
DA:375,388
DA:376,388
DA:377,388
DA:380,3492
DA:381,3492
DA:383,3492
DA:463,388
DA:464,388
DA:465,388
DA:468,3104
DA:469,3104
DA:471,3104
DA:503,388
DA:505,388
DA:507,388
DA:629,0
DA:631,0
DA:775,388
DA:778,388
DA:857,776
DA:859,776
LF:42
LH:40
end_of_record
SF:/home/joanna/include/boost/regex/pattern_except.hpp
FN:71,_ZN5boost9re_detail11raise_errorINS_20regex_traits_wrapperINS_12regex_traitsIcNS_16cpp_regex_traitsIcEEEEEEEEvRKT_NS_15regex_constants10error_typeE
FNDA:0,_ZN5boost9re_detail11raise_errorINS_20regex_traits_wrapperINS_12regex_traitsIcNS_16cpp_regex_traitsIcEEEEEEEEvRKT_NS_15regex_constants10error_typeE
FNF:1
FNH:0
DA:71,0
DA:74,0
DA:75,0
DA:76,0
LF:4
LH:0
end_of_record
SF:/home/joanna/include/boost/regex/v4/basic_regex.hpp
FN:87,_ZN5boost9re_detail20named_subexpressions4nameC2Eii
FN:93,_ZNK5boost9re_detail20named_subexpressions4nameltERKS2_
FN:146,_ZNK5boost9re_detail20named_subexpressions11equal_rangeEi
FN:253,_ZNK5boost9re_detail26basic_regex_implementationIcNS_12regex_traitsIcNS_16cpp_regex_traitsIcEEEEE5flagsEv
FN:265,_ZNK5boost9re_detail26basic_regex_implementationIcNS_12regex_traitsIcNS_16cpp_regex_traitsIcEEEEE10mark_countEv
FN:269,_ZNK5boost9re_detail26basic_regex_implementationIcNS_12regex_traitsIcNS_16cpp_regex_traitsIcEEEEE15get_first_stateEv
FN:281,_ZNK5boost9re_detail26basic_regex_implementationIcNS_12regex_traitsIcNS_16cpp_regex_traitsIcEEEEE10get_traitsEv
FN:289,_ZNK5boost9re_detail26basic_regex_implementationIcNS_12regex_traitsIcNS_16cpp_regex_traitsIcEEEEE8get_dataEv
FN:346,_ZN5boost11basic_regexIcNS_12regex_traitsIcNS_16cpp_regex_traitsIcEEEEED2Ev
FN:376,_ZN5boost11basic_regexIcNS_12regex_traitsIcNS_16cpp_regex_traitsIcEEEEE6assignEPKcS7_j
FN:391,_ZN5boost11basic_regexIcNS_12regex_traitsIcNS_16cpp_regex_traitsIcEEEEEC2ISt11char_traitsIcESaIcEEERKSbIcT_T0_Ej
FN:414,_ZN5boost11basic_regexIcNS_12regex_traitsIcNS_16cpp_regex_traitsIcEEEEE6assignISt11char_traitsIcESaIcEEERS5_RKSbIcT_T0_Ej
FN:476,_ZNK5boost11basic_regexIcNS_12regex_traitsIcNS_16cpp_regex_traitsIcEEEEE5flagsEv
FN:527,_ZNK5boost11basic_regexIcNS_12regex_traitsIcNS_16cpp_regex_traitsIcEEEEE10mark_countEv
FN:600,_ZNK5boost11basic_regexIcNS_12regex_traitsIcNS_16cpp_regex_traitsIcEEEEE15get_first_stateEv
FN:615,_ZNK5boost11basic_regexIcNS_12regex_traitsIcNS_16cpp_regex_traitsIcEEEEE10get_traitsEv
FN:625,_ZNK5boost11basic_regexIcNS_12regex_traitsIcNS_16cpp_regex_traitsIcEEEEE8get_dataEv
FN:630,_ZNK5boost11basic_regexIcNS_12regex_traitsIcNS_16cpp_regex_traitsIcEEEEE14get_named_subsEv
FNDA:0,_ZN5boost9re_detail20named_subexpressions4nameC2Eii
FNDA:0,_ZNK5boost9re_detail20named_subexpressions4nameltERKS2_
FNDA:0,_ZNK5boost9re_detail20named_subexpressions11equal_rangeEi
FNDA:0,_ZNK5boost9re_detail26basic_regex_implementationIcNS_12regex_traitsIcNS_16cpp_regex_traitsIcEEEEE5flagsEv
FNDA:0,_ZNK5boost9re_detail26basic_regex_implementationIcNS_12regex_traitsIcNS_16cpp_regex_traitsIcEEEEE10mark_countEv
FNDA:0,_ZNK5boost9re_detail26basic_regex_implementationIcNS_12regex_traitsIcNS_16cpp_regex_traitsIcEEEEE15get_first_stateEv
FNDA:70360,_ZNK5boost9re_detail26basic_regex_implementationIcNS_12regex_traitsIcNS_16cpp_regex_traitsIcEEEEE10get_traitsEv
FNDA:0,_ZNK5boost9re_detail26basic_regex_implementationIcNS_12regex_traitsIcNS_16cpp_regex_traitsIcEEEEE8get_dataEv
FNDA:70360,_ZN5boost11basic_regexIcNS_12regex_traitsIcNS_16cpp_regex_traitsIcEEEEED2Ev
FNDA:70360,_ZN5boost11basic_regexIcNS_12regex_traitsIcNS_16cpp_regex_traitsIcEEEEE6assignEPKcS7_j
FNDA:70360,_ZN5boost11basic_regexIcNS_12regex_traitsIcNS_16cpp_regex_traitsIcEEEEEC2ISt11char_traitsIcESaIcEEERKSbIcT_T0_Ej
FNDA:70360,_ZN5boost11basic_regexIcNS_12regex_traitsIcNS_16cpp_regex_traitsIcEEEEE6assignISt11char_traitsIcESaIcEEERS5_RKSbIcT_T0_Ej
FNDA:0,_ZNK5boost11basic_regexIcNS_12regex_traitsIcNS_16cpp_regex_traitsIcEEEEE5flagsEv
FNDA:0,_ZNK5boost11basic_regexIcNS_12regex_traitsIcNS_16cpp_regex_traitsIcEEEEE10mark_countEv
FNDA:0,_ZNK5boost11basic_regexIcNS_12regex_traitsIcNS_16cpp_regex_traitsIcEEEEE15get_first_stateEv
FNDA:70360,_ZNK5boost11basic_regexIcNS_12regex_traitsIcNS_16cpp_regex_traitsIcEEEEE10get_traitsEv
FNDA:0,_ZNK5boost11basic_regexIcNS_12regex_traitsIcNS_16cpp_regex_traitsIcEEEEE8get_dataEv
FNDA:0,_ZNK5boost11basic_regexIcNS_12regex_traitsIcNS_16cpp_regex_traitsIcEEEEE14get_named_subsEv
FNF:18
FNH:6
DA:87,0
DA:88,0
DA:90,0
DA:93,0
DA:95,0
DA:146,0
DA:148,0
DA:149,0
DA:253,0
DA:255,0
DA:265,0
DA:267,0
DA:269,0
DA:271,0
DA:281,70360
DA:283,70360
DA:289,0
DA:291,0
DA:292,0
DA:346,70360
DA:376,70360
DA:380,70360
DA:391,70360
DA:392,70360
DA:393,70360
DA:394,70360
DA:414,70360
DA:418,70360
DA:476,0
DA:478,0
DA:527,0
DA:529,0
DA:600,0
DA:602,0
DA:603,0
DA:615,70360
DA:617,70360
DA:618,70360
DA:625,0
DA:627,0
DA:628,0
DA:630,0
DA:632,0
LF:43
LH:14
end_of_record
SF:/home/joanna/include/boost/regex/v4/cpp_regex_traits.hpp
FN:441,_ZNK5boost9re_detail31cpp_regex_traits_implementationIcE12error_stringENS_15regex_constants10error_typeE
FN:947,_ZNK5boost16cpp_regex_traitsIcE9translateEcb
FN:959,_ZNK5boost16cpp_regex_traitsIcE9transformEPKcS3_
FN:963,_ZNK5boost16cpp_regex_traitsIcE17transform_primaryEPKcS3_
